
demos/sca25519-static/bins/eval.elf:     file format elf32-littlearm


Disassembly of section .text:

08000000 <vector_table>:
 8000000:	00 00 01 10 81 3e 00 08 7f 3e 00 08 7d 3e 00 08     .....>...>..}>..
 8000010:	7d 3e 00 08 7d 3e 00 08 7d 3e 00 08 00 00 00 00     }>..}>..}>......
	...
 800002c:	7f 3e 00 08 7f 3e 00 08 00 00 00 00 7f 3e 00 08     .>...>.......>..
 800003c:	7f 3e 00 08 7d 3e 00 08 7d 3e 00 08 7d 3e 00 08     .>..}>..}>..}>..
 800004c:	7d 3e 00 08 7d 3e 00 08 7d 3e 00 08 7d 3e 00 08     }>..}>..}>..}>..
 800005c:	7d 3e 00 08 7d 3e 00 08 7d 3e 00 08 7d 3e 00 08     }>..}>..}>..}>..
 800006c:	7d 3e 00 08 7d 3e 00 08 7d 3e 00 08 7d 3e 00 08     }>..}>..}>..}>..
 800007c:	7d 3e 00 08 7d 3e 00 08 7d 3e 00 08 7d 3e 00 08     }>..}>..}>..}>..
 800008c:	7d 3e 00 08 7d 3e 00 08 7d 3e 00 08 7d 3e 00 08     }>..}>..}>..}>..
 800009c:	7d 3e 00 08 7d 3e 00 08 7d 3e 00 08 7d 3e 00 08     }>..}>..}>..}>..
 80000ac:	7d 3e 00 08 7d 3e 00 08 7d 3e 00 08 7d 3e 00 08     }>..}>..}>..}>..
 80000bc:	7d 3e 00 08 7d 3e 00 08 7d 3e 00 08 7d 3e 00 08     }>..}>..}>..}>..
 80000cc:	7d 3e 00 08 7d 3e 00 08 7d 3e 00 08 7d 3e 00 08     }>..}>..}>..}>..
 80000dc:	7d 3e 00 08 7d 3e 00 08 7d 3e 00 08 7d 3e 00 08     }>..}>..}>..}>..
 80000ec:	7d 3e 00 08 7d 3e 00 08 7d 3e 00 08 7d 3e 00 08     }>..}>..}>..}>..
 80000fc:	7d 3e 00 08 7d 3e 00 08 7d 3e 00 08 7d 3e 00 08     }>..}>..}>..}>..
 800010c:	7d 3e 00 08 7d 3e 00 08 7d 3e 00 08 7d 3e 00 08     }>..}>..}>..}>..
 800011c:	7d 3e 00 08 7d 3e 00 08 7d 3e 00 08 7d 3e 00 08     }>..}>..}>..}>..
 800012c:	7d 3e 00 08 7d 3e 00 08 7d 3e 00 08 7d 3e 00 08     }>..}>..}>..}>..
 800013c:	7d 3e 00 08 7d 3e 00 08 7d 3e 00 08 7d 3e 00 08     }>..}>..}>..}>..
 800014c:	7d 3e 00 08 7d 3e 00 08 7d 3e 00 08 7d 3e 00 08     }>..}>..}>..}>..
 800015c:	7d 3e 00 08 7d 3e 00 08 7d 3e 00 08 7d 3e 00 08     }>..}>..}>..}>..
 800016c:	7d 3e 00 08 7d 3e 00 08 7d 3e 00 08 7d 3e 00 08     }>..}>..}>..}>..
 800017c:	7d 3e 00 08 7d 3e 00 08 7d 3e 00 08 7d 3e 00 08     }>..}>..}>..}>..
 800018c:	7d 3e 00 08 7d 3e 00 08 7d 3e 00 08 7d 3e 00 08     }>..}>..}>..}>..
 800019c:	7d 3e 00 08 7d 3e 00 08 7d 3e 00 08 7d 3e 00 08     }>..}>..}>..}>..
 80001ac:	00 00 00 00                                         ....

080001b0 <main>:
 80001b0:	b5f0      	push	{r4, r5, r6, r7, lr}
 80001b2:	4c2d      	ldr	r4, [pc, #180]	; (8000268 <main+0xb8>)
 80001b4:	b0d5      	sub	sp, #340	; 0x154
 80001b6:	a328      	add	r3, pc, #160	; (adr r3, 8000258 <main+0xa8>)
 80001b8:	e9d3 2300 	ldrd	r2, r3, [r3]
 80001bc:	a128      	add	r1, pc, #160	; (adr r1, 8000260 <main+0xb0>)
 80001be:	e9d1 0100 	ldrd	r0, r1, [r1]
 80001c2:	4626      	mov	r6, r4
 80001c4:	f003 fd1e 	bl	8003c04 <pcg32_srandom>
 80001c8:	ce0f      	ldmia	r6!, {r0, r1, r2, r3}
 80001ca:	ad04      	add	r5, sp, #16
 80001cc:	c50f      	stmia	r5!, {r0, r1, r2, r3}
 80001ce:	e896 000f 	ldmia.w	r6, {r0, r1, r2, r3}
 80001d2:	f104 0620 	add.w	r6, r4, #32
 80001d6:	e885 000f 	stmia.w	r5, {r0, r1, r2, r3}
 80001da:	ce0f      	ldmia	r6!, {r0, r1, r2, r3}
 80001dc:	ad0c      	add	r5, sp, #48	; 0x30
 80001de:	c50f      	stmia	r5!, {r0, r1, r2, r3}
 80001e0:	e896 000f 	ldmia.w	r6, {r0, r1, r2, r3}
 80001e4:	2720      	movs	r7, #32
 80001e6:	e885 000f 	stmia.w	r5, {r0, r1, r2, r3}
 80001ea:	f104 0640 	add.w	r6, r4, #64	; 0x40
 80001ee:	463a      	mov	r2, r7
 80001f0:	a814      	add	r0, sp, #80	; 0x50
 80001f2:	2100      	movs	r1, #0
 80001f4:	f003 fdf2 	bl	8003ddc <memset>
 80001f8:	ce0f      	ldmia	r6!, {r0, r1, r2, r3}
 80001fa:	ad1c      	add	r5, sp, #112	; 0x70
 80001fc:	c50f      	stmia	r5!, {r0, r1, r2, r3}
 80001fe:	e896 000f 	ldmia.w	r6, {r0, r1, r2, r3}
 8000202:	3460      	adds	r4, #96	; 0x60
 8000204:	e885 000f 	stmia.w	r5, {r0, r1, r2, r3}
 8000208:	cc0f      	ldmia	r4!, {r0, r1, r2, r3}
 800020a:	ad24      	add	r5, sp, #144	; 0x90
 800020c:	c50f      	stmia	r5!, {r0, r1, r2, r3}
 800020e:	e894 000f 	ldmia.w	r4, {r0, r1, r2, r3}
 8000212:	ae2c      	add	r6, sp, #176	; 0xb0
 8000214:	2401      	movs	r4, #1
 8000216:	f88d 4050 	strb.w	r4, [sp, #80]	; 0x50
 800021a:	e885 000f 	stmia.w	r5, {r0, r1, r2, r3}
 800021e:	463a      	mov	r2, r7
 8000220:	4630      	mov	r0, r6
 8000222:	2100      	movs	r1, #0
 8000224:	f003 fdda 	bl	8003ddc <memset>
 8000228:	af3c      	add	r7, sp, #240	; 0xf0
 800022a:	ab24      	add	r3, sp, #144	; 0x90
 800022c:	ad34      	add	r5, sp, #208	; 0xd0
 800022e:	aa14      	add	r2, sp, #80	; 0x50
 8000230:	a90c      	add	r1, sp, #48	; 0x30
 8000232:	a804      	add	r0, sp, #16
 8000234:	9300      	str	r3, [sp, #0]
 8000236:	e9cd 5702 	strd	r5, r7, [sp, #8]
 800023a:	ab1c      	add	r3, sp, #112	; 0x70
 800023c:	9601      	str	r6, [sp, #4]
 800023e:	f88d 40b0 	strb.w	r4, [sp, #176]	; 0xb0
 8000242:	f002 fbf7 	bl	8002a34 <set_static_key_curve25519>
 8000246:	a944      	add	r1, sp, #272	; 0x110
 8000248:	a84c      	add	r0, sp, #304	; 0x130
 800024a:	f002 fc51 	bl	8002af0 <crypto_scalarmult_curve25519>
 800024e:	2000      	movs	r0, #0
 8000250:	b055      	add	sp, #340	; 0x154
 8000252:	bdf0      	pop	{r4, r5, r6, r7, pc}
 8000254:	f3af 8000 	nop.w
 8000258:	89abcdef 	.word	0x89abcdef
 800025c:	00000000 	.word	0x00000000
 8000260:	01234567 	.word	0x01234567
 8000264:	00000000 	.word	0x00000000
 8000268:	08003f18 	.word	0x08003f18

0800026c <fe25519_reduceTo256Bits_asm>:
 800026c:	b5f0      	push	{r4, r5, r6, r7, lr}
 800026e:	6bca      	ldr	r2, [r1, #60]	; 0x3c
 8000270:	0c13      	lsrs	r3, r2, #16
 8000272:	b292      	uxth	r2, r2
 8000274:	2726      	movs	r7, #38	; 0x26
 8000276:	437a      	muls	r2, r7
 8000278:	437b      	muls	r3, r7
 800027a:	69cc      	ldr	r4, [r1, #28]
 800027c:	0c1d      	lsrs	r5, r3, #16
 800027e:	041b      	lsls	r3, r3, #16
 8000280:	2600      	movs	r6, #0
 8000282:	18a4      	adds	r4, r4, r2
 8000284:	4175      	adcs	r5, r6
 8000286:	18e4      	adds	r4, r4, r3
 8000288:	4175      	adcs	r5, r6
 800028a:	0062      	lsls	r2, r4, #1
 800028c:	0852      	lsrs	r2, r2, #1
 800028e:	61c2      	str	r2, [r0, #28]
 8000290:	0fe4      	lsrs	r4, r4, #31
 8000292:	006d      	lsls	r5, r5, #1
 8000294:	432c      	orrs	r4, r5
 8000296:	2213      	movs	r2, #19
 8000298:	4362      	muls	r2, r4
 800029a:	680c      	ldr	r4, [r1, #0]
 800029c:	1912      	adds	r2, r2, r4
 800029e:	2300      	movs	r3, #0
 80002a0:	4173      	adcs	r3, r6
 80002a2:	6a0c      	ldr	r4, [r1, #32]
 80002a4:	0c25      	lsrs	r5, r4, #16
 80002a6:	b2a4      	uxth	r4, r4
 80002a8:	437d      	muls	r5, r7
 80002aa:	437c      	muls	r4, r7
 80002ac:	1912      	adds	r2, r2, r4
 80002ae:	4173      	adcs	r3, r6
 80002b0:	042c      	lsls	r4, r5, #16
 80002b2:	0c2d      	lsrs	r5, r5, #16
 80002b4:	1912      	adds	r2, r2, r4
 80002b6:	416b      	adcs	r3, r5
 80002b8:	6002      	str	r2, [r0, #0]
 80002ba:	684c      	ldr	r4, [r1, #4]
 80002bc:	191b      	adds	r3, r3, r4
 80002be:	2200      	movs	r2, #0
 80002c0:	4172      	adcs	r2, r6
 80002c2:	6a4c      	ldr	r4, [r1, #36]	; 0x24
 80002c4:	0c25      	lsrs	r5, r4, #16
 80002c6:	b2a4      	uxth	r4, r4
 80002c8:	437d      	muls	r5, r7
 80002ca:	437c      	muls	r4, r7
 80002cc:	191b      	adds	r3, r3, r4
 80002ce:	4172      	adcs	r2, r6
 80002d0:	042c      	lsls	r4, r5, #16
 80002d2:	0c2d      	lsrs	r5, r5, #16
 80002d4:	191b      	adds	r3, r3, r4
 80002d6:	416a      	adcs	r2, r5
 80002d8:	6043      	str	r3, [r0, #4]
 80002da:	688c      	ldr	r4, [r1, #8]
 80002dc:	1912      	adds	r2, r2, r4
 80002de:	2300      	movs	r3, #0
 80002e0:	4173      	adcs	r3, r6
 80002e2:	6a8c      	ldr	r4, [r1, #40]	; 0x28
 80002e4:	0c25      	lsrs	r5, r4, #16
 80002e6:	b2a4      	uxth	r4, r4
 80002e8:	437d      	muls	r5, r7
 80002ea:	437c      	muls	r4, r7
 80002ec:	1912      	adds	r2, r2, r4
 80002ee:	4173      	adcs	r3, r6
 80002f0:	042c      	lsls	r4, r5, #16
 80002f2:	0c2d      	lsrs	r5, r5, #16
 80002f4:	1912      	adds	r2, r2, r4
 80002f6:	416b      	adcs	r3, r5
 80002f8:	6082      	str	r2, [r0, #8]
 80002fa:	68cc      	ldr	r4, [r1, #12]
 80002fc:	191b      	adds	r3, r3, r4
 80002fe:	2200      	movs	r2, #0
 8000300:	4172      	adcs	r2, r6
 8000302:	6acc      	ldr	r4, [r1, #44]	; 0x2c
 8000304:	0c25      	lsrs	r5, r4, #16
 8000306:	b2a4      	uxth	r4, r4
 8000308:	437d      	muls	r5, r7
 800030a:	437c      	muls	r4, r7
 800030c:	191b      	adds	r3, r3, r4
 800030e:	4172      	adcs	r2, r6
 8000310:	042c      	lsls	r4, r5, #16
 8000312:	0c2d      	lsrs	r5, r5, #16
 8000314:	191b      	adds	r3, r3, r4
 8000316:	416a      	adcs	r2, r5
 8000318:	60c3      	str	r3, [r0, #12]
 800031a:	690c      	ldr	r4, [r1, #16]
 800031c:	1912      	adds	r2, r2, r4
 800031e:	2300      	movs	r3, #0
 8000320:	4173      	adcs	r3, r6
 8000322:	6b0c      	ldr	r4, [r1, #48]	; 0x30
 8000324:	0c25      	lsrs	r5, r4, #16
 8000326:	b2a4      	uxth	r4, r4
 8000328:	437d      	muls	r5, r7
 800032a:	437c      	muls	r4, r7
 800032c:	1912      	adds	r2, r2, r4
 800032e:	4173      	adcs	r3, r6
 8000330:	042c      	lsls	r4, r5, #16
 8000332:	0c2d      	lsrs	r5, r5, #16
 8000334:	1912      	adds	r2, r2, r4
 8000336:	416b      	adcs	r3, r5
 8000338:	6102      	str	r2, [r0, #16]
 800033a:	694c      	ldr	r4, [r1, #20]
 800033c:	191b      	adds	r3, r3, r4
 800033e:	2200      	movs	r2, #0
 8000340:	4172      	adcs	r2, r6
 8000342:	6b4c      	ldr	r4, [r1, #52]	; 0x34
 8000344:	0c25      	lsrs	r5, r4, #16
 8000346:	b2a4      	uxth	r4, r4
 8000348:	437d      	muls	r5, r7
 800034a:	437c      	muls	r4, r7
 800034c:	191b      	adds	r3, r3, r4
 800034e:	4172      	adcs	r2, r6
 8000350:	042c      	lsls	r4, r5, #16
 8000352:	0c2d      	lsrs	r5, r5, #16
 8000354:	191b      	adds	r3, r3, r4
 8000356:	416a      	adcs	r2, r5
 8000358:	6143      	str	r3, [r0, #20]
 800035a:	698c      	ldr	r4, [r1, #24]
 800035c:	1912      	adds	r2, r2, r4
 800035e:	2300      	movs	r3, #0
 8000360:	4173      	adcs	r3, r6
 8000362:	6b8c      	ldr	r4, [r1, #56]	; 0x38
 8000364:	0c25      	lsrs	r5, r4, #16
 8000366:	b2a4      	uxth	r4, r4
 8000368:	437d      	muls	r5, r7
 800036a:	437c      	muls	r4, r7
 800036c:	1912      	adds	r2, r2, r4
 800036e:	4173      	adcs	r3, r6
 8000370:	042c      	lsls	r4, r5, #16
 8000372:	0c2d      	lsrs	r5, r5, #16
 8000374:	1912      	adds	r2, r2, r4
 8000376:	416b      	adcs	r3, r5
 8000378:	6182      	str	r2, [r0, #24]
 800037a:	69c4      	ldr	r4, [r0, #28]
 800037c:	18e4      	adds	r4, r4, r3
 800037e:	61c4      	str	r4, [r0, #28]
 8000380:	bdf0      	pop	{r4, r5, r6, r7, pc}
 8000382:	bf00      	nop

08000384 <fe25519_square_asm>:
 8000384:	e92d 5ff1 	stmdb	sp!, {r0, r4, r5, r6, r7, r8, r9, sl, fp, ip, lr}
 8000388:	b085      	sub	sp, #20
 800038a:	6808      	ldr	r0, [r1, #0]
 800038c:	684a      	ldr	r2, [r1, #4]
 800038e:	688b      	ldr	r3, [r1, #8]
 8000390:	68cc      	ldr	r4, [r1, #12]
 8000392:	690d      	ldr	r5, [r1, #16]
 8000394:	694e      	ldr	r6, [r1, #20]
 8000396:	fba0 7802 	umull	r7, r8, r0, r2
 800039a:	fba0 9a00 	umull	r9, sl, r0, r0
 800039e:	fbe0 7a62 	umaal	r7, sl, r0, r2
 80003a2:	fbe2 8a62 	umaal	r8, sl, r2, r2
 80003a6:	f8cd 9000 	str.w	r9, [sp]
 80003aa:	9701      	str	r7, [sp, #4]
 80003ac:	fba0 7904 	umull	r7, r9, r0, r4
 80003b0:	fba0 bc03 	umull	fp, ip, r0, r3
 80003b4:	eb1b 0b0b 	adds.w	fp, fp, fp
 80003b8:	ea8e 0e0e 	eor.w	lr, lr, lr
 80003bc:	fbe8 8b6e 	umaal	r8, fp, r8, lr
 80003c0:	fbea ab6e 	umaal	sl, fp, sl, lr
 80003c4:	f8cd 8008 	str.w	r8, [sp, #8]
 80003c8:	fbe2 7c63 	umaal	r7, ip, r2, r3
 80003cc:	417f      	adcs	r7, r7
 80003ce:	fbe7 7a6e 	umaal	r7, sl, r7, lr
 80003d2:	9703      	str	r7, [sp, #12]
 80003d4:	44da      	add	sl, fp
 80003d6:	698f      	ldr	r7, [r1, #24]
 80003d8:	f8d1 801c 	ldr.w	r8, [r1, #28]
 80003dc:	fba0 1b06 	umull	r1, fp, r0, r6
 80003e0:	fbe0 9c65 	umaal	r9, ip, r0, r5
 80003e4:	fbe2 1c65 	umaal	r1, ip, r2, r5
 80003e8:	fbe0 bc67 	umaal	fp, ip, r0, r7
 80003ec:	fbe2 9e04 	umlal	r9, lr, r2, r4
 80003f0:	fbe3 1e64 	umaal	r1, lr, r3, r4
 80003f4:	fbe2 be66 	umaal	fp, lr, r2, r6
 80003f8:	fbe0 ce68 	umaal	ip, lr, r0, r8
 80003fc:	eb59 0909 	adcs.w	r9, r9, r9
 8000400:	4149      	adcs	r1, r1
 8000402:	ea80 0000 	eor.w	r0, r0, r0
 8000406:	fbe3 9a63 	umaal	r9, sl, r3, r3
 800040a:	f8cd 9010 	str.w	r9, [sp, #16]
 800040e:	fbe1 1a60 	umaal	r1, sl, r1, r0
 8000412:	fbe3 b005 	umlal	fp, r0, r3, r5
 8000416:	fbe2 0c67 	umaal	r0, ip, r2, r7
 800041a:	fbe2 ce68 	umaal	ip, lr, r2, r8
 800041e:	eb5b 0b0b 	adcs.w	fp, fp, fp
 8000422:	fbe4 ab64 	umaal	sl, fp, r4, r4
 8000426:	ea82 0202 	eor.w	r2, r2, r2
 800042a:	fbe3 0206 	umlal	r0, r2, r3, r6
 800042e:	fbe3 2c67 	umaal	r2, ip, r3, r7
 8000432:	fbe3 ce68 	umaal	ip, lr, r3, r8
 8000436:	ea83 0303 	eor.w	r3, r3, r3
 800043a:	fbe4 0305 	umlal	r0, r3, r4, r5
 800043e:	fbe4 2366 	umaal	r2, r3, r4, r6
 8000442:	fbe4 3c67 	umaal	r3, ip, r4, r7
 8000446:	fbe4 ce68 	umaal	ip, lr, r4, r8
 800044a:	4140      	adcs	r0, r0
 800044c:	ea89 0909 	eor.w	r9, r9, r9
 8000450:	fbe0 0b69 	umaal	r0, fp, r0, r9
 8000454:	4152      	adcs	r2, r2
 8000456:	fbe5 3906 	umlal	r3, r9, r5, r6
 800045a:	fbe5 9c67 	umaal	r9, ip, r5, r7
 800045e:	fbe5 ce68 	umaal	ip, lr, r5, r8
 8000462:	ea84 0404 	eor.w	r4, r4, r4
 8000466:	fbe6 c407 	umlal	ip, r4, r6, r7
 800046a:	fbe6 4e68 	umaal	r4, lr, r6, r8
 800046e:	fbe5 2b65 	umaal	r2, fp, r5, r5
 8000472:	ea85 0505 	eor.w	r5, r5, r5
 8000476:	415b      	adcs	r3, r3
 8000478:	fbe3 3b65 	umaal	r3, fp, r3, r5
 800047c:	fbe7 e508 	umlal	lr, r5, r7, r8
 8000480:	eb59 0909 	adcs.w	r9, r9, r9
 8000484:	eb5c 0c0c 	adcs.w	ip, ip, ip
 8000488:	4164      	adcs	r4, r4
 800048a:	eb5e 0e0e 	adcs.w	lr, lr, lr
 800048e:	416d      	adcs	r5, r5
 8000490:	fbe6 9b66 	umaal	r9, fp, r6, r6
 8000494:	ea86 0606 	eor.w	r6, r6, r6
 8000498:	fbeb bc66 	umaal	fp, ip, fp, r6
 800049c:	fbe7 4c67 	umaal	r4, ip, r7, r7
 80004a0:	fbec ce66 	umaal	ip, lr, ip, r6
 80004a4:	fbe8 5e68 	umaal	r5, lr, r8, r8
 80004a8:	eb5e 0e06 	adcs.w	lr, lr, r6
 80004ac:	f04f 0726 	mov.w	r7, #38	; 0x26
 80004b0:	fbee 0607 	umlal	r0, r6, lr, r7
 80004b4:	f04f 0813 	mov.w	r8, #19
 80004b8:	ea4f 7ed0 	mov.w	lr, r0, lsr #31
 80004bc:	fb0e f808 	mul.w	r8, lr, r8
 80004c0:	ea4f 0040 	mov.w	r0, r0, lsl #1
 80004c4:	ea4f 0050 	mov.w	r0, r0, lsr #1
 80004c8:	f8dd e000 	ldr.w	lr, [sp]
 80004cc:	fbe2 8e67 	umaal	r8, lr, r2, r7
 80004d0:	ea82 0202 	eor.w	r2, r2, r2
 80004d4:	fbe6 8207 	umlal	r8, r2, r6, r7
 80004d8:	4472      	add	r2, lr
 80004da:	9e05      	ldr	r6, [sp, #20]
 80004dc:	f8dd e004 	ldr.w	lr, [sp, #4]
 80004e0:	f8c6 8000 	str.w	r8, [r6]
 80004e4:	fbe3 2e67 	umaal	r2, lr, r3, r7
 80004e8:	6072      	str	r2, [r6, #4]
 80004ea:	9a02      	ldr	r2, [sp, #8]
 80004ec:	9b03      	ldr	r3, [sp, #12]
 80004ee:	f8dd 8010 	ldr.w	r8, [sp, #16]
 80004f2:	fbe9 2e67 	umaal	r2, lr, r9, r7
 80004f6:	60b2      	str	r2, [r6, #8]
 80004f8:	fbeb 3e67 	umaal	r3, lr, fp, r7
 80004fc:	60f3      	str	r3, [r6, #12]
 80004fe:	fbe4 8e67 	umaal	r8, lr, r4, r7
 8000502:	f8c6 8010 	str.w	r8, [r6, #16]
 8000506:	fbec 1e67 	umaal	r1, lr, ip, r7
 800050a:	6171      	str	r1, [r6, #20]
 800050c:	fbe5 ae67 	umaal	sl, lr, r5, r7
 8000510:	f8c6 a018 	str.w	sl, [r6, #24]
 8000514:	4470      	add	r0, lr
 8000516:	61f0      	str	r0, [r6, #28]
 8000518:	b006      	add	sp, #24
 800051a:	e8bd 9ff0 	ldmia.w	sp!, {r4, r5, r6, r7, r8, r9, sl, fp, ip, pc}
 800051e:	bf00      	nop

08000520 <fe25519_mul_asm>:
 8000520:	e92d 5ff7 	stmdb	sp!, {r0, r1, r2, r4, r5, r6, r7, r8, r9, sl, fp, ip, lr}
 8000524:	b088      	sub	sp, #32
 8000526:	6810      	ldr	r0, [r2, #0]
 8000528:	6853      	ldr	r3, [r2, #4]
 800052a:	6894      	ldr	r4, [r2, #8]
 800052c:	68d5      	ldr	r5, [r2, #12]
 800052e:	6916      	ldr	r6, [r2, #16]
 8000530:	680f      	ldr	r7, [r1, #0]
 8000532:	fba7 8903 	umull	r8, r9, r7, r3
 8000536:	fba7 ab00 	umull	sl, fp, r7, r0
 800053a:	f8cd a000 	str.w	sl, [sp]
 800053e:	ea8a 0a0a 	eor.w	sl, sl, sl
 8000542:	fbaa ce0a 	umull	ip, lr, sl, sl
 8000546:	fbe7 9a04 	umlal	r9, sl, r7, r4
 800054a:	fbe7 ac05 	umlal	sl, ip, r7, r5
 800054e:	fbe7 ce06 	umlal	ip, lr, r7, r6
 8000552:	684f      	ldr	r7, [r1, #4]
 8000554:	fbe7 8b60 	umaal	r8, fp, r7, r0
 8000558:	fbe7 9b63 	umaal	r9, fp, r7, r3
 800055c:	fbe7 ab64 	umaal	sl, fp, r7, r4
 8000560:	fbe7 bc65 	umaal	fp, ip, r7, r5
 8000564:	f8cd 8004 	str.w	r8, [sp, #4]
 8000568:	ea88 0808 	eor.w	r8, r8, r8
 800056c:	fbe7 ce66 	umaal	ip, lr, r7, r6
 8000570:	688f      	ldr	r7, [r1, #8]
 8000572:	fbe7 9800 	umlal	r9, r8, r7, r0
 8000576:	fbe7 8a63 	umaal	r8, sl, r7, r3
 800057a:	fbe7 ab64 	umaal	sl, fp, r7, r4
 800057e:	fbe7 bc65 	umaal	fp, ip, r7, r5
 8000582:	f8cd 9008 	str.w	r9, [sp, #8]
 8000586:	ea89 0909 	eor.w	r9, r9, r9
 800058a:	fbe7 ce66 	umaal	ip, lr, r7, r6
 800058e:	68cf      	ldr	r7, [r1, #12]
 8000590:	fbe7 8900 	umlal	r8, r9, r7, r0
 8000594:	fbe7 9a63 	umaal	r9, sl, r7, r3
 8000598:	fbe7 ab64 	umaal	sl, fp, r7, r4
 800059c:	fbe7 bc65 	umaal	fp, ip, r7, r5
 80005a0:	f8cd 800c 	str.w	r8, [sp, #12]
 80005a4:	ea88 0808 	eor.w	r8, r8, r8
 80005a8:	fbe7 ce66 	umaal	ip, lr, r7, r6
 80005ac:	690f      	ldr	r7, [r1, #16]
 80005ae:	fbe7 9800 	umlal	r9, r8, r7, r0
 80005b2:	fbe7 8a63 	umaal	r8, sl, r7, r3
 80005b6:	fbe7 ab64 	umaal	sl, fp, r7, r4
 80005ba:	fbe7 bc65 	umaal	fp, ip, r7, r5
 80005be:	f8cd 9010 	str.w	r9, [sp, #16]
 80005c2:	ea89 0909 	eor.w	r9, r9, r9
 80005c6:	fbe7 ce66 	umaal	ip, lr, r7, r6
 80005ca:	694a      	ldr	r2, [r1, #20]
 80005cc:	fbe2 8900 	umlal	r8, r9, r2, r0
 80005d0:	fbe2 9a63 	umaal	r9, sl, r2, r3
 80005d4:	fbe2 ab64 	umaal	sl, fp, r2, r4
 80005d8:	698a      	ldr	r2, [r1, #24]
 80005da:	ea87 0707 	eor.w	r7, r7, r7
 80005de:	fbe2 9700 	umlal	r9, r7, r2, r0
 80005e2:	fbe2 7a63 	umaal	r7, sl, r2, r3
 80005e6:	fbe2 ab64 	umaal	sl, fp, r2, r4
 80005ea:	69ca      	ldr	r2, [r1, #28]
 80005ec:	fbe2 ac63 	umaal	sl, ip, r2, r3
 80005f0:	fbe2 bc64 	umaal	fp, ip, r2, r4
 80005f4:	980a      	ldr	r0, [sp, #40]	; 0x28
 80005f6:	6943      	ldr	r3, [r0, #20]
 80005f8:	6984      	ldr	r4, [r0, #24]
 80005fa:	680d      	ldr	r5, [r1, #0]
 80005fc:	ea86 0606 	eor.w	r6, r6, r6
 8000600:	fbe5 8603 	umlal	r8, r6, r5, r3
 8000604:	fbe5 6964 	umaal	r6, r9, r5, r4
 8000608:	f8cd 8014 	str.w	r8, [sp, #20]
 800060c:	f8d0 801c 	ldr.w	r8, [r0, #28]
 8000610:	fbe5 7968 	umaal	r7, r9, r5, r8
 8000614:	684d      	ldr	r5, [r1, #4]
 8000616:	ea82 0202 	eor.w	r2, r2, r2
 800061a:	fbe5 6203 	umlal	r6, r2, r5, r3
 800061e:	9606      	str	r6, [sp, #24]
 8000620:	fbe5 2764 	umaal	r2, r7, r5, r4
 8000624:	fbe5 7968 	umaal	r7, r9, r5, r8
 8000628:	688d      	ldr	r5, [r1, #8]
 800062a:	ea86 0606 	eor.w	r6, r6, r6
 800062e:	fbe5 2603 	umlal	r2, r6, r5, r3
 8000632:	fbe5 6764 	umaal	r6, r7, r5, r4
 8000636:	fbe5 7968 	umaal	r7, r9, r5, r8
 800063a:	68cd      	ldr	r5, [r1, #12]
 800063c:	fbe5 6a63 	umaal	r6, sl, r5, r3
 8000640:	fbe5 7a64 	umaal	r7, sl, r5, r4
 8000644:	fbe5 9a68 	umaal	r9, sl, r5, r8
 8000648:	690d      	ldr	r5, [r1, #16]
 800064a:	fbe5 7b63 	umaal	r7, fp, r5, r3
 800064e:	fbe5 9b64 	umaal	r9, fp, r5, r4
 8000652:	fbe5 ab68 	umaal	sl, fp, r5, r8
 8000656:	69cd      	ldr	r5, [r1, #28]
 8000658:	6803      	ldr	r3, [r0, #0]
 800065a:	ea84 0404 	eor.w	r4, r4, r4
 800065e:	fbe5 2403 	umlal	r2, r4, r5, r3
 8000662:	9207      	str	r2, [sp, #28]
 8000664:	698a      	ldr	r2, [r1, #24]
 8000666:	694b      	ldr	r3, [r1, #20]
 8000668:	68c1      	ldr	r1, [r0, #12]
 800066a:	fbe3 4661 	umaal	r4, r6, r3, r1
 800066e:	fbe2 6761 	umaal	r6, r7, r2, r1
 8000672:	fbe5 7961 	umaal	r7, r9, r5, r1
 8000676:	6901      	ldr	r1, [r0, #16]
 8000678:	fbe3 6e61 	umaal	r6, lr, r3, r1
 800067c:	fbe2 7c61 	umaal	r7, ip, r2, r1
 8000680:	fbe5 9a61 	umaal	r9, sl, r5, r1
 8000684:	6941      	ldr	r1, [r0, #20]
 8000686:	fbe3 7e61 	umaal	r7, lr, r3, r1
 800068a:	fbe2 9c61 	umaal	r9, ip, r2, r1
 800068e:	fbe5 ab61 	umaal	sl, fp, r5, r1
 8000692:	6981      	ldr	r1, [r0, #24]
 8000694:	fbe3 9e61 	umaal	r9, lr, r3, r1
 8000698:	fbe2 ac61 	umaal	sl, ip, r2, r1
 800069c:	fbe5 bc61 	umaal	fp, ip, r5, r1
 80006a0:	fbe3 ae68 	umaal	sl, lr, r3, r8
 80006a4:	fbe2 be68 	umaal	fp, lr, r2, r8
 80006a8:	fbe5 ce68 	umaal	ip, lr, r5, r8
 80006ac:	9807      	ldr	r0, [sp, #28]
 80006ae:	9900      	ldr	r1, [sp, #0]
 80006b0:	9a01      	ldr	r2, [sp, #4]
 80006b2:	f04f 0326 	mov.w	r3, #38	; 0x26
 80006b6:	ea85 0505 	eor.w	r5, r5, r5
 80006ba:	fbee 0503 	umlal	r0, r5, lr, r3
 80006be:	f04f 0813 	mov.w	r8, #19
 80006c2:	ea4f 7ed0 	mov.w	lr, r0, lsr #31
 80006c6:	fb0e f808 	mul.w	r8, lr, r8
 80006ca:	ea4f 0040 	mov.w	r0, r0, lsl #1
 80006ce:	ea4f 0050 	mov.w	r0, r0, lsr #1
 80006d2:	fbe4 1863 	umaal	r1, r8, r4, r3
 80006d6:	ea84 0404 	eor.w	r4, r4, r4
 80006da:	fbe5 1403 	umlal	r1, r4, r5, r3
 80006de:	4422      	add	r2, r4
 80006e0:	fbe6 2863 	umaal	r2, r8, r6, r3
 80006e4:	9c02      	ldr	r4, [sp, #8]
 80006e6:	9d03      	ldr	r5, [sp, #12]
 80006e8:	9e04      	ldr	r6, [sp, #16]
 80006ea:	f8dd e014 	ldr.w	lr, [sp, #20]
 80006ee:	fbe7 4863 	umaal	r4, r8, r7, r3
 80006f2:	fbe9 5863 	umaal	r5, r8, r9, r3
 80006f6:	fbea 6863 	umaal	r6, r8, sl, r3
 80006fa:	fbeb 8e63 	umaal	r8, lr, fp, r3
 80006fe:	9f06      	ldr	r7, [sp, #24]
 8000700:	f8dd 9020 	ldr.w	r9, [sp, #32]
 8000704:	fbec 7e63 	umaal	r7, lr, ip, r3
 8000708:	4470      	add	r0, lr
 800070a:	f8c9 001c 	str.w	r0, [r9, #28]
 800070e:	f8c9 7018 	str.w	r7, [r9, #24]
 8000712:	f8c9 8014 	str.w	r8, [r9, #20]
 8000716:	f8c9 6010 	str.w	r6, [r9, #16]
 800071a:	f8c9 500c 	str.w	r5, [r9, #12]
 800071e:	f8c9 4008 	str.w	r4, [r9, #8]
 8000722:	f8c9 2004 	str.w	r2, [r9, #4]
 8000726:	f8c9 1000 	str.w	r1, [r9]
 800072a:	b00b      	add	sp, #44	; 0x2c
 800072c:	e8bd 9ff0 	ldmia.w	sp!, {r4, r5, r6, r7, r8, r9, sl, fp, ip, pc}

08000730 <multiply256x256_asm>:
 8000730:	e92d 5ff7 	stmdb	sp!, {r0, r1, r2, r4, r5, r6, r7, r8, r9, sl, fp, ip, lr}
 8000734:	6813      	ldr	r3, [r2, #0]
 8000736:	6854      	ldr	r4, [r2, #4]
 8000738:	6895      	ldr	r5, [r2, #8]
 800073a:	68d6      	ldr	r6, [r2, #12]
 800073c:	6917      	ldr	r7, [r2, #16]
 800073e:	680a      	ldr	r2, [r1, #0]
 8000740:	ea88 0808 	eor.w	r8, r8, r8
 8000744:	fba8 9a08 	umull	r9, sl, r8, r8
 8000748:	ea8b 0b0b 	eor.w	fp, fp, fp
 800074c:	fba2 ce03 	umull	ip, lr, r2, r3
 8000750:	fbe2 e804 	umlal	lr, r8, r2, r4
 8000754:	fbe2 8905 	umlal	r8, r9, r2, r5
 8000758:	fbe2 9a06 	umlal	r9, sl, r2, r6
 800075c:	f8c0 c000 	str.w	ip, [r0]
 8000760:	ea8c 0c0c 	eor.w	ip, ip, ip
 8000764:	fbe2 ab07 	umlal	sl, fp, r2, r7
 8000768:	684a      	ldr	r2, [r1, #4]
 800076a:	fbe2 ec03 	umlal	lr, ip, r2, r3
 800076e:	fbe2 8c64 	umaal	r8, ip, r2, r4
 8000772:	fbe2 9c65 	umaal	r9, ip, r2, r5
 8000776:	fbe2 ac66 	umaal	sl, ip, r2, r6
 800077a:	f8c0 e004 	str.w	lr, [r0, #4]
 800077e:	ea8e 0e0e 	eor.w	lr, lr, lr
 8000782:	fbe2 bc67 	umaal	fp, ip, r2, r7
 8000786:	688a      	ldr	r2, [r1, #8]
 8000788:	fbe2 8e03 	umlal	r8, lr, r2, r3
 800078c:	fbe2 9e64 	umaal	r9, lr, r2, r4
 8000790:	fbe2 ae65 	umaal	sl, lr, r2, r5
 8000794:	fbe2 be66 	umaal	fp, lr, r2, r6
 8000798:	f8c0 8008 	str.w	r8, [r0, #8]
 800079c:	ea88 0808 	eor.w	r8, r8, r8
 80007a0:	fbe2 ce67 	umaal	ip, lr, r2, r7
 80007a4:	68ca      	ldr	r2, [r1, #12]
 80007a6:	fbe2 9803 	umlal	r9, r8, r2, r3
 80007aa:	fbe2 8a64 	umaal	r8, sl, r2, r4
 80007ae:	fbe2 ab65 	umaal	sl, fp, r2, r5
 80007b2:	fbe2 bc66 	umaal	fp, ip, r2, r6
 80007b6:	f8c0 900c 	str.w	r9, [r0, #12]
 80007ba:	ea89 0909 	eor.w	r9, r9, r9
 80007be:	fbe2 ce67 	umaal	ip, lr, r2, r7
 80007c2:	690a      	ldr	r2, [r1, #16]
 80007c4:	fbe2 8903 	umlal	r8, r9, r2, r3
 80007c8:	fbe2 9a64 	umaal	r9, sl, r2, r4
 80007cc:	fbe2 ab65 	umaal	sl, fp, r2, r5
 80007d0:	fbe2 bc66 	umaal	fp, ip, r2, r6
 80007d4:	f8c0 8010 	str.w	r8, [r0, #16]
 80007d8:	ea88 0808 	eor.w	r8, r8, r8
 80007dc:	fbe2 ce67 	umaal	ip, lr, r2, r7
 80007e0:	694a      	ldr	r2, [r1, #20]
 80007e2:	fbe2 9803 	umlal	r9, r8, r2, r3
 80007e6:	fbe2 8a64 	umaal	r8, sl, r2, r4
 80007ea:	9a02      	ldr	r2, [sp, #8]
 80007ec:	6953      	ldr	r3, [r2, #20]
 80007ee:	6994      	ldr	r4, [r2, #24]
 80007f0:	680d      	ldr	r5, [r1, #0]
 80007f2:	ea86 0606 	eor.w	r6, r6, r6
 80007f6:	fbe5 9603 	umlal	r9, r6, r5, r3
 80007fa:	fbe5 6864 	umaal	r6, r8, r5, r4
 80007fe:	f8c0 9014 	str.w	r9, [r0, #20]
 8000802:	ea87 0707 	eor.w	r7, r7, r7
 8000806:	f8d2 901c 	ldr.w	r9, [r2, #28]
 800080a:	fbe5 8a69 	umaal	r8, sl, r5, r9
 800080e:	684d      	ldr	r5, [r1, #4]
 8000810:	fbe5 6703 	umlal	r6, r7, r5, r3
 8000814:	fbe5 7864 	umaal	r7, r8, r5, r4
 8000818:	fbe5 8a69 	umaal	r8, sl, r5, r9
 800081c:	688d      	ldr	r5, [r1, #8]
 800081e:	fbe5 7b63 	umaal	r7, fp, r5, r3
 8000822:	fbe5 8b64 	umaal	r8, fp, r5, r4
 8000826:	fbe5 ab69 	umaal	sl, fp, r5, r9
 800082a:	68cd      	ldr	r5, [r1, #12]
 800082c:	fbe5 8c63 	umaal	r8, ip, r5, r3
 8000830:	fbe5 ac64 	umaal	sl, ip, r5, r4
 8000834:	fbe5 bc69 	umaal	fp, ip, r5, r9
 8000838:	690d      	ldr	r5, [r1, #16]
 800083a:	fbe5 ae63 	umaal	sl, lr, r5, r3
 800083e:	fbe5 be64 	umaal	fp, lr, r5, r4
 8000842:	fbe5 ce69 	umaal	ip, lr, r5, r9
 8000846:	698d      	ldr	r5, [r1, #24]
 8000848:	6813      	ldr	r3, [r2, #0]
 800084a:	6854      	ldr	r4, [r2, #4]
 800084c:	ea89 0909 	eor.w	r9, r9, r9
 8000850:	fbe5 6903 	umlal	r6, r9, r5, r3
 8000854:	fbe5 7964 	umaal	r7, r9, r5, r4
 8000858:	6186      	str	r6, [r0, #24]
 800085a:	6896      	ldr	r6, [r2, #8]
 800085c:	fbe5 8966 	umaal	r8, r9, r5, r6
 8000860:	694d      	ldr	r5, [r1, #20]
 8000862:	ea82 0202 	eor.w	r2, r2, r2
 8000866:	fbe5 7206 	umlal	r7, r2, r5, r6
 800086a:	69cd      	ldr	r5, [r1, #28]
 800086c:	ea81 0101 	eor.w	r1, r1, r1
 8000870:	fbe5 7103 	umlal	r7, r1, r5, r3
 8000874:	61c7      	str	r7, [r0, #28]
 8000876:	fbe5 1264 	umaal	r1, r2, r5, r4
 800087a:	fbe5 2966 	umaal	r2, r9, r5, r6
 800087e:	9b01      	ldr	r3, [sp, #4]
 8000880:	695c      	ldr	r4, [r3, #20]
 8000882:	699e      	ldr	r6, [r3, #24]
 8000884:	9b02      	ldr	r3, [sp, #8]
 8000886:	68df      	ldr	r7, [r3, #12]
 8000888:	fbe4 1867 	umaal	r1, r8, r4, r7
 800088c:	6201      	str	r1, [r0, #32]
 800088e:	fbe6 2867 	umaal	r2, r8, r6, r7
 8000892:	fbe5 8967 	umaal	r8, r9, r5, r7
 8000896:	6919      	ldr	r1, [r3, #16]
 8000898:	fbe4 2a61 	umaal	r2, sl, r4, r1
 800089c:	fbe6 8a61 	umaal	r8, sl, r6, r1
 80008a0:	fbe5 9a61 	umaal	r9, sl, r5, r1
 80008a4:	6959      	ldr	r1, [r3, #20]
 80008a6:	fbe4 8b61 	umaal	r8, fp, r4, r1
 80008aa:	fbe6 9b61 	umaal	r9, fp, r6, r1
 80008ae:	fbe5 ab61 	umaal	sl, fp, r5, r1
 80008b2:	6999      	ldr	r1, [r3, #24]
 80008b4:	fbe4 9c61 	umaal	r9, ip, r4, r1
 80008b8:	fbe6 ac61 	umaal	sl, ip, r6, r1
 80008bc:	fbe5 bc61 	umaal	fp, ip, r5, r1
 80008c0:	69d9      	ldr	r1, [r3, #28]
 80008c2:	fbe4 ae61 	umaal	sl, lr, r4, r1
 80008c6:	fbe6 be61 	umaal	fp, lr, r6, r1
 80008ca:	fbe5 ce61 	umaal	ip, lr, r5, r1
 80008ce:	6242      	str	r2, [r0, #36]	; 0x24
 80008d0:	f8c0 8028 	str.w	r8, [r0, #40]	; 0x28
 80008d4:	f8c0 902c 	str.w	r9, [r0, #44]	; 0x2c
 80008d8:	f8c0 a030 	str.w	sl, [r0, #48]	; 0x30
 80008dc:	f8c0 b034 	str.w	fp, [r0, #52]	; 0x34
 80008e0:	f8c0 c038 	str.w	ip, [r0, #56]	; 0x38
 80008e4:	f8c0 e03c 	str.w	lr, [r0, #60]	; 0x3c
 80008e8:	b003      	add	sp, #12
 80008ea:	e8bd 9ff0 	ldmia.w	sp!, {r4, r5, r6, r7, r8, r9, sl, fp, ip, pc}
 80008ee:	bf00      	nop

080008f0 <randombytes>:
 80008f0:	e92d 4bf0 	stmdb	sp!, {r4, r5, r6, r7, r8, r9, fp, lr}
 80008f4:	2b00      	cmp	r3, #0
 80008f6:	bf08      	it	eq
 80008f8:	2a05      	cmpeq	r2, #5
 80008fa:	b082      	sub	sp, #8
 80008fc:	4616      	mov	r6, r2
 80008fe:	461f      	mov	r7, r3
 8000900:	4681      	mov	r9, r0
 8000902:	d33c      	bcc.n	800097e <randombytes+0x8e>
 8000904:	f100 0804 	add.w	r8, r0, #4
 8000908:	4614      	mov	r4, r2
 800090a:	461d      	mov	r5, r3
 800090c:	f003 f99c 	bl	8003c48 <pcg32_random>
 8000910:	3c04      	subs	r4, #4
 8000912:	f145 35ff 	adc.w	r5, r5, #4294967295	; 0xffffffff
 8000916:	2d00      	cmp	r5, #0
 8000918:	f3c0 2107 	ubfx	r1, r0, #8, #8
 800091c:	f3c0 4207 	ubfx	r2, r0, #16, #8
 8000920:	f3c0 6307 	ubfx	r3, r0, #24, #8
 8000924:	bf08      	it	eq
 8000926:	2c05      	cmpeq	r4, #5
 8000928:	f808 0c04 	strb.w	r0, [r8, #-4]
 800092c:	f808 1c03 	strb.w	r1, [r8, #-3]
 8000930:	f808 2c02 	strb.w	r2, [r8, #-2]
 8000934:	f808 3c01 	strb.w	r3, [r8, #-1]
 8000938:	f108 0804 	add.w	r8, r8, #4
 800093c:	d2e6      	bcs.n	800090c <randombytes+0x1c>
 800093e:	1f71      	subs	r1, r6, #5
 8000940:	ea4f 0b91 	mov.w	fp, r1, lsr #2
 8000944:	f147 31ff 	adc.w	r1, r7, #4294967295	; 0xffffffff
 8000948:	ea4b 7b81 	orr.w	fp, fp, r1, lsl #30
 800094c:	1f34      	subs	r4, r6, #4
 800094e:	f1db 0000 	rsbs	r0, fp, #0
 8000952:	0083      	lsls	r3, r0, #2
 8000954:	f10b 0201 	add.w	r2, fp, #1
 8000958:	eb09 0982 	add.w	r9, r9, r2, lsl #2
 800095c:	191e      	adds	r6, r3, r4
 800095e:	f003 f973 	bl	8003c48 <pcg32_random>
 8000962:	ab02      	add	r3, sp, #8
 8000964:	4433      	add	r3, r6
 8000966:	9001      	str	r0, [sp, #4]
 8000968:	444e      	add	r6, r9
 800096a:	3b05      	subs	r3, #5
 800096c:	f813 2901 	ldrb.w	r2, [r3], #-1
 8000970:	f809 2b01 	strb.w	r2, [r9], #1
 8000974:	45b1      	cmp	r9, r6
 8000976:	d1f9      	bne.n	800096c <randombytes+0x7c>
 8000978:	b002      	add	sp, #8
 800097a:	e8bd 8bf0 	ldmia.w	sp!, {r4, r5, r6, r7, r8, r9, fp, pc}
 800097e:	ea56 0307 	orrs.w	r3, r6, r7
 8000982:	d1ec      	bne.n	800095e <randombytes+0x6e>
 8000984:	b002      	add	sp, #8
 8000986:	e8bd 8bf0 	ldmia.w	sp!, {r4, r5, r6, r7, r8, r9, fp, pc}
 800098a:	bf00      	nop

0800098c <curve25519_doublePoint>:
 800098c:	e92d 47f0 	stmdb	sp!, {r4, r5, r6, r7, r8, r9, sl, lr}
 8000990:	b0b8      	sub	sp, #224	; 0xe0
 8000992:	460d      	mov	r5, r1
 8000994:	4607      	mov	r7, r0
 8000996:	6889      	ldr	r1, [r1, #8]
 8000998:	a828      	add	r0, sp, #160	; 0xa0
 800099a:	f7ff fcf3 	bl	8000384 <fe25519_square_asm>
 800099e:	a928      	add	r1, sp, #160	; 0xa0
 80009a0:	686a      	ldr	r2, [r5, #4]
 80009a2:	4608      	mov	r0, r1
 80009a4:	f7ff fdbc 	bl	8000520 <fe25519_mul_asm>
 80009a8:	2401      	movs	r4, #1
 80009aa:	ab28      	add	r3, sp, #160	; 0xa0
 80009ac:	4622      	mov	r2, r4
 80009ae:	469e      	mov	lr, r3
 80009b0:	4698      	mov	r8, r3
 80009b2:	f8de 001c 	ldr.w	r0, [lr, #28]
 80009b6:	f8d8 101c 	ldr.w	r1, [r8, #28]
 80009ba:	460e      	mov	r6, r1
 80009bc:	fbe0 0662 	umaal	r0, r6, r0, r2
 80009c0:	fbe1 0602 	umlal	r0, r6, r1, r2
 80009c4:	f04f 0113 	mov.w	r1, #19
 80009c8:	fb06 f101 	mul.w	r1, r6, r1
 80009cc:	f8de 6000 	ldr.w	r6, [lr]
 80009d0:	f8d8 c000 	ldr.w	ip, [r8]
 80009d4:	fbe2 6c61 	umaal	r6, ip, r2, r1
 80009d8:	601e      	str	r6, [r3, #0]
 80009da:	f8de 1004 	ldr.w	r1, [lr, #4]
 80009de:	f8d8 6004 	ldr.w	r6, [r8, #4]
 80009e2:	fbe2 6c61 	umaal	r6, ip, r2, r1
 80009e6:	605e      	str	r6, [r3, #4]
 80009e8:	f8de 1008 	ldr.w	r1, [lr, #8]
 80009ec:	f8d8 6008 	ldr.w	r6, [r8, #8]
 80009f0:	fbe2 6c61 	umaal	r6, ip, r2, r1
 80009f4:	609e      	str	r6, [r3, #8]
 80009f6:	f8de 100c 	ldr.w	r1, [lr, #12]
 80009fa:	f8d8 600c 	ldr.w	r6, [r8, #12]
 80009fe:	fbe2 6c61 	umaal	r6, ip, r2, r1
 8000a02:	60de      	str	r6, [r3, #12]
 8000a04:	f8de 1010 	ldr.w	r1, [lr, #16]
 8000a08:	f8d8 6010 	ldr.w	r6, [r8, #16]
 8000a0c:	fbe2 6c61 	umaal	r6, ip, r2, r1
 8000a10:	611e      	str	r6, [r3, #16]
 8000a12:	f8de 1014 	ldr.w	r1, [lr, #20]
 8000a16:	f8d8 6014 	ldr.w	r6, [r8, #20]
 8000a1a:	fbe2 6c61 	umaal	r6, ip, r2, r1
 8000a1e:	615e      	str	r6, [r3, #20]
 8000a20:	f8de 1018 	ldr.w	r1, [lr, #24]
 8000a24:	f8d8 6018 	ldr.w	r6, [r8, #24]
 8000a28:	fbe2 6c61 	umaal	r6, ip, r2, r1
 8000a2c:	619e      	str	r6, [r3, #24]
 8000a2e:	eb0c 0c50 	add.w	ip, ip, r0, lsr #1
 8000a32:	f8c3 c01c 	str.w	ip, [r3, #28]
 8000a36:	6829      	ldr	r1, [r5, #0]
 8000a38:	4668      	mov	r0, sp
 8000a3a:	f7ff fca3 	bl	8000384 <fe25519_square_asm>
 8000a3e:	68aa      	ldr	r2, [r5, #8]
 8000a40:	4669      	mov	r1, sp
 8000a42:	4668      	mov	r0, sp
 8000a44:	f7ff fd6c 	bl	8000520 <fe25519_mul_asm>
 8000a48:	466b      	mov	r3, sp
 8000a4a:	aa08      	add	r2, sp, #32
 8000a4c:	4621      	mov	r1, r4
 8000a4e:	4698      	mov	r8, r3
 8000a50:	69de      	ldr	r6, [r3, #28]
 8000a52:	f8d8 001c 	ldr.w	r0, [r8, #28]
 8000a56:	4684      	mov	ip, r0
 8000a58:	fbe6 6c61 	umaal	r6, ip, r6, r1
 8000a5c:	fbe0 6c01 	umlal	r6, ip, r0, r1
 8000a60:	f04f 0013 	mov.w	r0, #19
 8000a64:	fb0c f000 	mul.w	r0, ip, r0
 8000a68:	f8d3 c000 	ldr.w	ip, [r3]
 8000a6c:	f8d8 e000 	ldr.w	lr, [r8]
 8000a70:	fbe1 ce60 	umaal	ip, lr, r1, r0
 8000a74:	f8c2 c000 	str.w	ip, [r2]
 8000a78:	6858      	ldr	r0, [r3, #4]
 8000a7a:	f8d8 c004 	ldr.w	ip, [r8, #4]
 8000a7e:	fbe1 ce60 	umaal	ip, lr, r1, r0
 8000a82:	f8c2 c004 	str.w	ip, [r2, #4]
 8000a86:	6898      	ldr	r0, [r3, #8]
 8000a88:	f8d8 c008 	ldr.w	ip, [r8, #8]
 8000a8c:	fbe1 ce60 	umaal	ip, lr, r1, r0
 8000a90:	f8c2 c008 	str.w	ip, [r2, #8]
 8000a94:	68d8      	ldr	r0, [r3, #12]
 8000a96:	f8d8 c00c 	ldr.w	ip, [r8, #12]
 8000a9a:	fbe1 ce60 	umaal	ip, lr, r1, r0
 8000a9e:	f8c2 c00c 	str.w	ip, [r2, #12]
 8000aa2:	6918      	ldr	r0, [r3, #16]
 8000aa4:	f8d8 c010 	ldr.w	ip, [r8, #16]
 8000aa8:	fbe1 ce60 	umaal	ip, lr, r1, r0
 8000aac:	f8c2 c010 	str.w	ip, [r2, #16]
 8000ab0:	6958      	ldr	r0, [r3, #20]
 8000ab2:	f8d8 c014 	ldr.w	ip, [r8, #20]
 8000ab6:	fbe1 ce60 	umaal	ip, lr, r1, r0
 8000aba:	f8c2 c014 	str.w	ip, [r2, #20]
 8000abe:	6998      	ldr	r0, [r3, #24]
 8000ac0:	f8d8 c018 	ldr.w	ip, [r8, #24]
 8000ac4:	fbe1 ce60 	umaal	ip, lr, r1, r0
 8000ac8:	f8c2 c018 	str.w	ip, [r2, #24]
 8000acc:	eb0e 0e56 	add.w	lr, lr, r6, lsr #1
 8000ad0:	f8c2 e01c 	str.w	lr, [r2, #28]
 8000ad4:	466b      	mov	r3, sp
 8000ad6:	aa08      	add	r2, sp, #32
 8000ad8:	4621      	mov	r1, r4
 8000ada:	4698      	mov	r8, r3
 8000adc:	f8d8 601c 	ldr.w	r6, [r8, #28]
 8000ae0:	69d0      	ldr	r0, [r2, #28]
 8000ae2:	4684      	mov	ip, r0
 8000ae4:	fbe6 6c61 	umaal	r6, ip, r6, r1
 8000ae8:	fbe0 6c01 	umlal	r6, ip, r0, r1
 8000aec:	f04f 0013 	mov.w	r0, #19
 8000af0:	fb0c f000 	mul.w	r0, ip, r0
 8000af4:	f8d8 c000 	ldr.w	ip, [r8]
 8000af8:	f8d2 e000 	ldr.w	lr, [r2]
 8000afc:	fbe1 ce60 	umaal	ip, lr, r1, r0
 8000b00:	f8c3 c000 	str.w	ip, [r3]
 8000b04:	f8d8 0004 	ldr.w	r0, [r8, #4]
 8000b08:	f8d2 c004 	ldr.w	ip, [r2, #4]
 8000b0c:	fbe1 ce60 	umaal	ip, lr, r1, r0
 8000b10:	f8c3 c004 	str.w	ip, [r3, #4]
 8000b14:	f8d8 0008 	ldr.w	r0, [r8, #8]
 8000b18:	f8d2 c008 	ldr.w	ip, [r2, #8]
 8000b1c:	fbe1 ce60 	umaal	ip, lr, r1, r0
 8000b20:	f8c3 c008 	str.w	ip, [r3, #8]
 8000b24:	f8d8 000c 	ldr.w	r0, [r8, #12]
 8000b28:	f8d2 c00c 	ldr.w	ip, [r2, #12]
 8000b2c:	fbe1 ce60 	umaal	ip, lr, r1, r0
 8000b30:	f8c3 c00c 	str.w	ip, [r3, #12]
 8000b34:	f8d8 0010 	ldr.w	r0, [r8, #16]
 8000b38:	f8d2 c010 	ldr.w	ip, [r2, #16]
 8000b3c:	fbe1 ce60 	umaal	ip, lr, r1, r0
 8000b40:	f8c3 c010 	str.w	ip, [r3, #16]
 8000b44:	f8d8 0014 	ldr.w	r0, [r8, #20]
 8000b48:	f8d2 c014 	ldr.w	ip, [r2, #20]
 8000b4c:	fbe1 ce60 	umaal	ip, lr, r1, r0
 8000b50:	f8c3 c014 	str.w	ip, [r3, #20]
 8000b54:	f8d8 0018 	ldr.w	r0, [r8, #24]
 8000b58:	f8d2 c018 	ldr.w	ip, [r2, #24]
 8000b5c:	fbe1 ce60 	umaal	ip, lr, r1, r0
 8000b60:	f8c3 c018 	str.w	ip, [r3, #24]
 8000b64:	eb0e 0e56 	add.w	lr, lr, r6, lsr #1
 8000b68:	f8c3 e01c 	str.w	lr, [r3, #28]
 8000b6c:	68a9      	ldr	r1, [r5, #8]
 8000b6e:	f8df 8ad0 	ldr.w	r8, [pc, #2768]	; 8001640 <curve25519_doublePoint+0xcb4>
 8000b72:	a808      	add	r0, sp, #32
 8000b74:	f7ff fc06 	bl	8000384 <fe25519_square_asm>
 8000b78:	a908      	add	r1, sp, #32
 8000b7a:	682a      	ldr	r2, [r5, #0]
 8000b7c:	4608      	mov	r0, r1
 8000b7e:	f7ff fccf 	bl	8000520 <fe25519_mul_asm>
 8000b82:	a908      	add	r1, sp, #32
 8000b84:	4642      	mov	r2, r8
 8000b86:	4608      	mov	r0, r1
 8000b88:	f7ff fcca 	bl	8000520 <fe25519_mul_asm>
 8000b8c:	ab08      	add	r3, sp, #32
 8000b8e:	4622      	mov	r2, r4
 8000b90:	469e      	mov	lr, r3
 8000b92:	4699      	mov	r9, r3
 8000b94:	f8de 001c 	ldr.w	r0, [lr, #28]
 8000b98:	f8d9 101c 	ldr.w	r1, [r9, #28]
 8000b9c:	460e      	mov	r6, r1
 8000b9e:	fbe0 0662 	umaal	r0, r6, r0, r2
 8000ba2:	fbe1 0602 	umlal	r0, r6, r1, r2
 8000ba6:	f04f 0113 	mov.w	r1, #19
 8000baa:	fb06 f101 	mul.w	r1, r6, r1
 8000bae:	f8de 6000 	ldr.w	r6, [lr]
 8000bb2:	f8d9 c000 	ldr.w	ip, [r9]
 8000bb6:	fbe2 6c61 	umaal	r6, ip, r2, r1
 8000bba:	601e      	str	r6, [r3, #0]
 8000bbc:	f8de 1004 	ldr.w	r1, [lr, #4]
 8000bc0:	f8d9 6004 	ldr.w	r6, [r9, #4]
 8000bc4:	fbe2 6c61 	umaal	r6, ip, r2, r1
 8000bc8:	605e      	str	r6, [r3, #4]
 8000bca:	f8de 1008 	ldr.w	r1, [lr, #8]
 8000bce:	f8d9 6008 	ldr.w	r6, [r9, #8]
 8000bd2:	fbe2 6c61 	umaal	r6, ip, r2, r1
 8000bd6:	609e      	str	r6, [r3, #8]
 8000bd8:	f8de 100c 	ldr.w	r1, [lr, #12]
 8000bdc:	f8d9 600c 	ldr.w	r6, [r9, #12]
 8000be0:	fbe2 6c61 	umaal	r6, ip, r2, r1
 8000be4:	60de      	str	r6, [r3, #12]
 8000be6:	f8de 1010 	ldr.w	r1, [lr, #16]
 8000bea:	f8d9 6010 	ldr.w	r6, [r9, #16]
 8000bee:	fbe2 6c61 	umaal	r6, ip, r2, r1
 8000bf2:	611e      	str	r6, [r3, #16]
 8000bf4:	f8de 1014 	ldr.w	r1, [lr, #20]
 8000bf8:	f8d9 6014 	ldr.w	r6, [r9, #20]
 8000bfc:	fbe2 6c61 	umaal	r6, ip, r2, r1
 8000c00:	615e      	str	r6, [r3, #20]
 8000c02:	f8de 1018 	ldr.w	r1, [lr, #24]
 8000c06:	f8d9 6018 	ldr.w	r6, [r9, #24]
 8000c0a:	fbe2 6c61 	umaal	r6, ip, r2, r1
 8000c0e:	619e      	str	r6, [r3, #24]
 8000c10:	eb0c 0c50 	add.w	ip, ip, r0, lsr #1
 8000c14:	f8c3 c01c 	str.w	ip, [r3, #28]
 8000c18:	466b      	mov	r3, sp
 8000c1a:	aa08      	add	r2, sp, #32
 8000c1c:	4621      	mov	r1, r4
 8000c1e:	4699      	mov	r9, r3
 8000c20:	f8d9 601c 	ldr.w	r6, [r9, #28]
 8000c24:	69d0      	ldr	r0, [r2, #28]
 8000c26:	4684      	mov	ip, r0
 8000c28:	fbe6 6c61 	umaal	r6, ip, r6, r1
 8000c2c:	fbe0 6c01 	umlal	r6, ip, r0, r1
 8000c30:	f04f 0013 	mov.w	r0, #19
 8000c34:	fb0c f000 	mul.w	r0, ip, r0
 8000c38:	f8d9 c000 	ldr.w	ip, [r9]
 8000c3c:	f8d2 e000 	ldr.w	lr, [r2]
 8000c40:	fbe1 ce60 	umaal	ip, lr, r1, r0
 8000c44:	f8c3 c000 	str.w	ip, [r3]
 8000c48:	f8d9 0004 	ldr.w	r0, [r9, #4]
 8000c4c:	f8d2 c004 	ldr.w	ip, [r2, #4]
 8000c50:	fbe1 ce60 	umaal	ip, lr, r1, r0
 8000c54:	f8c3 c004 	str.w	ip, [r3, #4]
 8000c58:	f8d9 0008 	ldr.w	r0, [r9, #8]
 8000c5c:	f8d2 c008 	ldr.w	ip, [r2, #8]
 8000c60:	fbe1 ce60 	umaal	ip, lr, r1, r0
 8000c64:	f8c3 c008 	str.w	ip, [r3, #8]
 8000c68:	f8d9 000c 	ldr.w	r0, [r9, #12]
 8000c6c:	f8d2 c00c 	ldr.w	ip, [r2, #12]
 8000c70:	fbe1 ce60 	umaal	ip, lr, r1, r0
 8000c74:	f8c3 c00c 	str.w	ip, [r3, #12]
 8000c78:	f8d9 0010 	ldr.w	r0, [r9, #16]
 8000c7c:	f8d2 c010 	ldr.w	ip, [r2, #16]
 8000c80:	fbe1 ce60 	umaal	ip, lr, r1, r0
 8000c84:	f8c3 c010 	str.w	ip, [r3, #16]
 8000c88:	f8d9 0014 	ldr.w	r0, [r9, #20]
 8000c8c:	f8d2 c014 	ldr.w	ip, [r2, #20]
 8000c90:	fbe1 ce60 	umaal	ip, lr, r1, r0
 8000c94:	f8c3 c014 	str.w	ip, [r3, #20]
 8000c98:	f8d9 0018 	ldr.w	r0, [r9, #24]
 8000c9c:	f8d2 c018 	ldr.w	ip, [r2, #24]
 8000ca0:	fbe1 ce60 	umaal	ip, lr, r1, r0
 8000ca4:	f8c3 c018 	str.w	ip, [r3, #24]
 8000ca8:	eb0e 0e56 	add.w	lr, lr, r6, lsr #1
 8000cac:	f8c3 e01c 	str.w	lr, [r3, #28]
 8000cb0:	68a9      	ldr	r1, [r5, #8]
 8000cb2:	a808      	add	r0, sp, #32
 8000cb4:	f7ff fb66 	bl	8000384 <fe25519_square_asm>
 8000cb8:	a908      	add	r1, sp, #32
 8000cba:	68aa      	ldr	r2, [r5, #8]
 8000cbc:	4608      	mov	r0, r1
 8000cbe:	f7ff fc2f 	bl	8000520 <fe25519_mul_asm>
 8000cc2:	466b      	mov	r3, sp
 8000cc4:	aa08      	add	r2, sp, #32
 8000cc6:	4621      	mov	r1, r4
 8000cc8:	4699      	mov	r9, r3
 8000cca:	f8d9 601c 	ldr.w	r6, [r9, #28]
 8000cce:	69d0      	ldr	r0, [r2, #28]
 8000cd0:	4684      	mov	ip, r0
 8000cd2:	fbe6 6c61 	umaal	r6, ip, r6, r1
 8000cd6:	fbe0 6c01 	umlal	r6, ip, r0, r1
 8000cda:	f04f 0013 	mov.w	r0, #19
 8000cde:	fb0c f000 	mul.w	r0, ip, r0
 8000ce2:	f8d9 c000 	ldr.w	ip, [r9]
 8000ce6:	f8d2 e000 	ldr.w	lr, [r2]
 8000cea:	fbe1 ce60 	umaal	ip, lr, r1, r0
 8000cee:	f8c3 c000 	str.w	ip, [r3]
 8000cf2:	f8d9 0004 	ldr.w	r0, [r9, #4]
 8000cf6:	f8d2 c004 	ldr.w	ip, [r2, #4]
 8000cfa:	fbe1 ce60 	umaal	ip, lr, r1, r0
 8000cfe:	f8c3 c004 	str.w	ip, [r3, #4]
 8000d02:	f8d9 0008 	ldr.w	r0, [r9, #8]
 8000d06:	f8d2 c008 	ldr.w	ip, [r2, #8]
 8000d0a:	fbe1 ce60 	umaal	ip, lr, r1, r0
 8000d0e:	f8c3 c008 	str.w	ip, [r3, #8]
 8000d12:	f8d9 000c 	ldr.w	r0, [r9, #12]
 8000d16:	f8d2 c00c 	ldr.w	ip, [r2, #12]
 8000d1a:	fbe1 ce60 	umaal	ip, lr, r1, r0
 8000d1e:	f8c3 c00c 	str.w	ip, [r3, #12]
 8000d22:	f8d9 0010 	ldr.w	r0, [r9, #16]
 8000d26:	f8d2 c010 	ldr.w	ip, [r2, #16]
 8000d2a:	fbe1 ce60 	umaal	ip, lr, r1, r0
 8000d2e:	f8c3 c010 	str.w	ip, [r3, #16]
 8000d32:	f8d9 0014 	ldr.w	r0, [r9, #20]
 8000d36:	f8d2 c014 	ldr.w	ip, [r2, #20]
 8000d3a:	fbe1 ce60 	umaal	ip, lr, r1, r0
 8000d3e:	f8c3 c014 	str.w	ip, [r3, #20]
 8000d42:	f8d9 0018 	ldr.w	r0, [r9, #24]
 8000d46:	f8d2 c018 	ldr.w	ip, [r2, #24]
 8000d4a:	fbe1 ce60 	umaal	ip, lr, r1, r0
 8000d4e:	f8c3 c018 	str.w	ip, [r3, #24]
 8000d52:	eb0e 0e56 	add.w	lr, lr, r6, lsr #1
 8000d56:	f8c3 e01c 	str.w	lr, [r3, #28]
 8000d5a:	4669      	mov	r1, sp
 8000d5c:	a808      	add	r0, sp, #32
 8000d5e:	f7ff fb11 	bl	8000384 <fe25519_square_asm>
 8000d62:	a928      	add	r1, sp, #160	; 0xa0
 8000d64:	aa08      	add	r2, sp, #32
 8000d66:	4608      	mov	r0, r1
 8000d68:	f7ff fbda 	bl	8000520 <fe25519_mul_asm>
 8000d6c:	68a9      	ldr	r1, [r5, #8]
 8000d6e:	a810      	add	r0, sp, #64	; 0x40
 8000d70:	f7ff fb08 	bl	8000384 <fe25519_square_asm>
 8000d74:	a910      	add	r1, sp, #64	; 0x40
 8000d76:	a818      	add	r0, sp, #96	; 0x60
 8000d78:	f7ff fb04 	bl	8000384 <fe25519_square_asm>
 8000d7c:	a918      	add	r1, sp, #96	; 0x60
 8000d7e:	68aa      	ldr	r2, [r5, #8]
 8000d80:	4608      	mov	r0, r1
 8000d82:	f7ff fbcd 	bl	8000520 <fe25519_mul_asm>
 8000d86:	6869      	ldr	r1, [r5, #4]
 8000d88:	a810      	add	r0, sp, #64	; 0x40
 8000d8a:	f7ff fafb 	bl	8000384 <fe25519_square_asm>
 8000d8e:	a918      	add	r1, sp, #96	; 0x60
 8000d90:	aa10      	add	r2, sp, #64	; 0x40
 8000d92:	4608      	mov	r0, r1
 8000d94:	f7ff fbc4 	bl	8000520 <fe25519_mul_asm>
 8000d98:	a918      	add	r1, sp, #96	; 0x60
 8000d9a:	686a      	ldr	r2, [r5, #4]
 8000d9c:	4608      	mov	r0, r1
 8000d9e:	f7ff fbbf 	bl	8000520 <fe25519_mul_asm>
 8000da2:	ab18      	add	r3, sp, #96	; 0x60
 8000da4:	4622      	mov	r2, r4
 8000da6:	469e      	mov	lr, r3
 8000da8:	4699      	mov	r9, r3
 8000daa:	f8de 001c 	ldr.w	r0, [lr, #28]
 8000dae:	f8d9 101c 	ldr.w	r1, [r9, #28]
 8000db2:	460e      	mov	r6, r1
 8000db4:	fbe0 0662 	umaal	r0, r6, r0, r2
 8000db8:	fbe1 0602 	umlal	r0, r6, r1, r2
 8000dbc:	f04f 0113 	mov.w	r1, #19
 8000dc0:	fb06 f101 	mul.w	r1, r6, r1
 8000dc4:	f8de 6000 	ldr.w	r6, [lr]
 8000dc8:	f8d9 c000 	ldr.w	ip, [r9]
 8000dcc:	fbe2 6c61 	umaal	r6, ip, r2, r1
 8000dd0:	601e      	str	r6, [r3, #0]
 8000dd2:	f8de 1004 	ldr.w	r1, [lr, #4]
 8000dd6:	f8d9 6004 	ldr.w	r6, [r9, #4]
 8000dda:	fbe2 6c61 	umaal	r6, ip, r2, r1
 8000dde:	605e      	str	r6, [r3, #4]
 8000de0:	f8de 1008 	ldr.w	r1, [lr, #8]
 8000de4:	f8d9 6008 	ldr.w	r6, [r9, #8]
 8000de8:	fbe2 6c61 	umaal	r6, ip, r2, r1
 8000dec:	609e      	str	r6, [r3, #8]
 8000dee:	f8de 100c 	ldr.w	r1, [lr, #12]
 8000df2:	f8d9 600c 	ldr.w	r6, [r9, #12]
 8000df6:	fbe2 6c61 	umaal	r6, ip, r2, r1
 8000dfa:	60de      	str	r6, [r3, #12]
 8000dfc:	f8de 1010 	ldr.w	r1, [lr, #16]
 8000e00:	f8d9 6010 	ldr.w	r6, [r9, #16]
 8000e04:	fbe2 6c61 	umaal	r6, ip, r2, r1
 8000e08:	611e      	str	r6, [r3, #16]
 8000e0a:	f8de 1014 	ldr.w	r1, [lr, #20]
 8000e0e:	f8d9 6014 	ldr.w	r6, [r9, #20]
 8000e12:	fbe2 6c61 	umaal	r6, ip, r2, r1
 8000e16:	615e      	str	r6, [r3, #20]
 8000e18:	f8de 1018 	ldr.w	r1, [lr, #24]
 8000e1c:	f8d9 6018 	ldr.w	r6, [r9, #24]
 8000e20:	fbe2 6c61 	umaal	r6, ip, r2, r1
 8000e24:	619e      	str	r6, [r3, #24]
 8000e26:	eb0c 0c50 	add.w	ip, ip, r0, lsr #1
 8000e2a:	f8c3 c01c 	str.w	ip, [r3, #28]
 8000e2e:	ab18      	add	r3, sp, #96	; 0x60
 8000e30:	4622      	mov	r2, r4
 8000e32:	469e      	mov	lr, r3
 8000e34:	4699      	mov	r9, r3
 8000e36:	f8de 001c 	ldr.w	r0, [lr, #28]
 8000e3a:	f8d9 101c 	ldr.w	r1, [r9, #28]
 8000e3e:	460e      	mov	r6, r1
 8000e40:	fbe0 0662 	umaal	r0, r6, r0, r2
 8000e44:	fbe1 0602 	umlal	r0, r6, r1, r2
 8000e48:	f04f 0113 	mov.w	r1, #19
 8000e4c:	fb06 f101 	mul.w	r1, r6, r1
 8000e50:	f8de 6000 	ldr.w	r6, [lr]
 8000e54:	f8d9 c000 	ldr.w	ip, [r9]
 8000e58:	fbe2 6c61 	umaal	r6, ip, r2, r1
 8000e5c:	601e      	str	r6, [r3, #0]
 8000e5e:	f8de 1004 	ldr.w	r1, [lr, #4]
 8000e62:	f8d9 6004 	ldr.w	r6, [r9, #4]
 8000e66:	fbe2 6c61 	umaal	r6, ip, r2, r1
 8000e6a:	605e      	str	r6, [r3, #4]
 8000e6c:	f8de 1008 	ldr.w	r1, [lr, #8]
 8000e70:	f8d9 6008 	ldr.w	r6, [r9, #8]
 8000e74:	fbe2 6c61 	umaal	r6, ip, r2, r1
 8000e78:	609e      	str	r6, [r3, #8]
 8000e7a:	f8de 100c 	ldr.w	r1, [lr, #12]
 8000e7e:	f8d9 600c 	ldr.w	r6, [r9, #12]
 8000e82:	fbe2 6c61 	umaal	r6, ip, r2, r1
 8000e86:	60de      	str	r6, [r3, #12]
 8000e88:	f8de 1010 	ldr.w	r1, [lr, #16]
 8000e8c:	f8d9 6010 	ldr.w	r6, [r9, #16]
 8000e90:	fbe2 6c61 	umaal	r6, ip, r2, r1
 8000e94:	611e      	str	r6, [r3, #16]
 8000e96:	f8de 1014 	ldr.w	r1, [lr, #20]
 8000e9a:	f8d9 6014 	ldr.w	r6, [r9, #20]
 8000e9e:	fbe2 6c61 	umaal	r6, ip, r2, r1
 8000ea2:	615e      	str	r6, [r3, #20]
 8000ea4:	f8de 1018 	ldr.w	r1, [lr, #24]
 8000ea8:	f8d9 6018 	ldr.w	r6, [r9, #24]
 8000eac:	fbe2 6c61 	umaal	r6, ip, r2, r1
 8000eb0:	619e      	str	r6, [r3, #24]
 8000eb2:	eb0c 0c50 	add.w	ip, ip, r0, lsr #1
 8000eb6:	f8c3 c01c 	str.w	ip, [r3, #28]
 8000eba:	ab18      	add	r3, sp, #96	; 0x60
 8000ebc:	4622      	mov	r2, r4
 8000ebe:	469e      	mov	lr, r3
 8000ec0:	4699      	mov	r9, r3
 8000ec2:	f8de 001c 	ldr.w	r0, [lr, #28]
 8000ec6:	f8d9 101c 	ldr.w	r1, [r9, #28]
 8000eca:	460e      	mov	r6, r1
 8000ecc:	fbe0 0662 	umaal	r0, r6, r0, r2
 8000ed0:	fbe1 0602 	umlal	r0, r6, r1, r2
 8000ed4:	f04f 0113 	mov.w	r1, #19
 8000ed8:	fb06 f101 	mul.w	r1, r6, r1
 8000edc:	f8de 6000 	ldr.w	r6, [lr]
 8000ee0:	f8d9 c000 	ldr.w	ip, [r9]
 8000ee4:	fbe2 6c61 	umaal	r6, ip, r2, r1
 8000ee8:	601e      	str	r6, [r3, #0]
 8000eea:	f8de 1004 	ldr.w	r1, [lr, #4]
 8000eee:	f8d9 6004 	ldr.w	r6, [r9, #4]
 8000ef2:	fbe2 6c61 	umaal	r6, ip, r2, r1
 8000ef6:	605e      	str	r6, [r3, #4]
 8000ef8:	f8de 1008 	ldr.w	r1, [lr, #8]
 8000efc:	f8d9 6008 	ldr.w	r6, [r9, #8]
 8000f00:	fbe2 6c61 	umaal	r6, ip, r2, r1
 8000f04:	609e      	str	r6, [r3, #8]
 8000f06:	f8de 100c 	ldr.w	r1, [lr, #12]
 8000f0a:	f8d9 600c 	ldr.w	r6, [r9, #12]
 8000f0e:	fbe2 6c61 	umaal	r6, ip, r2, r1
 8000f12:	60de      	str	r6, [r3, #12]
 8000f14:	f8de 1010 	ldr.w	r1, [lr, #16]
 8000f18:	f8d9 6010 	ldr.w	r6, [r9, #16]
 8000f1c:	fbe2 6c61 	umaal	r6, ip, r2, r1
 8000f20:	611e      	str	r6, [r3, #16]
 8000f22:	f8de 1014 	ldr.w	r1, [lr, #20]
 8000f26:	f8d9 6014 	ldr.w	r6, [r9, #20]
 8000f2a:	fbe2 6c61 	umaal	r6, ip, r2, r1
 8000f2e:	615e      	str	r6, [r3, #20]
 8000f30:	f8de 1018 	ldr.w	r1, [lr, #24]
 8000f34:	f8d9 6018 	ldr.w	r6, [r9, #24]
 8000f38:	fbe2 6c61 	umaal	r6, ip, r2, r1
 8000f3c:	619e      	str	r6, [r3, #24]
 8000f3e:	eb0c 0c50 	add.w	ip, ip, r0, lsr #1
 8000f42:	f8c3 c01c 	str.w	ip, [r3, #28]
 8000f46:	68aa      	ldr	r2, [r5, #8]
 8000f48:	a820      	add	r0, sp, #128	; 0x80
 8000f4a:	a918      	add	r1, sp, #96	; 0x60
 8000f4c:	f7ff fae8 	bl	8000520 <fe25519_mul_asm>
 8000f50:	a920      	add	r1, sp, #128	; 0x80
 8000f52:	4642      	mov	r2, r8
 8000f54:	4608      	mov	r0, r1
 8000f56:	f7ff fae3 	bl	8000520 <fe25519_mul_asm>
 8000f5a:	2600      	movs	r6, #0
 8000f5c:	ab28      	add	r3, sp, #160	; 0xa0
 8000f5e:	aa20      	add	r2, sp, #128	; 0x80
 8000f60:	4631      	mov	r1, r6
 8000f62:	4699      	mov	r9, r3
 8000f64:	f8d9 001c 	ldr.w	r0, [r9, #28]
 8000f68:	f8d2 c01c 	ldr.w	ip, [r2, #28]
 8000f6c:	ebb0 000c 	subs.w	r0, r0, ip
 8000f70:	eb7c 0c0c 	sbcs.w	ip, ip, ip
 8000f74:	eb10 0e00 	adds.w	lr, r0, r0
 8000f78:	eb5c 0c0c 	adcs.w	ip, ip, ip
 8000f7c:	f040 4000 	orr.w	r0, r0, #2147483648	; 0x80000000
 8000f80:	61d8      	str	r0, [r3, #28]
 8000f82:	f1ac 0001 	sub.w	r0, ip, #1
 8000f86:	f06f 0c12 	mvn.w	ip, #18
 8000f8a:	fb00 f00c 	mul.w	r0, r0, ip
 8000f8e:	f8d2 c000 	ldr.w	ip, [r2]
 8000f92:	f8d9 e000 	ldr.w	lr, [r9]
 8000f96:	fbe1 c061 	umaal	ip, r0, r1, r1
 8000f9a:	ebbe 0e0c 	subs.w	lr, lr, ip
 8000f9e:	f8c3 e000 	str.w	lr, [r3]
 8000fa2:	f8d2 c004 	ldr.w	ip, [r2, #4]
 8000fa6:	f8d9 e004 	ldr.w	lr, [r9, #4]
 8000faa:	fbe1 c061 	umaal	ip, r0, r1, r1
 8000fae:	eb7e 0e0c 	sbcs.w	lr, lr, ip
 8000fb2:	f8c3 e004 	str.w	lr, [r3, #4]
 8000fb6:	f8d2 c008 	ldr.w	ip, [r2, #8]
 8000fba:	f8d9 e008 	ldr.w	lr, [r9, #8]
 8000fbe:	fbe1 c061 	umaal	ip, r0, r1, r1
 8000fc2:	eb7e 0e0c 	sbcs.w	lr, lr, ip
 8000fc6:	f8c3 e008 	str.w	lr, [r3, #8]
 8000fca:	f8d2 c00c 	ldr.w	ip, [r2, #12]
 8000fce:	f8d9 e00c 	ldr.w	lr, [r9, #12]
 8000fd2:	fbe1 c061 	umaal	ip, r0, r1, r1
 8000fd6:	eb7e 0e0c 	sbcs.w	lr, lr, ip
 8000fda:	f8c3 e00c 	str.w	lr, [r3, #12]
 8000fde:	f8d2 c010 	ldr.w	ip, [r2, #16]
 8000fe2:	f8d9 e010 	ldr.w	lr, [r9, #16]
 8000fe6:	fbe1 c061 	umaal	ip, r0, r1, r1
 8000fea:	eb7e 0e0c 	sbcs.w	lr, lr, ip
 8000fee:	f8c3 e010 	str.w	lr, [r3, #16]
 8000ff2:	f8d2 c014 	ldr.w	ip, [r2, #20]
 8000ff6:	f8d9 e014 	ldr.w	lr, [r9, #20]
 8000ffa:	fbe1 c061 	umaal	ip, r0, r1, r1
 8000ffe:	eb7e 0e0c 	sbcs.w	lr, lr, ip
 8001002:	f8c3 e014 	str.w	lr, [r3, #20]
 8001006:	f8d2 c018 	ldr.w	ip, [r2, #24]
 800100a:	f8d9 e018 	ldr.w	lr, [r9, #24]
 800100e:	fbe1 c061 	umaal	ip, r0, r1, r1
 8001012:	eb7e 0e0c 	sbcs.w	lr, lr, ip
 8001016:	f8c3 e018 	str.w	lr, [r3, #24]
 800101a:	f8d3 e01c 	ldr.w	lr, [r3, #28]
 800101e:	eb7e 0e00 	sbcs.w	lr, lr, r0
 8001022:	f8c3 e01c 	str.w	lr, [r3, #28]
 8001026:	682a      	ldr	r2, [r5, #0]
 8001028:	a918      	add	r1, sp, #96	; 0x60
 800102a:	a820      	add	r0, sp, #128	; 0x80
 800102c:	f7ff fa78 	bl	8000520 <fe25519_mul_asm>
 8001030:	68a9      	ldr	r1, [r5, #8]
 8001032:	a830      	add	r0, sp, #192	; 0xc0
 8001034:	f7ff f9a6 	bl	8000384 <fe25519_square_asm>
 8001038:	a930      	add	r1, sp, #192	; 0xc0
 800103a:	68aa      	ldr	r2, [r5, #8]
 800103c:	4608      	mov	r0, r1
 800103e:	f7ff fa6f 	bl	8000520 <fe25519_mul_asm>
 8001042:	a910      	add	r1, sp, #64	; 0x40
 8001044:	aa30      	add	r2, sp, #192	; 0xc0
 8001046:	4608      	mov	r0, r1
 8001048:	f7ff fa6a 	bl	8000520 <fe25519_mul_asm>
 800104c:	ab10      	add	r3, sp, #64	; 0x40
 800104e:	4622      	mov	r2, r4
 8001050:	4699      	mov	r9, r3
 8001052:	469a      	mov	sl, r3
 8001054:	f8d9 001c 	ldr.w	r0, [r9, #28]
 8001058:	f8da 101c 	ldr.w	r1, [sl, #28]
 800105c:	468c      	mov	ip, r1
 800105e:	fbe0 0c62 	umaal	r0, ip, r0, r2
 8001062:	fbe1 0c02 	umlal	r0, ip, r1, r2
 8001066:	f04f 0113 	mov.w	r1, #19
 800106a:	fb0c f101 	mul.w	r1, ip, r1
 800106e:	f8d9 c000 	ldr.w	ip, [r9]
 8001072:	f8da e000 	ldr.w	lr, [sl]
 8001076:	fbe2 ce61 	umaal	ip, lr, r2, r1
 800107a:	f8c3 c000 	str.w	ip, [r3]
 800107e:	f8d9 1004 	ldr.w	r1, [r9, #4]
 8001082:	f8da c004 	ldr.w	ip, [sl, #4]
 8001086:	fbe2 ce61 	umaal	ip, lr, r2, r1
 800108a:	f8c3 c004 	str.w	ip, [r3, #4]
 800108e:	f8d9 1008 	ldr.w	r1, [r9, #8]
 8001092:	f8da c008 	ldr.w	ip, [sl, #8]
 8001096:	fbe2 ce61 	umaal	ip, lr, r2, r1
 800109a:	f8c3 c008 	str.w	ip, [r3, #8]
 800109e:	f8d9 100c 	ldr.w	r1, [r9, #12]
 80010a2:	f8da c00c 	ldr.w	ip, [sl, #12]
 80010a6:	fbe2 ce61 	umaal	ip, lr, r2, r1
 80010aa:	f8c3 c00c 	str.w	ip, [r3, #12]
 80010ae:	f8d9 1010 	ldr.w	r1, [r9, #16]
 80010b2:	f8da c010 	ldr.w	ip, [sl, #16]
 80010b6:	fbe2 ce61 	umaal	ip, lr, r2, r1
 80010ba:	f8c3 c010 	str.w	ip, [r3, #16]
 80010be:	f8d9 1014 	ldr.w	r1, [r9, #20]
 80010c2:	f8da c014 	ldr.w	ip, [sl, #20]
 80010c6:	fbe2 ce61 	umaal	ip, lr, r2, r1
 80010ca:	f8c3 c014 	str.w	ip, [r3, #20]
 80010ce:	f8d9 1018 	ldr.w	r1, [r9, #24]
 80010d2:	f8da c018 	ldr.w	ip, [sl, #24]
 80010d6:	fbe2 ce61 	umaal	ip, lr, r2, r1
 80010da:	f8c3 c018 	str.w	ip, [r3, #24]
 80010de:	eb0e 0e50 	add.w	lr, lr, r0, lsr #1
 80010e2:	f8c3 e01c 	str.w	lr, [r3, #28]
 80010e6:	ab10      	add	r3, sp, #64	; 0x40
 80010e8:	4622      	mov	r2, r4
 80010ea:	4699      	mov	r9, r3
 80010ec:	469a      	mov	sl, r3
 80010ee:	f8d9 001c 	ldr.w	r0, [r9, #28]
 80010f2:	f8da 101c 	ldr.w	r1, [sl, #28]
 80010f6:	468c      	mov	ip, r1
 80010f8:	fbe0 0c62 	umaal	r0, ip, r0, r2
 80010fc:	fbe1 0c02 	umlal	r0, ip, r1, r2
 8001100:	f04f 0113 	mov.w	r1, #19
 8001104:	fb0c f101 	mul.w	r1, ip, r1
 8001108:	f8d9 c000 	ldr.w	ip, [r9]
 800110c:	f8da e000 	ldr.w	lr, [sl]
 8001110:	fbe2 ce61 	umaal	ip, lr, r2, r1
 8001114:	f8c3 c000 	str.w	ip, [r3]
 8001118:	f8d9 1004 	ldr.w	r1, [r9, #4]
 800111c:	f8da c004 	ldr.w	ip, [sl, #4]
 8001120:	fbe2 ce61 	umaal	ip, lr, r2, r1
 8001124:	f8c3 c004 	str.w	ip, [r3, #4]
 8001128:	f8d9 1008 	ldr.w	r1, [r9, #8]
 800112c:	f8da c008 	ldr.w	ip, [sl, #8]
 8001130:	fbe2 ce61 	umaal	ip, lr, r2, r1
 8001134:	f8c3 c008 	str.w	ip, [r3, #8]
 8001138:	f8d9 100c 	ldr.w	r1, [r9, #12]
 800113c:	f8da c00c 	ldr.w	ip, [sl, #12]
 8001140:	fbe2 ce61 	umaal	ip, lr, r2, r1
 8001144:	f8c3 c00c 	str.w	ip, [r3, #12]
 8001148:	f8d9 1010 	ldr.w	r1, [r9, #16]
 800114c:	f8da c010 	ldr.w	ip, [sl, #16]
 8001150:	fbe2 ce61 	umaal	ip, lr, r2, r1
 8001154:	f8c3 c010 	str.w	ip, [r3, #16]
 8001158:	f8d9 1014 	ldr.w	r1, [r9, #20]
 800115c:	f8da c014 	ldr.w	ip, [sl, #20]
 8001160:	fbe2 ce61 	umaal	ip, lr, r2, r1
 8001164:	f8c3 c014 	str.w	ip, [r3, #20]
 8001168:	f8d9 1018 	ldr.w	r1, [r9, #24]
 800116c:	f8da c018 	ldr.w	ip, [sl, #24]
 8001170:	fbe2 ce61 	umaal	ip, lr, r2, r1
 8001174:	f8c3 c018 	str.w	ip, [r3, #24]
 8001178:	eb0e 0e50 	add.w	lr, lr, r0, lsr #1
 800117c:	f8c3 e01c 	str.w	lr, [r3, #28]
 8001180:	68aa      	ldr	r2, [r5, #8]
 8001182:	4641      	mov	r1, r8
 8001184:	a830      	add	r0, sp, #192	; 0xc0
 8001186:	f7ff f9cb 	bl	8000520 <fe25519_mul_asm>
 800118a:	ab30      	add	r3, sp, #192	; 0xc0
 800118c:	682a      	ldr	r2, [r5, #0]
 800118e:	4621      	mov	r1, r4
 8001190:	4699      	mov	r9, r3
 8001192:	f8d9 c01c 	ldr.w	ip, [r9, #28]
 8001196:	69d0      	ldr	r0, [r2, #28]
 8001198:	4686      	mov	lr, r0
 800119a:	fbec ce61 	umaal	ip, lr, ip, r1
 800119e:	fbe0 ce01 	umlal	ip, lr, r0, r1
 80011a2:	f04f 0013 	mov.w	r0, #19
 80011a6:	fb0e f000 	mul.w	r0, lr, r0
 80011aa:	f8d9 e000 	ldr.w	lr, [r9]
 80011ae:	f8d2 8000 	ldr.w	r8, [r2]
 80011b2:	fbe1 e860 	umaal	lr, r8, r1, r0
 80011b6:	f8c3 e000 	str.w	lr, [r3]
 80011ba:	f8d9 0004 	ldr.w	r0, [r9, #4]
 80011be:	f8d2 e004 	ldr.w	lr, [r2, #4]
 80011c2:	fbe1 e860 	umaal	lr, r8, r1, r0
 80011c6:	f8c3 e004 	str.w	lr, [r3, #4]
 80011ca:	f8d9 0008 	ldr.w	r0, [r9, #8]
 80011ce:	f8d2 e008 	ldr.w	lr, [r2, #8]
 80011d2:	fbe1 e860 	umaal	lr, r8, r1, r0
 80011d6:	f8c3 e008 	str.w	lr, [r3, #8]
 80011da:	f8d9 000c 	ldr.w	r0, [r9, #12]
 80011de:	f8d2 e00c 	ldr.w	lr, [r2, #12]
 80011e2:	fbe1 e860 	umaal	lr, r8, r1, r0
 80011e6:	f8c3 e00c 	str.w	lr, [r3, #12]
 80011ea:	f8d9 0010 	ldr.w	r0, [r9, #16]
 80011ee:	f8d2 e010 	ldr.w	lr, [r2, #16]
 80011f2:	fbe1 e860 	umaal	lr, r8, r1, r0
 80011f6:	f8c3 e010 	str.w	lr, [r3, #16]
 80011fa:	f8d9 0014 	ldr.w	r0, [r9, #20]
 80011fe:	f8d2 e014 	ldr.w	lr, [r2, #20]
 8001202:	fbe1 e860 	umaal	lr, r8, r1, r0
 8001206:	f8c3 e014 	str.w	lr, [r3, #20]
 800120a:	f8d9 0018 	ldr.w	r0, [r9, #24]
 800120e:	f8d2 e018 	ldr.w	lr, [r2, #24]
 8001212:	fbe1 e860 	umaal	lr, r8, r1, r0
 8001216:	f8c3 e018 	str.w	lr, [r3, #24]
 800121a:	eb08 085c 	add.w	r8, r8, ip, lsr #1
 800121e:	f8c3 801c 	str.w	r8, [r3, #28]
 8001222:	ab30      	add	r3, sp, #192	; 0xc0
 8001224:	682a      	ldr	r2, [r5, #0]
 8001226:	4621      	mov	r1, r4
 8001228:	4699      	mov	r9, r3
 800122a:	f8d9 c01c 	ldr.w	ip, [r9, #28]
 800122e:	69d0      	ldr	r0, [r2, #28]
 8001230:	4686      	mov	lr, r0
 8001232:	fbec ce61 	umaal	ip, lr, ip, r1
 8001236:	fbe0 ce01 	umlal	ip, lr, r0, r1
 800123a:	f04f 0013 	mov.w	r0, #19
 800123e:	fb0e f000 	mul.w	r0, lr, r0
 8001242:	f8d9 e000 	ldr.w	lr, [r9]
 8001246:	f8d2 8000 	ldr.w	r8, [r2]
 800124a:	fbe1 e860 	umaal	lr, r8, r1, r0
 800124e:	f8c3 e000 	str.w	lr, [r3]
 8001252:	f8d9 0004 	ldr.w	r0, [r9, #4]
 8001256:	f8d2 e004 	ldr.w	lr, [r2, #4]
 800125a:	fbe1 e860 	umaal	lr, r8, r1, r0
 800125e:	f8c3 e004 	str.w	lr, [r3, #4]
 8001262:	f8d9 0008 	ldr.w	r0, [r9, #8]
 8001266:	f8d2 e008 	ldr.w	lr, [r2, #8]
 800126a:	fbe1 e860 	umaal	lr, r8, r1, r0
 800126e:	f8c3 e008 	str.w	lr, [r3, #8]
 8001272:	f8d9 000c 	ldr.w	r0, [r9, #12]
 8001276:	f8d2 e00c 	ldr.w	lr, [r2, #12]
 800127a:	fbe1 e860 	umaal	lr, r8, r1, r0
 800127e:	f8c3 e00c 	str.w	lr, [r3, #12]
 8001282:	f8d9 0010 	ldr.w	r0, [r9, #16]
 8001286:	f8d2 e010 	ldr.w	lr, [r2, #16]
 800128a:	fbe1 e860 	umaal	lr, r8, r1, r0
 800128e:	f8c3 e010 	str.w	lr, [r3, #16]
 8001292:	f8d9 0014 	ldr.w	r0, [r9, #20]
 8001296:	f8d2 e014 	ldr.w	lr, [r2, #20]
 800129a:	fbe1 e860 	umaal	lr, r8, r1, r0
 800129e:	f8c3 e014 	str.w	lr, [r3, #20]
 80012a2:	f8d9 0018 	ldr.w	r0, [r9, #24]
 80012a6:	f8d2 e018 	ldr.w	lr, [r2, #24]
 80012aa:	fbe1 e860 	umaal	lr, r8, r1, r0
 80012ae:	f8c3 e018 	str.w	lr, [r3, #24]
 80012b2:	eb08 085c 	add.w	r8, r8, ip, lsr #1
 80012b6:	f8c3 801c 	str.w	r8, [r3, #28]
 80012ba:	ab30      	add	r3, sp, #192	; 0xc0
 80012bc:	682a      	ldr	r2, [r5, #0]
 80012be:	4621      	mov	r1, r4
 80012c0:	4699      	mov	r9, r3
 80012c2:	f8d9 c01c 	ldr.w	ip, [r9, #28]
 80012c6:	69d0      	ldr	r0, [r2, #28]
 80012c8:	4686      	mov	lr, r0
 80012ca:	fbec ce61 	umaal	ip, lr, ip, r1
 80012ce:	fbe0 ce01 	umlal	ip, lr, r0, r1
 80012d2:	f04f 0013 	mov.w	r0, #19
 80012d6:	fb0e f000 	mul.w	r0, lr, r0
 80012da:	f8d9 e000 	ldr.w	lr, [r9]
 80012de:	f8d2 8000 	ldr.w	r8, [r2]
 80012e2:	fbe1 e860 	umaal	lr, r8, r1, r0
 80012e6:	f8c3 e000 	str.w	lr, [r3]
 80012ea:	f8d9 0004 	ldr.w	r0, [r9, #4]
 80012ee:	f8d2 e004 	ldr.w	lr, [r2, #4]
 80012f2:	fbe1 e860 	umaal	lr, r8, r1, r0
 80012f6:	f8c3 e004 	str.w	lr, [r3, #4]
 80012fa:	f8d9 0008 	ldr.w	r0, [r9, #8]
 80012fe:	f8d2 e008 	ldr.w	lr, [r2, #8]
 8001302:	fbe1 e860 	umaal	lr, r8, r1, r0
 8001306:	f8c3 e008 	str.w	lr, [r3, #8]
 800130a:	f8d9 000c 	ldr.w	r0, [r9, #12]
 800130e:	f8d2 e00c 	ldr.w	lr, [r2, #12]
 8001312:	fbe1 e860 	umaal	lr, r8, r1, r0
 8001316:	f8c3 e00c 	str.w	lr, [r3, #12]
 800131a:	f8d9 0010 	ldr.w	r0, [r9, #16]
 800131e:	f8d2 e010 	ldr.w	lr, [r2, #16]
 8001322:	fbe1 e860 	umaal	lr, r8, r1, r0
 8001326:	f8c3 e010 	str.w	lr, [r3, #16]
 800132a:	f8d9 0014 	ldr.w	r0, [r9, #20]
 800132e:	f8d2 e014 	ldr.w	lr, [r2, #20]
 8001332:	fbe1 e860 	umaal	lr, r8, r1, r0
 8001336:	f8c3 e014 	str.w	lr, [r3, #20]
 800133a:	f8d9 0018 	ldr.w	r0, [r9, #24]
 800133e:	f8d2 e018 	ldr.w	lr, [r2, #24]
 8001342:	fbe1 e860 	umaal	lr, r8, r1, r0
 8001346:	f8c3 e018 	str.w	lr, [r3, #24]
 800134a:	eb08 085c 	add.w	r8, r8, ip, lsr #1
 800134e:	f8c3 801c 	str.w	r8, [r3, #28]
 8001352:	a930      	add	r1, sp, #192	; 0xc0
 8001354:	aa10      	add	r2, sp, #64	; 0x40
 8001356:	4608      	mov	r0, r1
 8001358:	f7ff f8e2 	bl	8000520 <fe25519_mul_asm>
 800135c:	ab20      	add	r3, sp, #128	; 0x80
 800135e:	469e      	mov	lr, r3
 8001360:	4698      	mov	r8, r3
 8001362:	f8de 101c 	ldr.w	r1, [lr, #28]
 8001366:	f8d8 201c 	ldr.w	r2, [r8, #28]
 800136a:	4610      	mov	r0, r2
 800136c:	fbe1 1064 	umaal	r1, r0, r1, r4
 8001370:	fbe2 1004 	umlal	r1, r0, r2, r4
 8001374:	f04f 0213 	mov.w	r2, #19
 8001378:	fb00 f202 	mul.w	r2, r0, r2
 800137c:	f8de 0000 	ldr.w	r0, [lr]
 8001380:	f8d8 c000 	ldr.w	ip, [r8]
 8001384:	fbe4 0c62 	umaal	r0, ip, r4, r2
 8001388:	6018      	str	r0, [r3, #0]
 800138a:	f8de 2004 	ldr.w	r2, [lr, #4]
 800138e:	f8d8 0004 	ldr.w	r0, [r8, #4]
 8001392:	fbe4 0c62 	umaal	r0, ip, r4, r2
 8001396:	6058      	str	r0, [r3, #4]
 8001398:	f8de 2008 	ldr.w	r2, [lr, #8]
 800139c:	f8d8 0008 	ldr.w	r0, [r8, #8]
 80013a0:	fbe4 0c62 	umaal	r0, ip, r4, r2
 80013a4:	6098      	str	r0, [r3, #8]
 80013a6:	f8de 200c 	ldr.w	r2, [lr, #12]
 80013aa:	f8d8 000c 	ldr.w	r0, [r8, #12]
 80013ae:	fbe4 0c62 	umaal	r0, ip, r4, r2
 80013b2:	60d8      	str	r0, [r3, #12]
 80013b4:	f8de 2010 	ldr.w	r2, [lr, #16]
 80013b8:	f8d8 0010 	ldr.w	r0, [r8, #16]
 80013bc:	fbe4 0c62 	umaal	r0, ip, r4, r2
 80013c0:	6118      	str	r0, [r3, #16]
 80013c2:	f8de 2014 	ldr.w	r2, [lr, #20]
 80013c6:	f8d8 0014 	ldr.w	r0, [r8, #20]
 80013ca:	fbe4 0c62 	umaal	r0, ip, r4, r2
 80013ce:	6158      	str	r0, [r3, #20]
 80013d0:	f8de 2018 	ldr.w	r2, [lr, #24]
 80013d4:	f8d8 0018 	ldr.w	r0, [r8, #24]
 80013d8:	fbe4 0c62 	umaal	r0, ip, r4, r2
 80013dc:	6198      	str	r0, [r3, #24]
 80013de:	eb0c 0c51 	add.w	ip, ip, r1, lsr #1
 80013e2:	f8c3 c01c 	str.w	ip, [r3, #28]
 80013e6:	683a      	ldr	r2, [r7, #0]
 80013e8:	ab28      	add	r3, sp, #160	; 0xa0
 80013ea:	a920      	add	r1, sp, #128	; 0x80
 80013ec:	4630      	mov	r0, r6
 80013ee:	69dc      	ldr	r4, [r3, #28]
 80013f0:	f8d1 c01c 	ldr.w	ip, [r1, #28]
 80013f4:	ebb4 040c 	subs.w	r4, r4, ip
 80013f8:	eb7c 0c0c 	sbcs.w	ip, ip, ip
 80013fc:	eb14 0e04 	adds.w	lr, r4, r4
 8001400:	eb5c 0c0c 	adcs.w	ip, ip, ip
 8001404:	f044 4400 	orr.w	r4, r4, #2147483648	; 0x80000000
 8001408:	61d4      	str	r4, [r2, #28]
 800140a:	f1ac 0401 	sub.w	r4, ip, #1
 800140e:	f06f 0c12 	mvn.w	ip, #18
 8001412:	fb04 f40c 	mul.w	r4, r4, ip
 8001416:	f8d1 c000 	ldr.w	ip, [r1]
 800141a:	f8d3 e000 	ldr.w	lr, [r3]
 800141e:	fbe0 c460 	umaal	ip, r4, r0, r0
 8001422:	ebbe 0e0c 	subs.w	lr, lr, ip
 8001426:	f8c2 e000 	str.w	lr, [r2]
 800142a:	f8d1 c004 	ldr.w	ip, [r1, #4]
 800142e:	f8d3 e004 	ldr.w	lr, [r3, #4]
 8001432:	fbe0 c460 	umaal	ip, r4, r0, r0
 8001436:	eb7e 0e0c 	sbcs.w	lr, lr, ip
 800143a:	f8c2 e004 	str.w	lr, [r2, #4]
 800143e:	f8d1 c008 	ldr.w	ip, [r1, #8]
 8001442:	f8d3 e008 	ldr.w	lr, [r3, #8]
 8001446:	fbe0 c460 	umaal	ip, r4, r0, r0
 800144a:	eb7e 0e0c 	sbcs.w	lr, lr, ip
 800144e:	f8c2 e008 	str.w	lr, [r2, #8]
 8001452:	f8d1 c00c 	ldr.w	ip, [r1, #12]
 8001456:	f8d3 e00c 	ldr.w	lr, [r3, #12]
 800145a:	fbe0 c460 	umaal	ip, r4, r0, r0
 800145e:	eb7e 0e0c 	sbcs.w	lr, lr, ip
 8001462:	f8c2 e00c 	str.w	lr, [r2, #12]
 8001466:	f8d1 c010 	ldr.w	ip, [r1, #16]
 800146a:	f8d3 e010 	ldr.w	lr, [r3, #16]
 800146e:	fbe0 c460 	umaal	ip, r4, r0, r0
 8001472:	eb7e 0e0c 	sbcs.w	lr, lr, ip
 8001476:	f8c2 e010 	str.w	lr, [r2, #16]
 800147a:	f8d1 c014 	ldr.w	ip, [r1, #20]
 800147e:	f8d3 e014 	ldr.w	lr, [r3, #20]
 8001482:	fbe0 c460 	umaal	ip, r4, r0, r0
 8001486:	eb7e 0e0c 	sbcs.w	lr, lr, ip
 800148a:	f8c2 e014 	str.w	lr, [r2, #20]
 800148e:	f8d1 c018 	ldr.w	ip, [r1, #24]
 8001492:	f8d3 e018 	ldr.w	lr, [r3, #24]
 8001496:	fbe0 c460 	umaal	ip, r4, r0, r0
 800149a:	eb7e 0e0c 	sbcs.w	lr, lr, ip
 800149e:	f8c2 e018 	str.w	lr, [r2, #24]
 80014a2:	f8d2 e01c 	ldr.w	lr, [r2, #28]
 80014a6:	eb7e 0e04 	sbcs.w	lr, lr, r4
 80014aa:	f8c2 e01c 	str.w	lr, [r2, #28]
 80014ae:	a930      	add	r1, sp, #192	; 0xc0
 80014b0:	466a      	mov	r2, sp
 80014b2:	4608      	mov	r0, r1
 80014b4:	f7ff f834 	bl	8000520 <fe25519_mul_asm>
 80014b8:	a908      	add	r1, sp, #32
 80014ba:	466a      	mov	r2, sp
 80014bc:	4608      	mov	r0, r1
 80014be:	f7ff f82f 	bl	8000520 <fe25519_mul_asm>
 80014c2:	aa30      	add	r2, sp, #192	; 0xc0
 80014c4:	ab08      	add	r3, sp, #32
 80014c6:	4631      	mov	r1, r6
 80014c8:	4696      	mov	lr, r2
 80014ca:	f8de 001c 	ldr.w	r0, [lr, #28]
 80014ce:	69dc      	ldr	r4, [r3, #28]
 80014d0:	1b00      	subs	r0, r0, r4
 80014d2:	41a4      	sbcs	r4, r4
 80014d4:	eb10 0c00 	adds.w	ip, r0, r0
 80014d8:	4164      	adcs	r4, r4
 80014da:	f040 4000 	orr.w	r0, r0, #2147483648	; 0x80000000
 80014de:	61d0      	str	r0, [r2, #28]
 80014e0:	f1a4 0001 	sub.w	r0, r4, #1
 80014e4:	f06f 0412 	mvn.w	r4, #18
 80014e8:	fb00 f004 	mul.w	r0, r0, r4
 80014ec:	681c      	ldr	r4, [r3, #0]
 80014ee:	f8de c000 	ldr.w	ip, [lr]
 80014f2:	fbe1 4061 	umaal	r4, r0, r1, r1
 80014f6:	ebbc 0c04 	subs.w	ip, ip, r4
 80014fa:	f8c2 c000 	str.w	ip, [r2]
 80014fe:	685c      	ldr	r4, [r3, #4]
 8001500:	f8de c004 	ldr.w	ip, [lr, #4]
 8001504:	fbe1 4061 	umaal	r4, r0, r1, r1
 8001508:	eb7c 0c04 	sbcs.w	ip, ip, r4
 800150c:	f8c2 c004 	str.w	ip, [r2, #4]
 8001510:	689c      	ldr	r4, [r3, #8]
 8001512:	f8de c008 	ldr.w	ip, [lr, #8]
 8001516:	fbe1 4061 	umaal	r4, r0, r1, r1
 800151a:	eb7c 0c04 	sbcs.w	ip, ip, r4
 800151e:	f8c2 c008 	str.w	ip, [r2, #8]
 8001522:	68dc      	ldr	r4, [r3, #12]
 8001524:	f8de c00c 	ldr.w	ip, [lr, #12]
 8001528:	fbe1 4061 	umaal	r4, r0, r1, r1
 800152c:	eb7c 0c04 	sbcs.w	ip, ip, r4
 8001530:	f8c2 c00c 	str.w	ip, [r2, #12]
 8001534:	691c      	ldr	r4, [r3, #16]
 8001536:	f8de c010 	ldr.w	ip, [lr, #16]
 800153a:	fbe1 4061 	umaal	r4, r0, r1, r1
 800153e:	eb7c 0c04 	sbcs.w	ip, ip, r4
 8001542:	f8c2 c010 	str.w	ip, [r2, #16]
 8001546:	695c      	ldr	r4, [r3, #20]
 8001548:	f8de c014 	ldr.w	ip, [lr, #20]
 800154c:	fbe1 4061 	umaal	r4, r0, r1, r1
 8001550:	eb7c 0c04 	sbcs.w	ip, ip, r4
 8001554:	f8c2 c014 	str.w	ip, [r2, #20]
 8001558:	699c      	ldr	r4, [r3, #24]
 800155a:	f8de c018 	ldr.w	ip, [lr, #24]
 800155e:	fbe1 4061 	umaal	r4, r0, r1, r1
 8001562:	eb7c 0c04 	sbcs.w	ip, ip, r4
 8001566:	f8c2 c018 	str.w	ip, [r2, #24]
 800156a:	f8d2 c01c 	ldr.w	ip, [r2, #28]
 800156e:	eb7c 0c00 	sbcs.w	ip, ip, r0
 8001572:	f8c2 c01c 	str.w	ip, [r2, #28]
 8001576:	686a      	ldr	r2, [r5, #4]
 8001578:	a918      	add	r1, sp, #96	; 0x60
 800157a:	a820      	add	r0, sp, #128	; 0x80
 800157c:	f7fe ffd0 	bl	8000520 <fe25519_mul_asm>
 8001580:	6879      	ldr	r1, [r7, #4]
 8001582:	ab30      	add	r3, sp, #192	; 0xc0
 8001584:	aa20      	add	r2, sp, #128	; 0x80
 8001586:	69d8      	ldr	r0, [r3, #28]
 8001588:	69d4      	ldr	r4, [r2, #28]
 800158a:	1b00      	subs	r0, r0, r4
 800158c:	41a4      	sbcs	r4, r4
 800158e:	eb10 0c00 	adds.w	ip, r0, r0
 8001592:	4164      	adcs	r4, r4
 8001594:	f040 4000 	orr.w	r0, r0, #2147483648	; 0x80000000
 8001598:	61c8      	str	r0, [r1, #28]
 800159a:	f1a4 0001 	sub.w	r0, r4, #1
 800159e:	f06f 0412 	mvn.w	r4, #18
 80015a2:	fb00 f004 	mul.w	r0, r0, r4
 80015a6:	6814      	ldr	r4, [r2, #0]
 80015a8:	f8d3 c000 	ldr.w	ip, [r3]
 80015ac:	fbe6 4066 	umaal	r4, r0, r6, r6
 80015b0:	ebbc 0c04 	subs.w	ip, ip, r4
 80015b4:	f8c1 c000 	str.w	ip, [r1]
 80015b8:	6854      	ldr	r4, [r2, #4]
 80015ba:	f8d3 c004 	ldr.w	ip, [r3, #4]
 80015be:	fbe6 4066 	umaal	r4, r0, r6, r6
 80015c2:	eb7c 0c04 	sbcs.w	ip, ip, r4
 80015c6:	f8c1 c004 	str.w	ip, [r1, #4]
 80015ca:	6894      	ldr	r4, [r2, #8]
 80015cc:	f8d3 c008 	ldr.w	ip, [r3, #8]
 80015d0:	fbe6 4066 	umaal	r4, r0, r6, r6
 80015d4:	eb7c 0c04 	sbcs.w	ip, ip, r4
 80015d8:	f8c1 c008 	str.w	ip, [r1, #8]
 80015dc:	68d4      	ldr	r4, [r2, #12]
 80015de:	f8d3 c00c 	ldr.w	ip, [r3, #12]
 80015e2:	fbe6 4066 	umaal	r4, r0, r6, r6
 80015e6:	eb7c 0c04 	sbcs.w	ip, ip, r4
 80015ea:	f8c1 c00c 	str.w	ip, [r1, #12]
 80015ee:	6914      	ldr	r4, [r2, #16]
 80015f0:	f8d3 c010 	ldr.w	ip, [r3, #16]
 80015f4:	fbe6 4066 	umaal	r4, r0, r6, r6
 80015f8:	eb7c 0c04 	sbcs.w	ip, ip, r4
 80015fc:	f8c1 c010 	str.w	ip, [r1, #16]
 8001600:	6954      	ldr	r4, [r2, #20]
 8001602:	f8d3 c014 	ldr.w	ip, [r3, #20]
 8001606:	fbe6 4066 	umaal	r4, r0, r6, r6
 800160a:	eb7c 0c04 	sbcs.w	ip, ip, r4
 800160e:	f8c1 c014 	str.w	ip, [r1, #20]
 8001612:	6994      	ldr	r4, [r2, #24]
 8001614:	f8d3 c018 	ldr.w	ip, [r3, #24]
 8001618:	fbe6 4066 	umaal	r4, r0, r6, r6
 800161c:	eb7c 0c04 	sbcs.w	ip, ip, r4
 8001620:	f8c1 c018 	str.w	ip, [r1, #24]
 8001624:	f8d1 c01c 	ldr.w	ip, [r1, #28]
 8001628:	eb7c 0c00 	sbcs.w	ip, ip, r0
 800162c:	f8c1 c01c 	str.w	ip, [r1, #28]
 8001630:	68aa      	ldr	r2, [r5, #8]
 8001632:	68b8      	ldr	r0, [r7, #8]
 8001634:	a918      	add	r1, sp, #96	; 0x60
 8001636:	f7fe ff73 	bl	8000520 <fe25519_mul_asm>
 800163a:	b038      	add	sp, #224	; 0xe0
 800163c:	e8bd 87f0 	ldmia.w	sp!, {r4, r5, r6, r7, r8, r9, sl, pc}
 8001640:	08003f98 	.word	0x08003f98

08001644 <curve25519_addPoint>:
 8001644:	e92d 41f0 	stmdb	sp!, {r4, r5, r6, r7, r8, lr}
 8001648:	4616      	mov	r6, r2
 800164a:	b0e0      	sub	sp, #384	; 0x180
 800164c:	460c      	mov	r4, r1
 800164e:	688a      	ldr	r2, [r1, #8]
 8001650:	6871      	ldr	r1, [r6, #4]
 8001652:	4605      	mov	r5, r0
 8001654:	4668      	mov	r0, sp
 8001656:	f7fe ff63 	bl	8000520 <fe25519_mul_asm>
 800165a:	68b2      	ldr	r2, [r6, #8]
 800165c:	6861      	ldr	r1, [r4, #4]
 800165e:	a808      	add	r0, sp, #32
 8001660:	f7fe ff5e 	bl	8000520 <fe25519_mul_asm>
 8001664:	68b2      	ldr	r2, [r6, #8]
 8001666:	68a1      	ldr	r1, [r4, #8]
 8001668:	a810      	add	r0, sp, #64	; 0x40
 800166a:	f7fe ff59 	bl	8000520 <fe25519_mul_asm>
 800166e:	68a2      	ldr	r2, [r4, #8]
 8001670:	6831      	ldr	r1, [r6, #0]
 8001672:	a818      	add	r0, sp, #96	; 0x60
 8001674:	f7fe ff54 	bl	8000520 <fe25519_mul_asm>
 8001678:	68b2      	ldr	r2, [r6, #8]
 800167a:	6821      	ldr	r1, [r4, #0]
 800167c:	a820      	add	r0, sp, #128	; 0x80
 800167e:	2400      	movs	r4, #0
 8001680:	f7fe ff4e 	bl	8000520 <fe25519_mul_asm>
 8001684:	466b      	mov	r3, sp
 8001686:	a908      	add	r1, sp, #32
 8001688:	aa28      	add	r2, sp, #160	; 0xa0
 800168a:	4620      	mov	r0, r4
 800168c:	69de      	ldr	r6, [r3, #28]
 800168e:	69cf      	ldr	r7, [r1, #28]
 8001690:	1bf6      	subs	r6, r6, r7
 8001692:	41bf      	sbcs	r7, r7
 8001694:	eb16 0c06 	adds.w	ip, r6, r6
 8001698:	417f      	adcs	r7, r7
 800169a:	f046 4600 	orr.w	r6, r6, #2147483648	; 0x80000000
 800169e:	61d6      	str	r6, [r2, #28]
 80016a0:	f1a7 0601 	sub.w	r6, r7, #1
 80016a4:	f06f 0712 	mvn.w	r7, #18
 80016a8:	fb06 f607 	mul.w	r6, r6, r7
 80016ac:	680f      	ldr	r7, [r1, #0]
 80016ae:	f8d3 c000 	ldr.w	ip, [r3]
 80016b2:	fbe0 7660 	umaal	r7, r6, r0, r0
 80016b6:	ebbc 0c07 	subs.w	ip, ip, r7
 80016ba:	f8c2 c000 	str.w	ip, [r2]
 80016be:	684f      	ldr	r7, [r1, #4]
 80016c0:	f8d3 c004 	ldr.w	ip, [r3, #4]
 80016c4:	fbe0 7660 	umaal	r7, r6, r0, r0
 80016c8:	eb7c 0c07 	sbcs.w	ip, ip, r7
 80016cc:	f8c2 c004 	str.w	ip, [r2, #4]
 80016d0:	688f      	ldr	r7, [r1, #8]
 80016d2:	f8d3 c008 	ldr.w	ip, [r3, #8]
 80016d6:	fbe0 7660 	umaal	r7, r6, r0, r0
 80016da:	eb7c 0c07 	sbcs.w	ip, ip, r7
 80016de:	f8c2 c008 	str.w	ip, [r2, #8]
 80016e2:	68cf      	ldr	r7, [r1, #12]
 80016e4:	f8d3 c00c 	ldr.w	ip, [r3, #12]
 80016e8:	fbe0 7660 	umaal	r7, r6, r0, r0
 80016ec:	eb7c 0c07 	sbcs.w	ip, ip, r7
 80016f0:	f8c2 c00c 	str.w	ip, [r2, #12]
 80016f4:	690f      	ldr	r7, [r1, #16]
 80016f6:	f8d3 c010 	ldr.w	ip, [r3, #16]
 80016fa:	fbe0 7660 	umaal	r7, r6, r0, r0
 80016fe:	eb7c 0c07 	sbcs.w	ip, ip, r7
 8001702:	f8c2 c010 	str.w	ip, [r2, #16]
 8001706:	694f      	ldr	r7, [r1, #20]
 8001708:	f8d3 c014 	ldr.w	ip, [r3, #20]
 800170c:	fbe0 7660 	umaal	r7, r6, r0, r0
 8001710:	eb7c 0c07 	sbcs.w	ip, ip, r7
 8001714:	f8c2 c014 	str.w	ip, [r2, #20]
 8001718:	698f      	ldr	r7, [r1, #24]
 800171a:	f8d3 c018 	ldr.w	ip, [r3, #24]
 800171e:	fbe0 7660 	umaal	r7, r6, r0, r0
 8001722:	eb7c 0c07 	sbcs.w	ip, ip, r7
 8001726:	f8c2 c018 	str.w	ip, [r2, #24]
 800172a:	f8d2 c01c 	ldr.w	ip, [r2, #28]
 800172e:	eb7c 0c06 	sbcs.w	ip, ip, r6
 8001732:	f8c2 c01c 	str.w	ip, [r2, #28]
 8001736:	ab30      	add	r3, sp, #192	; 0xc0
 8001738:	aa18      	add	r2, sp, #96	; 0x60
 800173a:	a920      	add	r1, sp, #128	; 0x80
 800173c:	4620      	mov	r0, r4
 800173e:	69d6      	ldr	r6, [r2, #28]
 8001740:	69cf      	ldr	r7, [r1, #28]
 8001742:	1bf6      	subs	r6, r6, r7
 8001744:	41bf      	sbcs	r7, r7
 8001746:	eb16 0c06 	adds.w	ip, r6, r6
 800174a:	417f      	adcs	r7, r7
 800174c:	f046 4600 	orr.w	r6, r6, #2147483648	; 0x80000000
 8001750:	61de      	str	r6, [r3, #28]
 8001752:	f1a7 0601 	sub.w	r6, r7, #1
 8001756:	f06f 0712 	mvn.w	r7, #18
 800175a:	fb06 f607 	mul.w	r6, r6, r7
 800175e:	680f      	ldr	r7, [r1, #0]
 8001760:	f8d2 c000 	ldr.w	ip, [r2]
 8001764:	fbe0 7660 	umaal	r7, r6, r0, r0
 8001768:	ebbc 0c07 	subs.w	ip, ip, r7
 800176c:	f8c3 c000 	str.w	ip, [r3]
 8001770:	684f      	ldr	r7, [r1, #4]
 8001772:	f8d2 c004 	ldr.w	ip, [r2, #4]
 8001776:	fbe0 7660 	umaal	r7, r6, r0, r0
 800177a:	eb7c 0c07 	sbcs.w	ip, ip, r7
 800177e:	f8c3 c004 	str.w	ip, [r3, #4]
 8001782:	688f      	ldr	r7, [r1, #8]
 8001784:	f8d2 c008 	ldr.w	ip, [r2, #8]
 8001788:	fbe0 7660 	umaal	r7, r6, r0, r0
 800178c:	eb7c 0c07 	sbcs.w	ip, ip, r7
 8001790:	f8c3 c008 	str.w	ip, [r3, #8]
 8001794:	68cf      	ldr	r7, [r1, #12]
 8001796:	f8d2 c00c 	ldr.w	ip, [r2, #12]
 800179a:	fbe0 7660 	umaal	r7, r6, r0, r0
 800179e:	eb7c 0c07 	sbcs.w	ip, ip, r7
 80017a2:	f8c3 c00c 	str.w	ip, [r3, #12]
 80017a6:	690f      	ldr	r7, [r1, #16]
 80017a8:	f8d2 c010 	ldr.w	ip, [r2, #16]
 80017ac:	fbe0 7660 	umaal	r7, r6, r0, r0
 80017b0:	eb7c 0c07 	sbcs.w	ip, ip, r7
 80017b4:	f8c3 c010 	str.w	ip, [r3, #16]
 80017b8:	694f      	ldr	r7, [r1, #20]
 80017ba:	f8d2 c014 	ldr.w	ip, [r2, #20]
 80017be:	fbe0 7660 	umaal	r7, r6, r0, r0
 80017c2:	eb7c 0c07 	sbcs.w	ip, ip, r7
 80017c6:	f8c3 c014 	str.w	ip, [r3, #20]
 80017ca:	698f      	ldr	r7, [r1, #24]
 80017cc:	f8d2 c018 	ldr.w	ip, [r2, #24]
 80017d0:	fbe0 7660 	umaal	r7, r6, r0, r0
 80017d4:	eb7c 0c07 	sbcs.w	ip, ip, r7
 80017d8:	f8c3 c018 	str.w	ip, [r3, #24]
 80017dc:	f8d3 c01c 	ldr.w	ip, [r3, #28]
 80017e0:	eb7c 0c06 	sbcs.w	ip, ip, r6
 80017e4:	f8c3 c01c 	str.w	ip, [r3, #28]
 80017e8:	2601      	movs	r6, #1
 80017ea:	ab38      	add	r3, sp, #224	; 0xe0
 80017ec:	aa20      	add	r2, sp, #128	; 0x80
 80017ee:	a918      	add	r1, sp, #96	; 0x60
 80017f0:	4630      	mov	r0, r6
 80017f2:	f8d2 c01c 	ldr.w	ip, [r2, #28]
 80017f6:	69cf      	ldr	r7, [r1, #28]
 80017f8:	46be      	mov	lr, r7
 80017fa:	fbec ce60 	umaal	ip, lr, ip, r0
 80017fe:	fbe7 ce00 	umlal	ip, lr, r7, r0
 8001802:	f04f 0713 	mov.w	r7, #19
 8001806:	fb0e f707 	mul.w	r7, lr, r7
 800180a:	f8d2 e000 	ldr.w	lr, [r2]
 800180e:	f8d1 8000 	ldr.w	r8, [r1]
 8001812:	fbe0 e867 	umaal	lr, r8, r0, r7
 8001816:	f8c3 e000 	str.w	lr, [r3]
 800181a:	6857      	ldr	r7, [r2, #4]
 800181c:	f8d1 e004 	ldr.w	lr, [r1, #4]
 8001820:	fbe0 e867 	umaal	lr, r8, r0, r7
 8001824:	f8c3 e004 	str.w	lr, [r3, #4]
 8001828:	6897      	ldr	r7, [r2, #8]
 800182a:	f8d1 e008 	ldr.w	lr, [r1, #8]
 800182e:	fbe0 e867 	umaal	lr, r8, r0, r7
 8001832:	f8c3 e008 	str.w	lr, [r3, #8]
 8001836:	68d7      	ldr	r7, [r2, #12]
 8001838:	f8d1 e00c 	ldr.w	lr, [r1, #12]
 800183c:	fbe0 e867 	umaal	lr, r8, r0, r7
 8001840:	f8c3 e00c 	str.w	lr, [r3, #12]
 8001844:	6917      	ldr	r7, [r2, #16]
 8001846:	f8d1 e010 	ldr.w	lr, [r1, #16]
 800184a:	fbe0 e867 	umaal	lr, r8, r0, r7
 800184e:	f8c3 e010 	str.w	lr, [r3, #16]
 8001852:	6957      	ldr	r7, [r2, #20]
 8001854:	f8d1 e014 	ldr.w	lr, [r1, #20]
 8001858:	fbe0 e867 	umaal	lr, r8, r0, r7
 800185c:	f8c3 e014 	str.w	lr, [r3, #20]
 8001860:	6997      	ldr	r7, [r2, #24]
 8001862:	f8d1 e018 	ldr.w	lr, [r1, #24]
 8001866:	fbe0 e867 	umaal	lr, r8, r0, r7
 800186a:	f8c3 e018 	str.w	lr, [r3, #24]
 800186e:	eb08 085c 	add.w	r8, r8, ip, lsr #1
 8001872:	f8c3 801c 	str.w	r8, [r3, #28]
 8001876:	a840      	add	r0, sp, #256	; 0x100
 8001878:	a928      	add	r1, sp, #160	; 0xa0
 800187a:	f7fe fd83 	bl	8000384 <fe25519_square_asm>
 800187e:	a940      	add	r1, sp, #256	; 0x100
 8001880:	aa30      	add	r2, sp, #192	; 0xc0
 8001882:	4608      	mov	r0, r1
 8001884:	f7fe fe4c 	bl	8000520 <fe25519_mul_asm>
 8001888:	a940      	add	r1, sp, #256	; 0x100
 800188a:	aa10      	add	r2, sp, #64	; 0x40
 800188c:	4608      	mov	r0, r1
 800188e:	f7fe fe47 	bl	8000520 <fe25519_mul_asm>
 8001892:	a848      	add	r0, sp, #288	; 0x120
 8001894:	aa10      	add	r2, sp, #64	; 0x40
 8001896:	49d2      	ldr	r1, [pc, #840]	; (8001be0 <curve25519_addPoint+0x59c>)
 8001898:	f7fe fe42 	bl	8000520 <fe25519_mul_asm>
 800189c:	ab38      	add	r3, sp, #224	; 0xe0
 800189e:	aa50      	add	r2, sp, #320	; 0x140
 80018a0:	a920      	add	r1, sp, #128	; 0x80
 80018a2:	4630      	mov	r0, r6
 80018a4:	f8d3 c01c 	ldr.w	ip, [r3, #28]
 80018a8:	69cf      	ldr	r7, [r1, #28]
 80018aa:	46be      	mov	lr, r7
 80018ac:	fbec ce60 	umaal	ip, lr, ip, r0
 80018b0:	fbe7 ce00 	umlal	ip, lr, r7, r0
 80018b4:	f04f 0713 	mov.w	r7, #19
 80018b8:	fb0e f707 	mul.w	r7, lr, r7
 80018bc:	f8d3 e000 	ldr.w	lr, [r3]
 80018c0:	f8d1 8000 	ldr.w	r8, [r1]
 80018c4:	fbe0 e867 	umaal	lr, r8, r0, r7
 80018c8:	f8c2 e000 	str.w	lr, [r2]
 80018cc:	685f      	ldr	r7, [r3, #4]
 80018ce:	f8d1 e004 	ldr.w	lr, [r1, #4]
 80018d2:	fbe0 e867 	umaal	lr, r8, r0, r7
 80018d6:	f8c2 e004 	str.w	lr, [r2, #4]
 80018da:	689f      	ldr	r7, [r3, #8]
 80018dc:	f8d1 e008 	ldr.w	lr, [r1, #8]
 80018e0:	fbe0 e867 	umaal	lr, r8, r0, r7
 80018e4:	f8c2 e008 	str.w	lr, [r2, #8]
 80018e8:	68df      	ldr	r7, [r3, #12]
 80018ea:	f8d1 e00c 	ldr.w	lr, [r1, #12]
 80018ee:	fbe0 e867 	umaal	lr, r8, r0, r7
 80018f2:	f8c2 e00c 	str.w	lr, [r2, #12]
 80018f6:	691f      	ldr	r7, [r3, #16]
 80018f8:	f8d1 e010 	ldr.w	lr, [r1, #16]
 80018fc:	fbe0 e867 	umaal	lr, r8, r0, r7
 8001900:	f8c2 e010 	str.w	lr, [r2, #16]
 8001904:	695f      	ldr	r7, [r3, #20]
 8001906:	f8d1 e014 	ldr.w	lr, [r1, #20]
 800190a:	fbe0 e867 	umaal	lr, r8, r0, r7
 800190e:	f8c2 e014 	str.w	lr, [r2, #20]
 8001912:	699f      	ldr	r7, [r3, #24]
 8001914:	f8d1 e018 	ldr.w	lr, [r1, #24]
 8001918:	fbe0 e867 	umaal	lr, r8, r0, r7
 800191c:	f8c2 e018 	str.w	lr, [r2, #24]
 8001920:	eb08 085c 	add.w	r8, r8, ip, lsr #1
 8001924:	f8c2 801c 	str.w	r8, [r2, #28]
 8001928:	ab50      	add	r3, sp, #320	; 0x140
 800192a:	aa48      	add	r2, sp, #288	; 0x120
 800192c:	4631      	mov	r1, r6
 800192e:	4698      	mov	r8, r3
 8001930:	f8d8 701c 	ldr.w	r7, [r8, #28]
 8001934:	69d0      	ldr	r0, [r2, #28]
 8001936:	4684      	mov	ip, r0
 8001938:	fbe7 7c61 	umaal	r7, ip, r7, r1
 800193c:	fbe0 7c01 	umlal	r7, ip, r0, r1
 8001940:	f04f 0013 	mov.w	r0, #19
 8001944:	fb0c f000 	mul.w	r0, ip, r0
 8001948:	f8d8 c000 	ldr.w	ip, [r8]
 800194c:	f8d2 e000 	ldr.w	lr, [r2]
 8001950:	fbe1 ce60 	umaal	ip, lr, r1, r0
 8001954:	f8c3 c000 	str.w	ip, [r3]
 8001958:	f8d8 0004 	ldr.w	r0, [r8, #4]
 800195c:	f8d2 c004 	ldr.w	ip, [r2, #4]
 8001960:	fbe1 ce60 	umaal	ip, lr, r1, r0
 8001964:	f8c3 c004 	str.w	ip, [r3, #4]
 8001968:	f8d8 0008 	ldr.w	r0, [r8, #8]
 800196c:	f8d2 c008 	ldr.w	ip, [r2, #8]
 8001970:	fbe1 ce60 	umaal	ip, lr, r1, r0
 8001974:	f8c3 c008 	str.w	ip, [r3, #8]
 8001978:	f8d8 000c 	ldr.w	r0, [r8, #12]
 800197c:	f8d2 c00c 	ldr.w	ip, [r2, #12]
 8001980:	fbe1 ce60 	umaal	ip, lr, r1, r0
 8001984:	f8c3 c00c 	str.w	ip, [r3, #12]
 8001988:	f8d8 0010 	ldr.w	r0, [r8, #16]
 800198c:	f8d2 c010 	ldr.w	ip, [r2, #16]
 8001990:	fbe1 ce60 	umaal	ip, lr, r1, r0
 8001994:	f8c3 c010 	str.w	ip, [r3, #16]
 8001998:	f8d8 0014 	ldr.w	r0, [r8, #20]
 800199c:	f8d2 c014 	ldr.w	ip, [r2, #20]
 80019a0:	fbe1 ce60 	umaal	ip, lr, r1, r0
 80019a4:	f8c3 c014 	str.w	ip, [r3, #20]
 80019a8:	f8d8 0018 	ldr.w	r0, [r8, #24]
 80019ac:	f8d2 c018 	ldr.w	ip, [r2, #24]
 80019b0:	fbe1 ce60 	umaal	ip, lr, r1, r0
 80019b4:	f8c3 c018 	str.w	ip, [r3, #24]
 80019b8:	eb0e 0e57 	add.w	lr, lr, r7, lsr #1
 80019bc:	f8c3 e01c 	str.w	lr, [r3, #28]
 80019c0:	a858      	add	r0, sp, #352	; 0x160
 80019c2:	a930      	add	r1, sp, #192	; 0xc0
 80019c4:	f7fe fcde 	bl	8000384 <fe25519_square_asm>
 80019c8:	aa30      	add	r2, sp, #192	; 0xc0
 80019ca:	a958      	add	r1, sp, #352	; 0x160
 80019cc:	4610      	mov	r0, r2
 80019ce:	f7fe fda7 	bl	8000520 <fe25519_mul_asm>
 80019d2:	a958      	add	r1, sp, #352	; 0x160
 80019d4:	aa28      	add	r2, sp, #160	; 0xa0
 80019d6:	4608      	mov	r0, r1
 80019d8:	f7fe fda2 	bl	8000520 <fe25519_mul_asm>
 80019dc:	a958      	add	r1, sp, #352	; 0x160
 80019de:	aa50      	add	r2, sp, #320	; 0x140
 80019e0:	4608      	mov	r0, r1
 80019e2:	f7fe fd9d 	bl	8000520 <fe25519_mul_asm>
 80019e6:	ab48      	add	r3, sp, #288	; 0x120
 80019e8:	aa18      	add	r2, sp, #96	; 0x60
 80019ea:	4631      	mov	r1, r6
 80019ec:	4698      	mov	r8, r3
 80019ee:	f8d8 701c 	ldr.w	r7, [r8, #28]
 80019f2:	69d0      	ldr	r0, [r2, #28]
 80019f4:	4684      	mov	ip, r0
 80019f6:	fbe7 7c61 	umaal	r7, ip, r7, r1
 80019fa:	fbe0 7c01 	umlal	r7, ip, r0, r1
 80019fe:	f04f 0013 	mov.w	r0, #19
 8001a02:	fb0c f000 	mul.w	r0, ip, r0
 8001a06:	f8d8 c000 	ldr.w	ip, [r8]
 8001a0a:	f8d2 e000 	ldr.w	lr, [r2]
 8001a0e:	fbe1 ce60 	umaal	ip, lr, r1, r0
 8001a12:	f8c3 c000 	str.w	ip, [r3]
 8001a16:	f8d8 0004 	ldr.w	r0, [r8, #4]
 8001a1a:	f8d2 c004 	ldr.w	ip, [r2, #4]
 8001a1e:	fbe1 ce60 	umaal	ip, lr, r1, r0
 8001a22:	f8c3 c004 	str.w	ip, [r3, #4]
 8001a26:	f8d8 0008 	ldr.w	r0, [r8, #8]
 8001a2a:	f8d2 c008 	ldr.w	ip, [r2, #8]
 8001a2e:	fbe1 ce60 	umaal	ip, lr, r1, r0
 8001a32:	f8c3 c008 	str.w	ip, [r3, #8]
 8001a36:	f8d8 000c 	ldr.w	r0, [r8, #12]
 8001a3a:	f8d2 c00c 	ldr.w	ip, [r2, #12]
 8001a3e:	fbe1 ce60 	umaal	ip, lr, r1, r0
 8001a42:	f8c3 c00c 	str.w	ip, [r3, #12]
 8001a46:	f8d8 0010 	ldr.w	r0, [r8, #16]
 8001a4a:	f8d2 c010 	ldr.w	ip, [r2, #16]
 8001a4e:	fbe1 ce60 	umaal	ip, lr, r1, r0
 8001a52:	f8c3 c010 	str.w	ip, [r3, #16]
 8001a56:	f8d8 0014 	ldr.w	r0, [r8, #20]
 8001a5a:	f8d2 c014 	ldr.w	ip, [r2, #20]
 8001a5e:	fbe1 ce60 	umaal	ip, lr, r1, r0
 8001a62:	f8c3 c014 	str.w	ip, [r3, #20]
 8001a66:	f8d8 0018 	ldr.w	r0, [r8, #24]
 8001a6a:	f8d2 c018 	ldr.w	ip, [r2, #24]
 8001a6e:	fbe1 ce60 	umaal	ip, lr, r1, r0
 8001a72:	f8c3 c018 	str.w	ip, [r3, #24]
 8001a76:	eb0e 0e57 	add.w	lr, lr, r7, lsr #1
 8001a7a:	f8c3 e01c 	str.w	lr, [r3, #28]
 8001a7e:	ab48      	add	r3, sp, #288	; 0x120
 8001a80:	aa20      	add	r2, sp, #128	; 0x80
 8001a82:	4631      	mov	r1, r6
 8001a84:	469e      	mov	lr, r3
 8001a86:	f8de 601c 	ldr.w	r6, [lr, #28]
 8001a8a:	69d0      	ldr	r0, [r2, #28]
 8001a8c:	4607      	mov	r7, r0
 8001a8e:	fbe6 6761 	umaal	r6, r7, r6, r1
 8001a92:	fbe0 6701 	umlal	r6, r7, r0, r1
 8001a96:	f04f 0013 	mov.w	r0, #19
 8001a9a:	fb07 f000 	mul.w	r0, r7, r0
 8001a9e:	f8de 7000 	ldr.w	r7, [lr]
 8001aa2:	f8d2 c000 	ldr.w	ip, [r2]
 8001aa6:	fbe1 7c60 	umaal	r7, ip, r1, r0
 8001aaa:	601f      	str	r7, [r3, #0]
 8001aac:	f8de 0004 	ldr.w	r0, [lr, #4]
 8001ab0:	6857      	ldr	r7, [r2, #4]
 8001ab2:	fbe1 7c60 	umaal	r7, ip, r1, r0
 8001ab6:	605f      	str	r7, [r3, #4]
 8001ab8:	f8de 0008 	ldr.w	r0, [lr, #8]
 8001abc:	6897      	ldr	r7, [r2, #8]
 8001abe:	fbe1 7c60 	umaal	r7, ip, r1, r0
 8001ac2:	609f      	str	r7, [r3, #8]
 8001ac4:	f8de 000c 	ldr.w	r0, [lr, #12]
 8001ac8:	68d7      	ldr	r7, [r2, #12]
 8001aca:	fbe1 7c60 	umaal	r7, ip, r1, r0
 8001ace:	60df      	str	r7, [r3, #12]
 8001ad0:	f8de 0010 	ldr.w	r0, [lr, #16]
 8001ad4:	6917      	ldr	r7, [r2, #16]
 8001ad6:	fbe1 7c60 	umaal	r7, ip, r1, r0
 8001ada:	611f      	str	r7, [r3, #16]
 8001adc:	f8de 0014 	ldr.w	r0, [lr, #20]
 8001ae0:	6957      	ldr	r7, [r2, #20]
 8001ae2:	fbe1 7c60 	umaal	r7, ip, r1, r0
 8001ae6:	615f      	str	r7, [r3, #20]
 8001ae8:	f8de 0018 	ldr.w	r0, [lr, #24]
 8001aec:	6997      	ldr	r7, [r2, #24]
 8001aee:	fbe1 7c60 	umaal	r7, ip, r1, r0
 8001af2:	619f      	str	r7, [r3, #24]
 8001af4:	eb0c 0c56 	add.w	ip, ip, r6, lsr #1
 8001af8:	f8c3 c01c 	str.w	ip, [r3, #28]
 8001afc:	a948      	add	r1, sp, #288	; 0x120
 8001afe:	aa30      	add	r2, sp, #192	; 0xc0
 8001b00:	4608      	mov	r0, r1
 8001b02:	f7fe fd0d 	bl	8000520 <fe25519_mul_asm>
 8001b06:	682a      	ldr	r2, [r5, #0]
 8001b08:	ab48      	add	r3, sp, #288	; 0x120
 8001b0a:	a940      	add	r1, sp, #256	; 0x100
 8001b0c:	4620      	mov	r0, r4
 8001b0e:	69ce      	ldr	r6, [r1, #28]
 8001b10:	69df      	ldr	r7, [r3, #28]
 8001b12:	1bf6      	subs	r6, r6, r7
 8001b14:	41bf      	sbcs	r7, r7
 8001b16:	eb16 0c06 	adds.w	ip, r6, r6
 8001b1a:	417f      	adcs	r7, r7
 8001b1c:	f046 4600 	orr.w	r6, r6, #2147483648	; 0x80000000
 8001b20:	61d6      	str	r6, [r2, #28]
 8001b22:	f1a7 0601 	sub.w	r6, r7, #1
 8001b26:	f06f 0712 	mvn.w	r7, #18
 8001b2a:	fb06 f607 	mul.w	r6, r6, r7
 8001b2e:	681f      	ldr	r7, [r3, #0]
 8001b30:	f8d1 c000 	ldr.w	ip, [r1]
 8001b34:	fbe0 7660 	umaal	r7, r6, r0, r0
 8001b38:	ebbc 0c07 	subs.w	ip, ip, r7
 8001b3c:	f8c2 c000 	str.w	ip, [r2]
 8001b40:	685f      	ldr	r7, [r3, #4]
 8001b42:	f8d1 c004 	ldr.w	ip, [r1, #4]
 8001b46:	fbe0 7660 	umaal	r7, r6, r0, r0
 8001b4a:	eb7c 0c07 	sbcs.w	ip, ip, r7
 8001b4e:	f8c2 c004 	str.w	ip, [r2, #4]
 8001b52:	689f      	ldr	r7, [r3, #8]
 8001b54:	f8d1 c008 	ldr.w	ip, [r1, #8]
 8001b58:	fbe0 7660 	umaal	r7, r6, r0, r0
 8001b5c:	eb7c 0c07 	sbcs.w	ip, ip, r7
 8001b60:	f8c2 c008 	str.w	ip, [r2, #8]
 8001b64:	68df      	ldr	r7, [r3, #12]
 8001b66:	f8d1 c00c 	ldr.w	ip, [r1, #12]
 8001b6a:	fbe0 7660 	umaal	r7, r6, r0, r0
 8001b6e:	eb7c 0c07 	sbcs.w	ip, ip, r7
 8001b72:	f8c2 c00c 	str.w	ip, [r2, #12]
 8001b76:	691f      	ldr	r7, [r3, #16]
 8001b78:	f8d1 c010 	ldr.w	ip, [r1, #16]
 8001b7c:	fbe0 7660 	umaal	r7, r6, r0, r0
 8001b80:	eb7c 0c07 	sbcs.w	ip, ip, r7
 8001b84:	f8c2 c010 	str.w	ip, [r2, #16]
 8001b88:	695f      	ldr	r7, [r3, #20]
 8001b8a:	f8d1 c014 	ldr.w	ip, [r1, #20]
 8001b8e:	fbe0 7660 	umaal	r7, r6, r0, r0
 8001b92:	eb7c 0c07 	sbcs.w	ip, ip, r7
 8001b96:	f8c2 c014 	str.w	ip, [r2, #20]
 8001b9a:	699f      	ldr	r7, [r3, #24]
 8001b9c:	f8d1 c018 	ldr.w	ip, [r1, #24]
 8001ba0:	fbe0 7660 	umaal	r7, r6, r0, r0
 8001ba4:	eb7c 0c07 	sbcs.w	ip, ip, r7
 8001ba8:	f8c2 c018 	str.w	ip, [r2, #24]
 8001bac:	f8d2 c01c 	ldr.w	ip, [r2, #28]
 8001bb0:	eb7c 0c06 	sbcs.w	ip, ip, r6
 8001bb4:	f8c2 c01c 	str.w	ip, [r2, #28]
 8001bb8:	a928      	add	r1, sp, #160	; 0xa0
 8001bba:	a840      	add	r0, sp, #256	; 0x100
 8001bbc:	f7fe fbe2 	bl	8000384 <fe25519_square_asm>
 8001bc0:	a940      	add	r1, sp, #256	; 0x100
 8001bc2:	aa28      	add	r2, sp, #160	; 0xa0
 8001bc4:	4608      	mov	r0, r1
 8001bc6:	f7fe fcab 	bl	8000520 <fe25519_mul_asm>
 8001bca:	a940      	add	r1, sp, #256	; 0x100
 8001bcc:	aa10      	add	r2, sp, #64	; 0x40
 8001bce:	4608      	mov	r0, r1
 8001bd0:	f7fe fca6 	bl	8000520 <fe25519_mul_asm>
 8001bd4:	686a      	ldr	r2, [r5, #4]
 8001bd6:	ab58      	add	r3, sp, #352	; 0x160
 8001bd8:	a940      	add	r1, sp, #256	; 0x100
 8001bda:	4620      	mov	r0, r4
 8001bdc:	e002      	b.n	8001be4 <curve25519_addPoint+0x5a0>
 8001bde:	bf00      	nop
 8001be0:	08003f98 	.word	0x08003f98
 8001be4:	69de      	ldr	r6, [r3, #28]
 8001be6:	69cf      	ldr	r7, [r1, #28]
 8001be8:	1bf6      	subs	r6, r6, r7
 8001bea:	41bf      	sbcs	r7, r7
 8001bec:	eb16 0c06 	adds.w	ip, r6, r6
 8001bf0:	417f      	adcs	r7, r7
 8001bf2:	f046 4600 	orr.w	r6, r6, #2147483648	; 0x80000000
 8001bf6:	61d6      	str	r6, [r2, #28]
 8001bf8:	f1a7 0601 	sub.w	r6, r7, #1
 8001bfc:	f06f 0712 	mvn.w	r7, #18
 8001c00:	fb06 f607 	mul.w	r6, r6, r7
 8001c04:	680f      	ldr	r7, [r1, #0]
 8001c06:	f8d3 c000 	ldr.w	ip, [r3]
 8001c0a:	fbe0 7660 	umaal	r7, r6, r0, r0
 8001c0e:	ebbc 0c07 	subs.w	ip, ip, r7
 8001c12:	f8c2 c000 	str.w	ip, [r2]
 8001c16:	684f      	ldr	r7, [r1, #4]
 8001c18:	f8d3 c004 	ldr.w	ip, [r3, #4]
 8001c1c:	fbe0 7660 	umaal	r7, r6, r0, r0
 8001c20:	eb7c 0c07 	sbcs.w	ip, ip, r7
 8001c24:	f8c2 c004 	str.w	ip, [r2, #4]
 8001c28:	688f      	ldr	r7, [r1, #8]
 8001c2a:	f8d3 c008 	ldr.w	ip, [r3, #8]
 8001c2e:	fbe0 7660 	umaal	r7, r6, r0, r0
 8001c32:	eb7c 0c07 	sbcs.w	ip, ip, r7
 8001c36:	f8c2 c008 	str.w	ip, [r2, #8]
 8001c3a:	68cf      	ldr	r7, [r1, #12]
 8001c3c:	f8d3 c00c 	ldr.w	ip, [r3, #12]
 8001c40:	fbe0 7660 	umaal	r7, r6, r0, r0
 8001c44:	eb7c 0c07 	sbcs.w	ip, ip, r7
 8001c48:	f8c2 c00c 	str.w	ip, [r2, #12]
 8001c4c:	690f      	ldr	r7, [r1, #16]
 8001c4e:	f8d3 c010 	ldr.w	ip, [r3, #16]
 8001c52:	fbe0 7660 	umaal	r7, r6, r0, r0
 8001c56:	eb7c 0c07 	sbcs.w	ip, ip, r7
 8001c5a:	f8c2 c010 	str.w	ip, [r2, #16]
 8001c5e:	694f      	ldr	r7, [r1, #20]
 8001c60:	f8d3 c014 	ldr.w	ip, [r3, #20]
 8001c64:	fbe0 7660 	umaal	r7, r6, r0, r0
 8001c68:	eb7c 0c07 	sbcs.w	ip, ip, r7
 8001c6c:	f8c2 c014 	str.w	ip, [r2, #20]
 8001c70:	698f      	ldr	r7, [r1, #24]
 8001c72:	f8d3 c018 	ldr.w	ip, [r3, #24]
 8001c76:	fbe0 7660 	umaal	r7, r6, r0, r0
 8001c7a:	eb7c 0c07 	sbcs.w	ip, ip, r7
 8001c7e:	f8c2 c018 	str.w	ip, [r2, #24]
 8001c82:	f8d2 c01c 	ldr.w	ip, [r2, #28]
 8001c86:	eb7c 0c06 	sbcs.w	ip, ip, r6
 8001c8a:	f8c2 c01c 	str.w	ip, [r2, #28]
 8001c8e:	aa30      	add	r2, sp, #192	; 0xc0
 8001c90:	a908      	add	r1, sp, #32
 8001c92:	a840      	add	r0, sp, #256	; 0x100
 8001c94:	f7fe fc44 	bl	8000520 <fe25519_mul_asm>
 8001c98:	686a      	ldr	r2, [r5, #4]
 8001c9a:	ab40      	add	r3, sp, #256	; 0x100
 8001c9c:	4617      	mov	r7, r2
 8001c9e:	69f9      	ldr	r1, [r7, #28]
 8001ca0:	69d8      	ldr	r0, [r3, #28]
 8001ca2:	1a09      	subs	r1, r1, r0
 8001ca4:	4180      	sbcs	r0, r0
 8001ca6:	184e      	adds	r6, r1, r1
 8001ca8:	4140      	adcs	r0, r0
 8001caa:	f041 4100 	orr.w	r1, r1, #2147483648	; 0x80000000
 8001cae:	61d1      	str	r1, [r2, #28]
 8001cb0:	f1a0 0101 	sub.w	r1, r0, #1
 8001cb4:	f06f 0012 	mvn.w	r0, #18
 8001cb8:	fb01 f100 	mul.w	r1, r1, r0
 8001cbc:	6818      	ldr	r0, [r3, #0]
 8001cbe:	683e      	ldr	r6, [r7, #0]
 8001cc0:	fbe4 0164 	umaal	r0, r1, r4, r4
 8001cc4:	1a36      	subs	r6, r6, r0
 8001cc6:	6016      	str	r6, [r2, #0]
 8001cc8:	6858      	ldr	r0, [r3, #4]
 8001cca:	687e      	ldr	r6, [r7, #4]
 8001ccc:	fbe4 0164 	umaal	r0, r1, r4, r4
 8001cd0:	4186      	sbcs	r6, r0
 8001cd2:	6056      	str	r6, [r2, #4]
 8001cd4:	6898      	ldr	r0, [r3, #8]
 8001cd6:	68be      	ldr	r6, [r7, #8]
 8001cd8:	fbe4 0164 	umaal	r0, r1, r4, r4
 8001cdc:	4186      	sbcs	r6, r0
 8001cde:	6096      	str	r6, [r2, #8]
 8001ce0:	68d8      	ldr	r0, [r3, #12]
 8001ce2:	68fe      	ldr	r6, [r7, #12]
 8001ce4:	fbe4 0164 	umaal	r0, r1, r4, r4
 8001ce8:	4186      	sbcs	r6, r0
 8001cea:	60d6      	str	r6, [r2, #12]
 8001cec:	6918      	ldr	r0, [r3, #16]
 8001cee:	693e      	ldr	r6, [r7, #16]
 8001cf0:	fbe4 0164 	umaal	r0, r1, r4, r4
 8001cf4:	4186      	sbcs	r6, r0
 8001cf6:	6116      	str	r6, [r2, #16]
 8001cf8:	6958      	ldr	r0, [r3, #20]
 8001cfa:	697e      	ldr	r6, [r7, #20]
 8001cfc:	fbe4 0164 	umaal	r0, r1, r4, r4
 8001d00:	4186      	sbcs	r6, r0
 8001d02:	6156      	str	r6, [r2, #20]
 8001d04:	6998      	ldr	r0, [r3, #24]
 8001d06:	69be      	ldr	r6, [r7, #24]
 8001d08:	fbe4 0164 	umaal	r0, r1, r4, r4
 8001d0c:	4186      	sbcs	r6, r0
 8001d0e:	6196      	str	r6, [r2, #24]
 8001d10:	69d6      	ldr	r6, [r2, #28]
 8001d12:	418e      	sbcs	r6, r1
 8001d14:	61d6      	str	r6, [r2, #28]
 8001d16:	68a8      	ldr	r0, [r5, #8]
 8001d18:	aa30      	add	r2, sp, #192	; 0xc0
 8001d1a:	a910      	add	r1, sp, #64	; 0x40
 8001d1c:	f7fe fc00 	bl	8000520 <fe25519_mul_asm>
 8001d20:	b060      	add	sp, #384	; 0x180
 8001d22:	e8bd 81f0 	ldmia.w	sp!, {r4, r5, r6, r7, r8, pc}
 8001d26:	bf00      	nop

08001d28 <curve25519_ladderstep>:
 8001d28:	e92d 4ff0 	stmdb	sp!, {r4, r5, r6, r7, r8, r9, sl, fp, lr}
 8001d2c:	f100 0520 	add.w	r5, r0, #32
 8001d30:	b091      	sub	sp, #68	; 0x44
 8001d32:	f100 0640 	add.w	r6, r0, #64	; 0x40
 8001d36:	4607      	mov	r7, r0
 8001d38:	f100 0860 	add.w	r8, r0, #96	; 0x60
 8001d3c:	f100 0980 	add.w	r9, r0, #128	; 0x80
 8001d40:	462a      	mov	r2, r5
 8001d42:	4631      	mov	r1, r6
 8001d44:	466b      	mov	r3, sp
 8001d46:	2001      	movs	r0, #1
 8001d48:	f8d2 c01c 	ldr.w	ip, [r2, #28]
 8001d4c:	69cc      	ldr	r4, [r1, #28]
 8001d4e:	46a6      	mov	lr, r4
 8001d50:	fbec ce60 	umaal	ip, lr, ip, r0
 8001d54:	fbe4 ce00 	umlal	ip, lr, r4, r0
 8001d58:	f04f 0413 	mov.w	r4, #19
 8001d5c:	fb0e f404 	mul.w	r4, lr, r4
 8001d60:	f8d2 e000 	ldr.w	lr, [r2]
 8001d64:	f8d1 a000 	ldr.w	sl, [r1]
 8001d68:	fbe0 ea64 	umaal	lr, sl, r0, r4
 8001d6c:	f8c3 e000 	str.w	lr, [r3]
 8001d70:	6854      	ldr	r4, [r2, #4]
 8001d72:	f8d1 e004 	ldr.w	lr, [r1, #4]
 8001d76:	fbe0 ea64 	umaal	lr, sl, r0, r4
 8001d7a:	f8c3 e004 	str.w	lr, [r3, #4]
 8001d7e:	6894      	ldr	r4, [r2, #8]
 8001d80:	f8d1 e008 	ldr.w	lr, [r1, #8]
 8001d84:	fbe0 ea64 	umaal	lr, sl, r0, r4
 8001d88:	f8c3 e008 	str.w	lr, [r3, #8]
 8001d8c:	68d4      	ldr	r4, [r2, #12]
 8001d8e:	f8d1 e00c 	ldr.w	lr, [r1, #12]
 8001d92:	fbe0 ea64 	umaal	lr, sl, r0, r4
 8001d96:	f8c3 e00c 	str.w	lr, [r3, #12]
 8001d9a:	6914      	ldr	r4, [r2, #16]
 8001d9c:	f8d1 e010 	ldr.w	lr, [r1, #16]
 8001da0:	fbe0 ea64 	umaal	lr, sl, r0, r4
 8001da4:	f8c3 e010 	str.w	lr, [r3, #16]
 8001da8:	6954      	ldr	r4, [r2, #20]
 8001daa:	f8d1 e014 	ldr.w	lr, [r1, #20]
 8001dae:	fbe0 ea64 	umaal	lr, sl, r0, r4
 8001db2:	f8c3 e014 	str.w	lr, [r3, #20]
 8001db6:	6994      	ldr	r4, [r2, #24]
 8001db8:	f8d1 e018 	ldr.w	lr, [r1, #24]
 8001dbc:	fbe0 ea64 	umaal	lr, sl, r0, r4
 8001dc0:	f8c3 e018 	str.w	lr, [r3, #24]
 8001dc4:	eb0a 0a5c 	add.w	sl, sl, ip, lsr #1
 8001dc8:	f8c3 a01c 	str.w	sl, [r3, #28]
 8001dcc:	2400      	movs	r4, #0
 8001dce:	ab08      	add	r3, sp, #32
 8001dd0:	462a      	mov	r2, r5
 8001dd2:	4631      	mov	r1, r6
 8001dd4:	4620      	mov	r0, r4
 8001dd6:	f8d2 c01c 	ldr.w	ip, [r2, #28]
 8001dda:	f8d1 e01c 	ldr.w	lr, [r1, #28]
 8001dde:	ebbc 0c0e 	subs.w	ip, ip, lr
 8001de2:	eb7e 0e0e 	sbcs.w	lr, lr, lr
 8001de6:	eb1c 0a0c 	adds.w	sl, ip, ip
 8001dea:	eb5e 0e0e 	adcs.w	lr, lr, lr
 8001dee:	f04c 4c00 	orr.w	ip, ip, #2147483648	; 0x80000000
 8001df2:	f8c3 c01c 	str.w	ip, [r3, #28]
 8001df6:	f1ae 0c01 	sub.w	ip, lr, #1
 8001dfa:	f06f 0e12 	mvn.w	lr, #18
 8001dfe:	fb0c fc0e 	mul.w	ip, ip, lr
 8001e02:	f8d1 e000 	ldr.w	lr, [r1]
 8001e06:	f8d2 a000 	ldr.w	sl, [r2]
 8001e0a:	fbe0 ec60 	umaal	lr, ip, r0, r0
 8001e0e:	ebba 0a0e 	subs.w	sl, sl, lr
 8001e12:	f8c3 a000 	str.w	sl, [r3]
 8001e16:	f8d1 e004 	ldr.w	lr, [r1, #4]
 8001e1a:	f8d2 a004 	ldr.w	sl, [r2, #4]
 8001e1e:	fbe0 ec60 	umaal	lr, ip, r0, r0
 8001e22:	eb7a 0a0e 	sbcs.w	sl, sl, lr
 8001e26:	f8c3 a004 	str.w	sl, [r3, #4]
 8001e2a:	f8d1 e008 	ldr.w	lr, [r1, #8]
 8001e2e:	f8d2 a008 	ldr.w	sl, [r2, #8]
 8001e32:	fbe0 ec60 	umaal	lr, ip, r0, r0
 8001e36:	eb7a 0a0e 	sbcs.w	sl, sl, lr
 8001e3a:	f8c3 a008 	str.w	sl, [r3, #8]
 8001e3e:	f8d1 e00c 	ldr.w	lr, [r1, #12]
 8001e42:	f8d2 a00c 	ldr.w	sl, [r2, #12]
 8001e46:	fbe0 ec60 	umaal	lr, ip, r0, r0
 8001e4a:	eb7a 0a0e 	sbcs.w	sl, sl, lr
 8001e4e:	f8c3 a00c 	str.w	sl, [r3, #12]
 8001e52:	f8d1 e010 	ldr.w	lr, [r1, #16]
 8001e56:	f8d2 a010 	ldr.w	sl, [r2, #16]
 8001e5a:	fbe0 ec60 	umaal	lr, ip, r0, r0
 8001e5e:	eb7a 0a0e 	sbcs.w	sl, sl, lr
 8001e62:	f8c3 a010 	str.w	sl, [r3, #16]
 8001e66:	f8d1 e014 	ldr.w	lr, [r1, #20]
 8001e6a:	f8d2 a014 	ldr.w	sl, [r2, #20]
 8001e6e:	fbe0 ec60 	umaal	lr, ip, r0, r0
 8001e72:	eb7a 0a0e 	sbcs.w	sl, sl, lr
 8001e76:	f8c3 a014 	str.w	sl, [r3, #20]
 8001e7a:	f8d1 e018 	ldr.w	lr, [r1, #24]
 8001e7e:	f8d2 a018 	ldr.w	sl, [r2, #24]
 8001e82:	fbe0 ec60 	umaal	lr, ip, r0, r0
 8001e86:	eb7a 0a0e 	sbcs.w	sl, sl, lr
 8001e8a:	f8c3 a018 	str.w	sl, [r3, #24]
 8001e8e:	f8d3 a01c 	ldr.w	sl, [r3, #28]
 8001e92:	eb7a 0a0c 	sbcs.w	sl, sl, ip
 8001e96:	f8c3 a01c 	str.w	sl, [r3, #28]
 8001e9a:	2001      	movs	r0, #1
 8001e9c:	462b      	mov	r3, r5
 8001e9e:	4642      	mov	r2, r8
 8001ea0:	4649      	mov	r1, r9
 8001ea2:	f8d2 e01c 	ldr.w	lr, [r2, #28]
 8001ea6:	f8d1 c01c 	ldr.w	ip, [r1, #28]
 8001eaa:	46e2      	mov	sl, ip
 8001eac:	fbee ea60 	umaal	lr, sl, lr, r0
 8001eb0:	fbec ea00 	umlal	lr, sl, ip, r0
 8001eb4:	f04f 0c13 	mov.w	ip, #19
 8001eb8:	fb0a fc0c 	mul.w	ip, sl, ip
 8001ebc:	f8d2 a000 	ldr.w	sl, [r2]
 8001ec0:	f8d1 b000 	ldr.w	fp, [r1]
 8001ec4:	fbe0 ab6c 	umaal	sl, fp, r0, ip
 8001ec8:	f8c3 a000 	str.w	sl, [r3]
 8001ecc:	f8d2 c004 	ldr.w	ip, [r2, #4]
 8001ed0:	f8d1 a004 	ldr.w	sl, [r1, #4]
 8001ed4:	fbe0 ab6c 	umaal	sl, fp, r0, ip
 8001ed8:	f8c3 a004 	str.w	sl, [r3, #4]
 8001edc:	f8d2 c008 	ldr.w	ip, [r2, #8]
 8001ee0:	f8d1 a008 	ldr.w	sl, [r1, #8]
 8001ee4:	fbe0 ab6c 	umaal	sl, fp, r0, ip
 8001ee8:	f8c3 a008 	str.w	sl, [r3, #8]
 8001eec:	f8d2 c00c 	ldr.w	ip, [r2, #12]
 8001ef0:	f8d1 a00c 	ldr.w	sl, [r1, #12]
 8001ef4:	fbe0 ab6c 	umaal	sl, fp, r0, ip
 8001ef8:	f8c3 a00c 	str.w	sl, [r3, #12]
 8001efc:	f8d2 c010 	ldr.w	ip, [r2, #16]
 8001f00:	f8d1 a010 	ldr.w	sl, [r1, #16]
 8001f04:	fbe0 ab6c 	umaal	sl, fp, r0, ip
 8001f08:	f8c3 a010 	str.w	sl, [r3, #16]
 8001f0c:	f8d2 c014 	ldr.w	ip, [r2, #20]
 8001f10:	f8d1 a014 	ldr.w	sl, [r1, #20]
 8001f14:	fbe0 ab6c 	umaal	sl, fp, r0, ip
 8001f18:	f8c3 a014 	str.w	sl, [r3, #20]
 8001f1c:	f8d2 c018 	ldr.w	ip, [r2, #24]
 8001f20:	f8d1 a018 	ldr.w	sl, [r1, #24]
 8001f24:	fbe0 ab6c 	umaal	sl, fp, r0, ip
 8001f28:	f8c3 a018 	str.w	sl, [r3, #24]
 8001f2c:	eb0b 0b5e 	add.w	fp, fp, lr, lsr #1
 8001f30:	f8c3 b01c 	str.w	fp, [r3, #28]
 8001f34:	4633      	mov	r3, r6
 8001f36:	4642      	mov	r2, r8
 8001f38:	4649      	mov	r1, r9
 8001f3a:	4620      	mov	r0, r4
 8001f3c:	f8d2 c01c 	ldr.w	ip, [r2, #28]
 8001f40:	f8d1 e01c 	ldr.w	lr, [r1, #28]
 8001f44:	ebbc 0c0e 	subs.w	ip, ip, lr
 8001f48:	eb7e 0e0e 	sbcs.w	lr, lr, lr
 8001f4c:	eb1c 0a0c 	adds.w	sl, ip, ip
 8001f50:	eb5e 0e0e 	adcs.w	lr, lr, lr
 8001f54:	f04c 4c00 	orr.w	ip, ip, #2147483648	; 0x80000000
 8001f58:	f8c3 c01c 	str.w	ip, [r3, #28]
 8001f5c:	f1ae 0c01 	sub.w	ip, lr, #1
 8001f60:	f06f 0e12 	mvn.w	lr, #18
 8001f64:	fb0c fc0e 	mul.w	ip, ip, lr
 8001f68:	f8d1 e000 	ldr.w	lr, [r1]
 8001f6c:	f8d2 a000 	ldr.w	sl, [r2]
 8001f70:	fbe0 ec60 	umaal	lr, ip, r0, r0
 8001f74:	ebba 0a0e 	subs.w	sl, sl, lr
 8001f78:	f8c3 a000 	str.w	sl, [r3]
 8001f7c:	f8d1 e004 	ldr.w	lr, [r1, #4]
 8001f80:	f8d2 a004 	ldr.w	sl, [r2, #4]
 8001f84:	fbe0 ec60 	umaal	lr, ip, r0, r0
 8001f88:	eb7a 0a0e 	sbcs.w	sl, sl, lr
 8001f8c:	f8c3 a004 	str.w	sl, [r3, #4]
 8001f90:	f8d1 e008 	ldr.w	lr, [r1, #8]
 8001f94:	f8d2 a008 	ldr.w	sl, [r2, #8]
 8001f98:	fbe0 ec60 	umaal	lr, ip, r0, r0
 8001f9c:	eb7a 0a0e 	sbcs.w	sl, sl, lr
 8001fa0:	f8c3 a008 	str.w	sl, [r3, #8]
 8001fa4:	f8d1 e00c 	ldr.w	lr, [r1, #12]
 8001fa8:	f8d2 a00c 	ldr.w	sl, [r2, #12]
 8001fac:	fbe0 ec60 	umaal	lr, ip, r0, r0
 8001fb0:	eb7a 0a0e 	sbcs.w	sl, sl, lr
 8001fb4:	f8c3 a00c 	str.w	sl, [r3, #12]
 8001fb8:	f8d1 e010 	ldr.w	lr, [r1, #16]
 8001fbc:	f8d2 a010 	ldr.w	sl, [r2, #16]
 8001fc0:	fbe0 ec60 	umaal	lr, ip, r0, r0
 8001fc4:	eb7a 0a0e 	sbcs.w	sl, sl, lr
 8001fc8:	f8c3 a010 	str.w	sl, [r3, #16]
 8001fcc:	f8d1 e014 	ldr.w	lr, [r1, #20]
 8001fd0:	f8d2 a014 	ldr.w	sl, [r2, #20]
 8001fd4:	fbe0 ec60 	umaal	lr, ip, r0, r0
 8001fd8:	eb7a 0a0e 	sbcs.w	sl, sl, lr
 8001fdc:	f8c3 a014 	str.w	sl, [r3, #20]
 8001fe0:	f8d1 e018 	ldr.w	lr, [r1, #24]
 8001fe4:	f8d2 a018 	ldr.w	sl, [r2, #24]
 8001fe8:	fbe0 ec60 	umaal	lr, ip, r0, r0
 8001fec:	eb7a 0a0e 	sbcs.w	sl, sl, lr
 8001ff0:	f8c3 a018 	str.w	sl, [r3, #24]
 8001ff4:	f8d3 a01c 	ldr.w	sl, [r3, #28]
 8001ff8:	eb7a 0a0c 	sbcs.w	sl, sl, ip
 8001ffc:	f8c3 a01c 	str.w	sl, [r3, #28]
 8002000:	466a      	mov	r2, sp
 8002002:	4631      	mov	r1, r6
 8002004:	4640      	mov	r0, r8
 8002006:	f7fe fa8b 	bl	8000520 <fe25519_mul_asm>
 800200a:	aa08      	add	r2, sp, #32
 800200c:	4629      	mov	r1, r5
 800200e:	4630      	mov	r0, r6
 8002010:	f7fe fa86 	bl	8000520 <fe25519_mul_asm>
 8002014:	2301      	movs	r3, #1
 8002016:	462a      	mov	r2, r5
 8002018:	4631      	mov	r1, r6
 800201a:	4640      	mov	r0, r8
 800201c:	f8d1 e01c 	ldr.w	lr, [r1, #28]
 8002020:	f8d0 c01c 	ldr.w	ip, [r0, #28]
 8002024:	46e2      	mov	sl, ip
 8002026:	fbee ea63 	umaal	lr, sl, lr, r3
 800202a:	fbec ea03 	umlal	lr, sl, ip, r3
 800202e:	f04f 0c13 	mov.w	ip, #19
 8002032:	fb0a fc0c 	mul.w	ip, sl, ip
 8002036:	f8d1 a000 	ldr.w	sl, [r1]
 800203a:	f8d0 b000 	ldr.w	fp, [r0]
 800203e:	fbe3 ab6c 	umaal	sl, fp, r3, ip
 8002042:	f8c2 a000 	str.w	sl, [r2]
 8002046:	f8d1 c004 	ldr.w	ip, [r1, #4]
 800204a:	f8d0 a004 	ldr.w	sl, [r0, #4]
 800204e:	fbe3 ab6c 	umaal	sl, fp, r3, ip
 8002052:	f8c2 a004 	str.w	sl, [r2, #4]
 8002056:	f8d1 c008 	ldr.w	ip, [r1, #8]
 800205a:	f8d0 a008 	ldr.w	sl, [r0, #8]
 800205e:	fbe3 ab6c 	umaal	sl, fp, r3, ip
 8002062:	f8c2 a008 	str.w	sl, [r2, #8]
 8002066:	f8d1 c00c 	ldr.w	ip, [r1, #12]
 800206a:	f8d0 a00c 	ldr.w	sl, [r0, #12]
 800206e:	fbe3 ab6c 	umaal	sl, fp, r3, ip
 8002072:	f8c2 a00c 	str.w	sl, [r2, #12]
 8002076:	f8d1 c010 	ldr.w	ip, [r1, #16]
 800207a:	f8d0 a010 	ldr.w	sl, [r0, #16]
 800207e:	fbe3 ab6c 	umaal	sl, fp, r3, ip
 8002082:	f8c2 a010 	str.w	sl, [r2, #16]
 8002086:	f8d1 c014 	ldr.w	ip, [r1, #20]
 800208a:	f8d0 a014 	ldr.w	sl, [r0, #20]
 800208e:	fbe3 ab6c 	umaal	sl, fp, r3, ip
 8002092:	f8c2 a014 	str.w	sl, [r2, #20]
 8002096:	f8d1 c018 	ldr.w	ip, [r1, #24]
 800209a:	f8d0 a018 	ldr.w	sl, [r0, #24]
 800209e:	fbe3 ab6c 	umaal	sl, fp, r3, ip
 80020a2:	f8c2 a018 	str.w	sl, [r2, #24]
 80020a6:	eb0b 0b5e 	add.w	fp, fp, lr, lsr #1
 80020aa:	f8c2 b01c 	str.w	fp, [r2, #28]
 80020ae:	464b      	mov	r3, r9
 80020b0:	4642      	mov	r2, r8
 80020b2:	4631      	mov	r1, r6
 80020b4:	4620      	mov	r0, r4
 80020b6:	f8d2 c01c 	ldr.w	ip, [r2, #28]
 80020ba:	f8d1 e01c 	ldr.w	lr, [r1, #28]
 80020be:	ebbc 0c0e 	subs.w	ip, ip, lr
 80020c2:	eb7e 0e0e 	sbcs.w	lr, lr, lr
 80020c6:	eb1c 0a0c 	adds.w	sl, ip, ip
 80020ca:	eb5e 0e0e 	adcs.w	lr, lr, lr
 80020ce:	f04c 4c00 	orr.w	ip, ip, #2147483648	; 0x80000000
 80020d2:	f8c3 c01c 	str.w	ip, [r3, #28]
 80020d6:	f1ae 0c01 	sub.w	ip, lr, #1
 80020da:	f06f 0e12 	mvn.w	lr, #18
 80020de:	fb0c fc0e 	mul.w	ip, ip, lr
 80020e2:	f8d1 e000 	ldr.w	lr, [r1]
 80020e6:	f8d2 a000 	ldr.w	sl, [r2]
 80020ea:	fbe0 ec60 	umaal	lr, ip, r0, r0
 80020ee:	ebba 0a0e 	subs.w	sl, sl, lr
 80020f2:	f8c3 a000 	str.w	sl, [r3]
 80020f6:	f8d1 e004 	ldr.w	lr, [r1, #4]
 80020fa:	f8d2 a004 	ldr.w	sl, [r2, #4]
 80020fe:	fbe0 ec60 	umaal	lr, ip, r0, r0
 8002102:	eb7a 0a0e 	sbcs.w	sl, sl, lr
 8002106:	f8c3 a004 	str.w	sl, [r3, #4]
 800210a:	f8d1 e008 	ldr.w	lr, [r1, #8]
 800210e:	f8d2 a008 	ldr.w	sl, [r2, #8]
 8002112:	fbe0 ec60 	umaal	lr, ip, r0, r0
 8002116:	eb7a 0a0e 	sbcs.w	sl, sl, lr
 800211a:	f8c3 a008 	str.w	sl, [r3, #8]
 800211e:	f8d1 e00c 	ldr.w	lr, [r1, #12]
 8002122:	f8d2 a00c 	ldr.w	sl, [r2, #12]
 8002126:	fbe0 ec60 	umaal	lr, ip, r0, r0
 800212a:	eb7a 0a0e 	sbcs.w	sl, sl, lr
 800212e:	f8c3 a00c 	str.w	sl, [r3, #12]
 8002132:	f8d1 e010 	ldr.w	lr, [r1, #16]
 8002136:	f8d2 a010 	ldr.w	sl, [r2, #16]
 800213a:	fbe0 ec60 	umaal	lr, ip, r0, r0
 800213e:	eb7a 0a0e 	sbcs.w	sl, sl, lr
 8002142:	f8c3 a010 	str.w	sl, [r3, #16]
 8002146:	f8d1 e014 	ldr.w	lr, [r1, #20]
 800214a:	f8d2 a014 	ldr.w	sl, [r2, #20]
 800214e:	fbe0 ec60 	umaal	lr, ip, r0, r0
 8002152:	eb7a 0a0e 	sbcs.w	sl, sl, lr
 8002156:	f8c3 a014 	str.w	sl, [r3, #20]
 800215a:	f8d1 e018 	ldr.w	lr, [r1, #24]
 800215e:	f8d2 a018 	ldr.w	sl, [r2, #24]
 8002162:	fbe0 ec60 	umaal	lr, ip, r0, r0
 8002166:	eb7a 0a0e 	sbcs.w	sl, sl, lr
 800216a:	f8c3 a018 	str.w	sl, [r3, #24]
 800216e:	f8d3 a01c 	ldr.w	sl, [r3, #28]
 8002172:	eb7a 0a0c 	sbcs.w	sl, sl, ip
 8002176:	f8c3 a01c 	str.w	sl, [r3, #28]
 800217a:	4640      	mov	r0, r8
 800217c:	4629      	mov	r1, r5
 800217e:	f7fe f901 	bl	8000384 <fe25519_square_asm>
 8002182:	4649      	mov	r1, r9
 8002184:	4628      	mov	r0, r5
 8002186:	f7fe f8fd 	bl	8000384 <fe25519_square_asm>
 800218a:	463a      	mov	r2, r7
 800218c:	4629      	mov	r1, r5
 800218e:	4648      	mov	r0, r9
 8002190:	f7fe f9c6 	bl	8000520 <fe25519_mul_asm>
 8002194:	4669      	mov	r1, sp
 8002196:	4628      	mov	r0, r5
 8002198:	f7fe f8f4 	bl	8000384 <fe25519_square_asm>
 800219c:	a908      	add	r1, sp, #32
 800219e:	4668      	mov	r0, sp
 80021a0:	f7fe f8f0 	bl	8000384 <fe25519_square_asm>
 80021a4:	4633      	mov	r3, r6
 80021a6:	462a      	mov	r2, r5
 80021a8:	4669      	mov	r1, sp
 80021aa:	69d0      	ldr	r0, [r2, #28]
 80021ac:	69cf      	ldr	r7, [r1, #28]
 80021ae:	1bc0      	subs	r0, r0, r7
 80021b0:	41bf      	sbcs	r7, r7
 80021b2:	eb10 0c00 	adds.w	ip, r0, r0
 80021b6:	417f      	adcs	r7, r7
 80021b8:	f040 4000 	orr.w	r0, r0, #2147483648	; 0x80000000
 80021bc:	61d8      	str	r0, [r3, #28]
 80021be:	f1a7 0001 	sub.w	r0, r7, #1
 80021c2:	f06f 0712 	mvn.w	r7, #18
 80021c6:	fb00 f007 	mul.w	r0, r0, r7
 80021ca:	680f      	ldr	r7, [r1, #0]
 80021cc:	f8d2 c000 	ldr.w	ip, [r2]
 80021d0:	fbe4 7064 	umaal	r7, r0, r4, r4
 80021d4:	ebbc 0c07 	subs.w	ip, ip, r7
 80021d8:	f8c3 c000 	str.w	ip, [r3]
 80021dc:	684f      	ldr	r7, [r1, #4]
 80021de:	f8d2 c004 	ldr.w	ip, [r2, #4]
 80021e2:	fbe4 7064 	umaal	r7, r0, r4, r4
 80021e6:	eb7c 0c07 	sbcs.w	ip, ip, r7
 80021ea:	f8c3 c004 	str.w	ip, [r3, #4]
 80021ee:	688f      	ldr	r7, [r1, #8]
 80021f0:	f8d2 c008 	ldr.w	ip, [r2, #8]
 80021f4:	fbe4 7064 	umaal	r7, r0, r4, r4
 80021f8:	eb7c 0c07 	sbcs.w	ip, ip, r7
 80021fc:	f8c3 c008 	str.w	ip, [r3, #8]
 8002200:	68cf      	ldr	r7, [r1, #12]
 8002202:	f8d2 c00c 	ldr.w	ip, [r2, #12]
 8002206:	fbe4 7064 	umaal	r7, r0, r4, r4
 800220a:	eb7c 0c07 	sbcs.w	ip, ip, r7
 800220e:	f8c3 c00c 	str.w	ip, [r3, #12]
 8002212:	690f      	ldr	r7, [r1, #16]
 8002214:	f8d2 c010 	ldr.w	ip, [r2, #16]
 8002218:	fbe4 7064 	umaal	r7, r0, r4, r4
 800221c:	eb7c 0c07 	sbcs.w	ip, ip, r7
 8002220:	f8c3 c010 	str.w	ip, [r3, #16]
 8002224:	694f      	ldr	r7, [r1, #20]
 8002226:	f8d2 c014 	ldr.w	ip, [r2, #20]
 800222a:	fbe4 7064 	umaal	r7, r0, r4, r4
 800222e:	eb7c 0c07 	sbcs.w	ip, ip, r7
 8002232:	f8c3 c014 	str.w	ip, [r3, #20]
 8002236:	698f      	ldr	r7, [r1, #24]
 8002238:	f8d2 c018 	ldr.w	ip, [r2, #24]
 800223c:	fbe4 7064 	umaal	r7, r0, r4, r4
 8002240:	eb7c 0c07 	sbcs.w	ip, ip, r7
 8002244:	f8c3 c018 	str.w	ip, [r3, #24]
 8002248:	f8d3 c01c 	ldr.w	ip, [r3, #28]
 800224c:	eb7c 0c00 	sbcs.w	ip, ip, r0
 8002250:	f8c3 c01c 	str.w	ip, [r3, #28]
 8002254:	462a      	mov	r2, r5
 8002256:	4628      	mov	r0, r5
 8002258:	4669      	mov	r1, sp
 800225a:	f7fe f961 	bl	8000520 <fe25519_mul_asm>
 800225e:	4a22      	ldr	r2, [pc, #136]	; (80022e8 <curve25519_ladderstep+0x5c0>)
 8002260:	466b      	mov	r3, sp
 8002262:	a908      	add	r1, sp, #32
 8002264:	4630      	mov	r0, r6
 8002266:	69dc      	ldr	r4, [r3, #28]
 8002268:	69c7      	ldr	r7, [r0, #28]
 800226a:	eb02 0c02 	add.w	ip, r2, r2
 800226e:	4625      	mov	r5, r4
 8002270:	fbec 4567 	umaal	r4, r5, ip, r7
 8002274:	f04f 0713 	mov.w	r7, #19
 8002278:	fb07 f505 	mul.w	r5, r7, r5
 800227c:	f8d0 c000 	ldr.w	ip, [r0]
 8002280:	681f      	ldr	r7, [r3, #0]
 8002282:	fbe2 756c 	umaal	r7, r5, r2, ip
 8002286:	600f      	str	r7, [r1, #0]
 8002288:	f8d0 c004 	ldr.w	ip, [r0, #4]
 800228c:	685f      	ldr	r7, [r3, #4]
 800228e:	fbe2 756c 	umaal	r7, r5, r2, ip
 8002292:	604f      	str	r7, [r1, #4]
 8002294:	f8d0 c008 	ldr.w	ip, [r0, #8]
 8002298:	689f      	ldr	r7, [r3, #8]
 800229a:	fbe2 756c 	umaal	r7, r5, r2, ip
 800229e:	608f      	str	r7, [r1, #8]
 80022a0:	f8d0 c00c 	ldr.w	ip, [r0, #12]
 80022a4:	68df      	ldr	r7, [r3, #12]
 80022a6:	fbe2 756c 	umaal	r7, r5, r2, ip
 80022aa:	60cf      	str	r7, [r1, #12]
 80022ac:	f8d0 c010 	ldr.w	ip, [r0, #16]
 80022b0:	691f      	ldr	r7, [r3, #16]
 80022b2:	fbe2 756c 	umaal	r7, r5, r2, ip
 80022b6:	610f      	str	r7, [r1, #16]
 80022b8:	f8d0 c014 	ldr.w	ip, [r0, #20]
 80022bc:	695f      	ldr	r7, [r3, #20]
 80022be:	fbe2 756c 	umaal	r7, r5, r2, ip
 80022c2:	614f      	str	r7, [r1, #20]
 80022c4:	f8d0 c018 	ldr.w	ip, [r0, #24]
 80022c8:	699f      	ldr	r7, [r3, #24]
 80022ca:	fbe2 756c 	umaal	r7, r5, r2, ip
 80022ce:	618f      	str	r7, [r1, #24]
 80022d0:	eb05 0454 	add.w	r4, r5, r4, lsr #1
 80022d4:	61cc      	str	r4, [r1, #28]
 80022d6:	a908      	add	r1, sp, #32
 80022d8:	4632      	mov	r2, r6
 80022da:	4630      	mov	r0, r6
 80022dc:	f7fe f920 	bl	8000520 <fe25519_mul_asm>
 80022e0:	b011      	add	sp, #68	; 0x44
 80022e2:	e8bd 8ff0 	ldmia.w	sp!, {r4, r5, r6, r7, r8, r9, sl, fp, pc}
 80022e6:	bf00      	nop
 80022e8:	0001db42 	.word	0x0001db42

080022ec <computeY_curve25519_projective>:
 80022ec:	e92d 4ff0 	stmdb	sp!, {r4, r5, r6, r7, r8, r9, sl, fp, lr}
 80022f0:	b0a3      	sub	sp, #140	; 0x8c
 80022f2:	e9dd 892c 	ldrd	r8, r9, [sp, #176]	; 0xb0
 80022f6:	460f      	mov	r7, r1
 80022f8:	4605      	mov	r5, r0
 80022fa:	4649      	mov	r1, r9
 80022fc:	a802      	add	r0, sp, #8
 80022fe:	2401      	movs	r4, #1
 8002300:	469a      	mov	sl, r3
 8002302:	4616      	mov	r6, r2
 8002304:	9501      	str	r5, [sp, #4]
 8002306:	f7fe f90b 	bl	8000520 <fe25519_mul_asm>
 800230a:	4639      	mov	r1, r7
 800230c:	ab02      	add	r3, sp, #8
 800230e:	aa0a      	add	r2, sp, #40	; 0x28
 8002310:	4620      	mov	r0, r4
 8002312:	f8d1 c01c 	ldr.w	ip, [r1, #28]
 8002316:	69dd      	ldr	r5, [r3, #28]
 8002318:	46ae      	mov	lr, r5
 800231a:	fbec ce60 	umaal	ip, lr, ip, r0
 800231e:	fbe5 ce00 	umlal	ip, lr, r5, r0
 8002322:	f04f 0513 	mov.w	r5, #19
 8002326:	fb0e f505 	mul.w	r5, lr, r5
 800232a:	f8d1 e000 	ldr.w	lr, [r1]
 800232e:	f8d3 b000 	ldr.w	fp, [r3]
 8002332:	fbe0 eb65 	umaal	lr, fp, r0, r5
 8002336:	f8c2 e000 	str.w	lr, [r2]
 800233a:	684d      	ldr	r5, [r1, #4]
 800233c:	f8d3 e004 	ldr.w	lr, [r3, #4]
 8002340:	fbe0 eb65 	umaal	lr, fp, r0, r5
 8002344:	f8c2 e004 	str.w	lr, [r2, #4]
 8002348:	688d      	ldr	r5, [r1, #8]
 800234a:	f8d3 e008 	ldr.w	lr, [r3, #8]
 800234e:	fbe0 eb65 	umaal	lr, fp, r0, r5
 8002352:	f8c2 e008 	str.w	lr, [r2, #8]
 8002356:	68cd      	ldr	r5, [r1, #12]
 8002358:	f8d3 e00c 	ldr.w	lr, [r3, #12]
 800235c:	fbe0 eb65 	umaal	lr, fp, r0, r5
 8002360:	f8c2 e00c 	str.w	lr, [r2, #12]
 8002364:	690d      	ldr	r5, [r1, #16]
 8002366:	f8d3 e010 	ldr.w	lr, [r3, #16]
 800236a:	fbe0 eb65 	umaal	lr, fp, r0, r5
 800236e:	f8c2 e010 	str.w	lr, [r2, #16]
 8002372:	694d      	ldr	r5, [r1, #20]
 8002374:	f8d3 e014 	ldr.w	lr, [r3, #20]
 8002378:	fbe0 eb65 	umaal	lr, fp, r0, r5
 800237c:	f8c2 e014 	str.w	lr, [r2, #20]
 8002380:	698d      	ldr	r5, [r1, #24]
 8002382:	f8d3 e018 	ldr.w	lr, [r3, #24]
 8002386:	fbe0 eb65 	umaal	lr, fp, r0, r5
 800238a:	f8c2 e018 	str.w	lr, [r2, #24]
 800238e:	eb0b 0b5c 	add.w	fp, fp, ip, lsr #1
 8002392:	f8c2 b01c 	str.w	fp, [r2, #28]
 8002396:	2500      	movs	r5, #0
 8002398:	ab12      	add	r3, sp, #72	; 0x48
 800239a:	463a      	mov	r2, r7
 800239c:	a902      	add	r1, sp, #8
 800239e:	4628      	mov	r0, r5
 80023a0:	f8d2 c01c 	ldr.w	ip, [r2, #28]
 80023a4:	f8d1 e01c 	ldr.w	lr, [r1, #28]
 80023a8:	ebbc 0c0e 	subs.w	ip, ip, lr
 80023ac:	eb7e 0e0e 	sbcs.w	lr, lr, lr
 80023b0:	eb1c 0b0c 	adds.w	fp, ip, ip
 80023b4:	eb5e 0e0e 	adcs.w	lr, lr, lr
 80023b8:	f04c 4c00 	orr.w	ip, ip, #2147483648	; 0x80000000
 80023bc:	f8c3 c01c 	str.w	ip, [r3, #28]
 80023c0:	f1ae 0c01 	sub.w	ip, lr, #1
 80023c4:	f06f 0e12 	mvn.w	lr, #18
 80023c8:	fb0c fc0e 	mul.w	ip, ip, lr
 80023cc:	f8d1 e000 	ldr.w	lr, [r1]
 80023d0:	f8d2 b000 	ldr.w	fp, [r2]
 80023d4:	fbe0 ec60 	umaal	lr, ip, r0, r0
 80023d8:	ebbb 0b0e 	subs.w	fp, fp, lr
 80023dc:	f8c3 b000 	str.w	fp, [r3]
 80023e0:	f8d1 e004 	ldr.w	lr, [r1, #4]
 80023e4:	f8d2 b004 	ldr.w	fp, [r2, #4]
 80023e8:	fbe0 ec60 	umaal	lr, ip, r0, r0
 80023ec:	eb7b 0b0e 	sbcs.w	fp, fp, lr
 80023f0:	f8c3 b004 	str.w	fp, [r3, #4]
 80023f4:	f8d1 e008 	ldr.w	lr, [r1, #8]
 80023f8:	f8d2 b008 	ldr.w	fp, [r2, #8]
 80023fc:	fbe0 ec60 	umaal	lr, ip, r0, r0
 8002400:	eb7b 0b0e 	sbcs.w	fp, fp, lr
 8002404:	f8c3 b008 	str.w	fp, [r3, #8]
 8002408:	f8d1 e00c 	ldr.w	lr, [r1, #12]
 800240c:	f8d2 b00c 	ldr.w	fp, [r2, #12]
 8002410:	fbe0 ec60 	umaal	lr, ip, r0, r0
 8002414:	eb7b 0b0e 	sbcs.w	fp, fp, lr
 8002418:	f8c3 b00c 	str.w	fp, [r3, #12]
 800241c:	f8d1 e010 	ldr.w	lr, [r1, #16]
 8002420:	f8d2 b010 	ldr.w	fp, [r2, #16]
 8002424:	fbe0 ec60 	umaal	lr, ip, r0, r0
 8002428:	eb7b 0b0e 	sbcs.w	fp, fp, lr
 800242c:	f8c3 b010 	str.w	fp, [r3, #16]
 8002430:	f8d1 e014 	ldr.w	lr, [r1, #20]
 8002434:	f8d2 b014 	ldr.w	fp, [r2, #20]
 8002438:	fbe0 ec60 	umaal	lr, ip, r0, r0
 800243c:	eb7b 0b0e 	sbcs.w	fp, fp, lr
 8002440:	f8c3 b014 	str.w	fp, [r3, #20]
 8002444:	f8d1 e018 	ldr.w	lr, [r1, #24]
 8002448:	f8d2 b018 	ldr.w	fp, [r2, #24]
 800244c:	fbe0 ec60 	umaal	lr, ip, r0, r0
 8002450:	eb7b 0b0e 	sbcs.w	fp, fp, lr
 8002454:	f8c3 b018 	str.w	fp, [r3, #24]
 8002458:	f8d3 b01c 	ldr.w	fp, [r3, #28]
 800245c:	eb7b 0b0c 	sbcs.w	fp, fp, ip
 8002460:	f8c3 b01c 	str.w	fp, [r3, #28]
 8002464:	ab12      	add	r3, sp, #72	; 0x48
 8002466:	4619      	mov	r1, r3
 8002468:	4618      	mov	r0, r3
 800246a:	f7fd ff8b 	bl	8000384 <fe25519_square_asm>
 800246e:	ab12      	add	r3, sp, #72	; 0x48
 8002470:	4652      	mov	r2, sl
 8002472:	4619      	mov	r1, r3
 8002474:	4618      	mov	r0, r3
 8002476:	f7fe f853 	bl	8000520 <fe25519_mul_asm>
 800247a:	4be3      	ldr	r3, [pc, #908]	; (8002808 <computeY_curve25519_projective+0x51c>)
 800247c:	aa02      	add	r2, sp, #8
 800247e:	4621      	mov	r1, r4
 8002480:	469b      	mov	fp, r3
 8002482:	f8d3 c01c 	ldr.w	ip, [r3, #28]
 8002486:	f8db 001c 	ldr.w	r0, [fp, #28]
 800248a:	4686      	mov	lr, r0
 800248c:	fbec ce61 	umaal	ip, lr, ip, r1
 8002490:	fbe0 ce01 	umlal	ip, lr, r0, r1
 8002494:	f04f 0013 	mov.w	r0, #19
 8002498:	fb0e f000 	mul.w	r0, lr, r0
 800249c:	f8d3 e000 	ldr.w	lr, [r3]
 80024a0:	f8db a000 	ldr.w	sl, [fp]
 80024a4:	fbe1 ea60 	umaal	lr, sl, r1, r0
 80024a8:	f8c2 e000 	str.w	lr, [r2]
 80024ac:	6858      	ldr	r0, [r3, #4]
 80024ae:	f8db e004 	ldr.w	lr, [fp, #4]
 80024b2:	fbe1 ea60 	umaal	lr, sl, r1, r0
 80024b6:	f8c2 e004 	str.w	lr, [r2, #4]
 80024ba:	6898      	ldr	r0, [r3, #8]
 80024bc:	f8db e008 	ldr.w	lr, [fp, #8]
 80024c0:	fbe1 ea60 	umaal	lr, sl, r1, r0
 80024c4:	f8c2 e008 	str.w	lr, [r2, #8]
 80024c8:	68d8      	ldr	r0, [r3, #12]
 80024ca:	f8db e00c 	ldr.w	lr, [fp, #12]
 80024ce:	fbe1 ea60 	umaal	lr, sl, r1, r0
 80024d2:	f8c2 e00c 	str.w	lr, [r2, #12]
 80024d6:	6918      	ldr	r0, [r3, #16]
 80024d8:	f8db e010 	ldr.w	lr, [fp, #16]
 80024dc:	fbe1 ea60 	umaal	lr, sl, r1, r0
 80024e0:	f8c2 e010 	str.w	lr, [r2, #16]
 80024e4:	6958      	ldr	r0, [r3, #20]
 80024e6:	f8db e014 	ldr.w	lr, [fp, #20]
 80024ea:	fbe1 ea60 	umaal	lr, sl, r1, r0
 80024ee:	f8c2 e014 	str.w	lr, [r2, #20]
 80024f2:	6998      	ldr	r0, [r3, #24]
 80024f4:	f8db e018 	ldr.w	lr, [fp, #24]
 80024f8:	fbe1 ea60 	umaal	lr, sl, r1, r0
 80024fc:	f8c2 e018 	str.w	lr, [r2, #24]
 8002500:	eb0a 0a5c 	add.w	sl, sl, ip, lsr #1
 8002504:	f8c2 a01c 	str.w	sl, [r2, #28]
 8002508:	a902      	add	r1, sp, #8
 800250a:	4632      	mov	r2, r6
 800250c:	4608      	mov	r0, r1
 800250e:	f7fe f807 	bl	8000520 <fe25519_mul_asm>
 8002512:	ab0a      	add	r3, sp, #40	; 0x28
 8002514:	aa02      	add	r2, sp, #8
 8002516:	4621      	mov	r1, r4
 8002518:	469b      	mov	fp, r3
 800251a:	f8db c01c 	ldr.w	ip, [fp, #28]
 800251e:	69d0      	ldr	r0, [r2, #28]
 8002520:	4686      	mov	lr, r0
 8002522:	fbec ce61 	umaal	ip, lr, ip, r1
 8002526:	fbe0 ce01 	umlal	ip, lr, r0, r1
 800252a:	f04f 0013 	mov.w	r0, #19
 800252e:	fb0e f000 	mul.w	r0, lr, r0
 8002532:	f8db e000 	ldr.w	lr, [fp]
 8002536:	f8d2 a000 	ldr.w	sl, [r2]
 800253a:	fbe1 ea60 	umaal	lr, sl, r1, r0
 800253e:	f8c3 e000 	str.w	lr, [r3]
 8002542:	f8db 0004 	ldr.w	r0, [fp, #4]
 8002546:	f8d2 e004 	ldr.w	lr, [r2, #4]
 800254a:	fbe1 ea60 	umaal	lr, sl, r1, r0
 800254e:	f8c3 e004 	str.w	lr, [r3, #4]
 8002552:	f8db 0008 	ldr.w	r0, [fp, #8]
 8002556:	f8d2 e008 	ldr.w	lr, [r2, #8]
 800255a:	fbe1 ea60 	umaal	lr, sl, r1, r0
 800255e:	f8c3 e008 	str.w	lr, [r3, #8]
 8002562:	f8db 000c 	ldr.w	r0, [fp, #12]
 8002566:	f8d2 e00c 	ldr.w	lr, [r2, #12]
 800256a:	fbe1 ea60 	umaal	lr, sl, r1, r0
 800256e:	f8c3 e00c 	str.w	lr, [r3, #12]
 8002572:	f8db 0010 	ldr.w	r0, [fp, #16]
 8002576:	f8d2 e010 	ldr.w	lr, [r2, #16]
 800257a:	fbe1 ea60 	umaal	lr, sl, r1, r0
 800257e:	f8c3 e010 	str.w	lr, [r3, #16]
 8002582:	f8db 0014 	ldr.w	r0, [fp, #20]
 8002586:	f8d2 e014 	ldr.w	lr, [r2, #20]
 800258a:	fbe1 ea60 	umaal	lr, sl, r1, r0
 800258e:	f8c3 e014 	str.w	lr, [r3, #20]
 8002592:	f8db 0018 	ldr.w	r0, [fp, #24]
 8002596:	f8d2 e018 	ldr.w	lr, [r2, #24]
 800259a:	fbe1 ea60 	umaal	lr, sl, r1, r0
 800259e:	f8c3 e018 	str.w	lr, [r3, #24]
 80025a2:	eb0a 0a5c 	add.w	sl, sl, ip, lsr #1
 80025a6:	f8c3 a01c 	str.w	sl, [r3, #28]
 80025aa:	4649      	mov	r1, r9
 80025ac:	463a      	mov	r2, r7
 80025ae:	a81a      	add	r0, sp, #104	; 0x68
 80025b0:	f7fd ffb6 	bl	8000520 <fe25519_mul_asm>
 80025b4:	ab1a      	add	r3, sp, #104	; 0x68
 80025b6:	4632      	mov	r2, r6
 80025b8:	4621      	mov	r1, r4
 80025ba:	469a      	mov	sl, r3
 80025bc:	f8da c01c 	ldr.w	ip, [sl, #28]
 80025c0:	69d0      	ldr	r0, [r2, #28]
 80025c2:	4686      	mov	lr, r0
 80025c4:	fbec ce61 	umaal	ip, lr, ip, r1
 80025c8:	fbe0 ce01 	umlal	ip, lr, r0, r1
 80025cc:	f04f 0013 	mov.w	r0, #19
 80025d0:	fb0e f000 	mul.w	r0, lr, r0
 80025d4:	f8da e000 	ldr.w	lr, [sl]
 80025d8:	f8d2 9000 	ldr.w	r9, [r2]
 80025dc:	fbe1 e960 	umaal	lr, r9, r1, r0
 80025e0:	f8c3 e000 	str.w	lr, [r3]
 80025e4:	f8da 0004 	ldr.w	r0, [sl, #4]
 80025e8:	f8d2 e004 	ldr.w	lr, [r2, #4]
 80025ec:	fbe1 e960 	umaal	lr, r9, r1, r0
 80025f0:	f8c3 e004 	str.w	lr, [r3, #4]
 80025f4:	f8da 0008 	ldr.w	r0, [sl, #8]
 80025f8:	f8d2 e008 	ldr.w	lr, [r2, #8]
 80025fc:	fbe1 e960 	umaal	lr, r9, r1, r0
 8002600:	f8c3 e008 	str.w	lr, [r3, #8]
 8002604:	f8da 000c 	ldr.w	r0, [sl, #12]
 8002608:	f8d2 e00c 	ldr.w	lr, [r2, #12]
 800260c:	fbe1 e960 	umaal	lr, r9, r1, r0
 8002610:	f8c3 e00c 	str.w	lr, [r3, #12]
 8002614:	f8da 0010 	ldr.w	r0, [sl, #16]
 8002618:	f8d2 e010 	ldr.w	lr, [r2, #16]
 800261c:	fbe1 e960 	umaal	lr, r9, r1, r0
 8002620:	f8c3 e010 	str.w	lr, [r3, #16]
 8002624:	f8da 0014 	ldr.w	r0, [sl, #20]
 8002628:	f8d2 e014 	ldr.w	lr, [r2, #20]
 800262c:	fbe1 e960 	umaal	lr, r9, r1, r0
 8002630:	f8c3 e014 	str.w	lr, [r3, #20]
 8002634:	f8da 0018 	ldr.w	r0, [sl, #24]
 8002638:	f8d2 e018 	ldr.w	lr, [r2, #24]
 800263c:	fbe1 e960 	umaal	lr, r9, r1, r0
 8002640:	f8c3 e018 	str.w	lr, [r3, #24]
 8002644:	eb09 095c 	add.w	r9, r9, ip, lsr #1
 8002648:	f8c3 901c 	str.w	r9, [r3, #28]
 800264c:	ab0a      	add	r3, sp, #40	; 0x28
 800264e:	4619      	mov	r1, r3
 8002650:	4618      	mov	r0, r3
 8002652:	aa1a      	add	r2, sp, #104	; 0x68
 8002654:	f7fd ff64 	bl	8000520 <fe25519_mul_asm>
 8002658:	a902      	add	r1, sp, #8
 800265a:	4632      	mov	r2, r6
 800265c:	4608      	mov	r0, r1
 800265e:	f7fd ff5f 	bl	8000520 <fe25519_mul_asm>
 8002662:	ab0a      	add	r3, sp, #40	; 0x28
 8002664:	aa02      	add	r2, sp, #8
 8002666:	4629      	mov	r1, r5
 8002668:	4699      	mov	r9, r3
 800266a:	f8d9 001c 	ldr.w	r0, [r9, #28]
 800266e:	f8d2 c01c 	ldr.w	ip, [r2, #28]
 8002672:	ebb0 000c 	subs.w	r0, r0, ip
 8002676:	eb7c 0c0c 	sbcs.w	ip, ip, ip
 800267a:	eb10 0e00 	adds.w	lr, r0, r0
 800267e:	eb5c 0c0c 	adcs.w	ip, ip, ip
 8002682:	f040 4000 	orr.w	r0, r0, #2147483648	; 0x80000000
 8002686:	61d8      	str	r0, [r3, #28]
 8002688:	f1ac 0001 	sub.w	r0, ip, #1
 800268c:	f06f 0c12 	mvn.w	ip, #18
 8002690:	fb00 f00c 	mul.w	r0, r0, ip
 8002694:	f8d2 c000 	ldr.w	ip, [r2]
 8002698:	f8d9 e000 	ldr.w	lr, [r9]
 800269c:	fbe1 c061 	umaal	ip, r0, r1, r1
 80026a0:	ebbe 0e0c 	subs.w	lr, lr, ip
 80026a4:	f8c3 e000 	str.w	lr, [r3]
 80026a8:	f8d2 c004 	ldr.w	ip, [r2, #4]
 80026ac:	f8d9 e004 	ldr.w	lr, [r9, #4]
 80026b0:	fbe1 c061 	umaal	ip, r0, r1, r1
 80026b4:	eb7e 0e0c 	sbcs.w	lr, lr, ip
 80026b8:	f8c3 e004 	str.w	lr, [r3, #4]
 80026bc:	f8d2 c008 	ldr.w	ip, [r2, #8]
 80026c0:	f8d9 e008 	ldr.w	lr, [r9, #8]
 80026c4:	fbe1 c061 	umaal	ip, r0, r1, r1
 80026c8:	eb7e 0e0c 	sbcs.w	lr, lr, ip
 80026cc:	f8c3 e008 	str.w	lr, [r3, #8]
 80026d0:	f8d2 c00c 	ldr.w	ip, [r2, #12]
 80026d4:	f8d9 e00c 	ldr.w	lr, [r9, #12]
 80026d8:	fbe1 c061 	umaal	ip, r0, r1, r1
 80026dc:	eb7e 0e0c 	sbcs.w	lr, lr, ip
 80026e0:	f8c3 e00c 	str.w	lr, [r3, #12]
 80026e4:	f8d2 c010 	ldr.w	ip, [r2, #16]
 80026e8:	f8d9 e010 	ldr.w	lr, [r9, #16]
 80026ec:	fbe1 c061 	umaal	ip, r0, r1, r1
 80026f0:	eb7e 0e0c 	sbcs.w	lr, lr, ip
 80026f4:	f8c3 e010 	str.w	lr, [r3, #16]
 80026f8:	f8d2 c014 	ldr.w	ip, [r2, #20]
 80026fc:	f8d9 e014 	ldr.w	lr, [r9, #20]
 8002700:	fbe1 c061 	umaal	ip, r0, r1, r1
 8002704:	eb7e 0e0c 	sbcs.w	lr, lr, ip
 8002708:	f8c3 e014 	str.w	lr, [r3, #20]
 800270c:	f8d2 c018 	ldr.w	ip, [r2, #24]
 8002710:	f8d9 e018 	ldr.w	lr, [r9, #24]
 8002714:	fbe1 c061 	umaal	ip, r0, r1, r1
 8002718:	eb7e 0e0c 	sbcs.w	lr, lr, ip
 800271c:	f8c3 e018 	str.w	lr, [r3, #24]
 8002720:	f8d3 e01c 	ldr.w	lr, [r3, #28]
 8002724:	eb7e 0e00 	sbcs.w	lr, lr, r0
 8002728:	f8c3 e01c 	str.w	lr, [r3, #28]
 800272c:	ab0a      	add	r3, sp, #40	; 0x28
 800272e:	4642      	mov	r2, r8
 8002730:	4619      	mov	r1, r3
 8002732:	4618      	mov	r0, r3
 8002734:	f7fd fef4 	bl	8000520 <fe25519_mul_asm>
 8002738:	9901      	ldr	r1, [sp, #4]
 800273a:	ab0a      	add	r3, sp, #40	; 0x28
 800273c:	aa12      	add	r2, sp, #72	; 0x48
 800273e:	69d8      	ldr	r0, [r3, #28]
 8002740:	f8d2 c01c 	ldr.w	ip, [r2, #28]
 8002744:	ebb0 000c 	subs.w	r0, r0, ip
 8002748:	eb7c 0c0c 	sbcs.w	ip, ip, ip
 800274c:	eb10 0e00 	adds.w	lr, r0, r0
 8002750:	eb5c 0c0c 	adcs.w	ip, ip, ip
 8002754:	f040 4000 	orr.w	r0, r0, #2147483648	; 0x80000000
 8002758:	61c8      	str	r0, [r1, #28]
 800275a:	f1ac 0001 	sub.w	r0, ip, #1
 800275e:	f06f 0c12 	mvn.w	ip, #18
 8002762:	fb00 f00c 	mul.w	r0, r0, ip
 8002766:	f8d2 c000 	ldr.w	ip, [r2]
 800276a:	f8d3 e000 	ldr.w	lr, [r3]
 800276e:	fbe5 c065 	umaal	ip, r0, r5, r5
 8002772:	ebbe 0e0c 	subs.w	lr, lr, ip
 8002776:	f8c1 e000 	str.w	lr, [r1]
 800277a:	f8d2 c004 	ldr.w	ip, [r2, #4]
 800277e:	f8d3 e004 	ldr.w	lr, [r3, #4]
 8002782:	fbe5 c065 	umaal	ip, r0, r5, r5
 8002786:	eb7e 0e0c 	sbcs.w	lr, lr, ip
 800278a:	f8c1 e004 	str.w	lr, [r1, #4]
 800278e:	f8d2 c008 	ldr.w	ip, [r2, #8]
 8002792:	f8d3 e008 	ldr.w	lr, [r3, #8]
 8002796:	fbe5 c065 	umaal	ip, r0, r5, r5
 800279a:	eb7e 0e0c 	sbcs.w	lr, lr, ip
 800279e:	f8c1 e008 	str.w	lr, [r1, #8]
 80027a2:	f8d2 c00c 	ldr.w	ip, [r2, #12]
 80027a6:	f8d3 e00c 	ldr.w	lr, [r3, #12]
 80027aa:	fbe5 c065 	umaal	ip, r0, r5, r5
 80027ae:	eb7e 0e0c 	sbcs.w	lr, lr, ip
 80027b2:	f8c1 e00c 	str.w	lr, [r1, #12]
 80027b6:	f8d2 c010 	ldr.w	ip, [r2, #16]
 80027ba:	f8d3 e010 	ldr.w	lr, [r3, #16]
 80027be:	fbe5 c065 	umaal	ip, r0, r5, r5
 80027c2:	eb7e 0e0c 	sbcs.w	lr, lr, ip
 80027c6:	f8c1 e010 	str.w	lr, [r1, #16]
 80027ca:	f8d2 c014 	ldr.w	ip, [r2, #20]
 80027ce:	f8d3 e014 	ldr.w	lr, [r3, #20]
 80027d2:	fbe5 c065 	umaal	ip, r0, r5, r5
 80027d6:	eb7e 0e0c 	sbcs.w	lr, lr, ip
 80027da:	f8c1 e014 	str.w	lr, [r1, #20]
 80027de:	f8d2 c018 	ldr.w	ip, [r2, #24]
 80027e2:	f8d3 e018 	ldr.w	lr, [r3, #24]
 80027e6:	fbe5 c065 	umaal	ip, r0, r5, r5
 80027ea:	eb7e 0e0c 	sbcs.w	lr, lr, ip
 80027ee:	f8c1 e018 	str.w	lr, [r1, #24]
 80027f2:	f8d1 e01c 	ldr.w	lr, [r1, #28]
 80027f6:	eb7e 0e00 	sbcs.w	lr, lr, r0
 80027fa:	f8c1 e01c 	str.w	lr, [r1, #28]
 80027fe:	9b2e      	ldr	r3, [sp, #184]	; 0xb8
 8002800:	aa02      	add	r2, sp, #8
 8002802:	469e      	mov	lr, r3
 8002804:	e002      	b.n	800280c <computeY_curve25519_projective+0x520>
 8002806:	bf00      	nop
 8002808:	08003f98 	.word	0x08003f98
 800280c:	69d8      	ldr	r0, [r3, #28]
 800280e:	f8de 101c 	ldr.w	r1, [lr, #28]
 8002812:	460d      	mov	r5, r1
 8002814:	fbe0 0564 	umaal	r0, r5, r0, r4
 8002818:	fbe1 0504 	umlal	r0, r5, r1, r4
 800281c:	f04f 0113 	mov.w	r1, #19
 8002820:	fb05 f101 	mul.w	r1, r5, r1
 8002824:	681d      	ldr	r5, [r3, #0]
 8002826:	f8de c000 	ldr.w	ip, [lr]
 800282a:	fbe4 5c61 	umaal	r5, ip, r4, r1
 800282e:	6015      	str	r5, [r2, #0]
 8002830:	6859      	ldr	r1, [r3, #4]
 8002832:	f8de 5004 	ldr.w	r5, [lr, #4]
 8002836:	fbe4 5c61 	umaal	r5, ip, r4, r1
 800283a:	6055      	str	r5, [r2, #4]
 800283c:	6899      	ldr	r1, [r3, #8]
 800283e:	f8de 5008 	ldr.w	r5, [lr, #8]
 8002842:	fbe4 5c61 	umaal	r5, ip, r4, r1
 8002846:	6095      	str	r5, [r2, #8]
 8002848:	68d9      	ldr	r1, [r3, #12]
 800284a:	f8de 500c 	ldr.w	r5, [lr, #12]
 800284e:	fbe4 5c61 	umaal	r5, ip, r4, r1
 8002852:	60d5      	str	r5, [r2, #12]
 8002854:	6919      	ldr	r1, [r3, #16]
 8002856:	f8de 5010 	ldr.w	r5, [lr, #16]
 800285a:	fbe4 5c61 	umaal	r5, ip, r4, r1
 800285e:	6115      	str	r5, [r2, #16]
 8002860:	6959      	ldr	r1, [r3, #20]
 8002862:	f8de 5014 	ldr.w	r5, [lr, #20]
 8002866:	fbe4 5c61 	umaal	r5, ip, r4, r1
 800286a:	6155      	str	r5, [r2, #20]
 800286c:	6999      	ldr	r1, [r3, #24]
 800286e:	f8de 5018 	ldr.w	r5, [lr, #24]
 8002872:	fbe4 5c61 	umaal	r5, ip, r4, r1
 8002876:	6195      	str	r5, [r2, #24]
 8002878:	eb0c 0c50 	add.w	ip, ip, r0, lsr #1
 800287c:	f8c2 c01c 	str.w	ip, [r2, #28]
 8002880:	a902      	add	r1, sp, #8
 8002882:	4632      	mov	r2, r6
 8002884:	4608      	mov	r0, r1
 8002886:	f7fd fe4b 	bl	8000520 <fe25519_mul_asm>
 800288a:	a902      	add	r1, sp, #8
 800288c:	4642      	mov	r2, r8
 800288e:	4608      	mov	r0, r1
 8002890:	f7fd fe46 	bl	8000520 <fe25519_mul_asm>
 8002894:	463a      	mov	r2, r7
 8002896:	a902      	add	r1, sp, #8
 8002898:	4638      	mov	r0, r7
 800289a:	f7fd fe41 	bl	8000520 <fe25519_mul_asm>
 800289e:	4632      	mov	r2, r6
 80028a0:	a902      	add	r1, sp, #8
 80028a2:	4630      	mov	r0, r6
 80028a4:	f7fd fe3c 	bl	8000520 <fe25519_mul_asm>
 80028a8:	b023      	add	sp, #140	; 0x8c
 80028aa:	e8bd 8ff0 	ldmia.w	sp!, {r4, r5, r6, r7, r8, r9, sl, fp, pc}
 80028ae:	bf00      	nop

080028b0 <maskScalarBitsWithRandomAndCswap>:
 80028b0:	b5f0      	push	{r4, r5, r6, r7, lr}
 80028b2:	b085      	sub	sp, #20
 80028b4:	4605      	mov	r5, r0
 80028b6:	4616      	mov	r6, r2
 80028b8:	a802      	add	r0, sp, #8
 80028ba:	2400      	movs	r4, #0
 80028bc:	2208      	movs	r2, #8
 80028be:	2300      	movs	r3, #0
 80028c0:	460f      	mov	r7, r1
 80028c2:	e9cd 4402 	strd	r4, r4, [sp, #8]
 80028c6:	f7fe f813 	bl	80008f0 <randombytes>
 80028ca:	e9dd 4302 	ldrd	r4, r3, [sp, #8]
 80028ce:	2101      	movs	r1, #1
 80028d0:	40b1      	lsls	r1, r6
 80028d2:	ea24 0401 	bic.w	r4, r4, r1
 80028d6:	ea84 0107 	eor.w	r1, r4, r7
 80028da:	fa61 f006 	ror.w	r0, r1, r6
 80028de:	f105 0260 	add.w	r2, r5, #96	; 0x60
 80028e2:	f105 0120 	add.w	r1, r5, #32
 80028e6:	9001      	str	r0, [sp, #4]
 80028e8:	f001 f9d8 	bl	8003c9c <cSwapAndRandomize_asm>
 80028ec:	9801      	ldr	r0, [sp, #4]
 80028ee:	9b03      	ldr	r3, [sp, #12]
 80028f0:	f105 0280 	add.w	r2, r5, #128	; 0x80
 80028f4:	f105 0140 	add.w	r1, r5, #64	; 0x40
 80028f8:	f001 f9d0 	bl	8003c9c <cSwapAndRandomize_asm>
 80028fc:	b005      	add	sp, #20
 80028fe:	bdf0      	pop	{r4, r5, r6, r7, pc}

08002900 <update_static_key_curve25519>:
 8002900:	b530      	push	{r4, r5, lr}
 8002902:	4a44      	ldr	r2, [pc, #272]	; (8002a14 <update_static_key_curve25519+0x114>)
 8002904:	4d44      	ldr	r5, [pc, #272]	; (8002a18 <update_static_key_curve25519+0x118>)
 8002906:	4945      	ldr	r1, [pc, #276]	; (8002a1c <update_static_key_curve25519+0x11c>)
 8002908:	4845      	ldr	r0, [pc, #276]	; (8002a20 <update_static_key_curve25519+0x120>)
 800290a:	4b46      	ldr	r3, [pc, #280]	; (8002a24 <update_static_key_curve25519+0x124>)
 800290c:	4c46      	ldr	r4, [pc, #280]	; (8002a28 <update_static_key_curve25519+0x128>)
 800290e:	b0ef      	sub	sp, #444	; 0x1bc
 8002910:	e9cd 5204 	strd	r5, r2, [sp, #16]
 8002914:	9306      	str	r3, [sp, #24]
 8002916:	aa16      	add	r2, sp, #88	; 0x58
 8002918:	ab1e      	add	r3, sp, #120	; 0x78
 800291a:	e9cd 1002 	strd	r1, r0, [sp, #8]
 800291e:	9407      	str	r4, [sp, #28]
 8002920:	a80e      	add	r0, sp, #56	; 0x38
 8002922:	9209      	str	r2, [sp, #36]	; 0x24
 8002924:	ac26      	add	r4, sp, #152	; 0x98
 8002926:	aa2e      	add	r2, sp, #184	; 0xb8
 8002928:	930a      	str	r3, [sp, #40]	; 0x28
 800292a:	ab36      	add	r3, sp, #216	; 0xd8
 800292c:	e9cd 420b 	strd	r4, r2, [sp, #44]	; 0x2c
 8002930:	930d      	str	r3, [sp, #52]	; 0x34
 8002932:	9008      	str	r0, [sp, #32]
 8002934:	f000 fbd0 	bl	80030d8 <fe25519_cpy>
 8002938:	9903      	ldr	r1, [sp, #12]
 800293a:	9809      	ldr	r0, [sp, #36]	; 0x24
 800293c:	f000 fbcc 	bl	80030d8 <fe25519_cpy>
 8002940:	9904      	ldr	r1, [sp, #16]
 8002942:	980a      	ldr	r0, [sp, #40]	; 0x28
 8002944:	f000 fbc8 	bl	80030d8 <fe25519_cpy>
 8002948:	9905      	ldr	r1, [sp, #20]
 800294a:	980b      	ldr	r0, [sp, #44]	; 0x2c
 800294c:	f000 fbc4 	bl	80030d8 <fe25519_cpy>
 8002950:	9906      	ldr	r1, [sp, #24]
 8002952:	980c      	ldr	r0, [sp, #48]	; 0x30
 8002954:	f000 fbc0 	bl	80030d8 <fe25519_cpy>
 8002958:	9907      	ldr	r1, [sp, #28]
 800295a:	980d      	ldr	r0, [sp, #52]	; 0x34
 800295c:	f000 fbbc 	bl	80030d8 <fe25519_cpy>
 8002960:	f10d 0007 	add.w	r0, sp, #7
 8002964:	2201      	movs	r2, #1
 8002966:	2300      	movs	r3, #0
 8002968:	f7fd ffc2 	bl	80008f0 <randombytes>
 800296c:	2407      	movs	r4, #7
 800296e:	e001      	b.n	8002974 <update_static_key_curve25519+0x74>
 8002970:	1c63      	adds	r3, r4, #1
 8002972:	d01b      	beq.n	80029ac <update_static_key_curve25519+0xac>
 8002974:	a902      	add	r1, sp, #8
 8002976:	4608      	mov	r0, r1
 8002978:	f7fe f808 	bl	800098c <curve25519_doublePoint>
 800297c:	a905      	add	r1, sp, #20
 800297e:	4608      	mov	r0, r1
 8002980:	f7fe f804 	bl	800098c <curve25519_doublePoint>
 8002984:	f89d 3007 	ldrb.w	r3, [sp, #7]
 8002988:	4123      	asrs	r3, r4
 800298a:	f013 0f01 	tst.w	r3, #1
 800298e:	f104 34ff 	add.w	r4, r4, #4294967295	; 0xffffffff
 8002992:	d0ed      	beq.n	8002970 <update_static_key_curve25519+0x70>
 8002994:	a902      	add	r1, sp, #8
 8002996:	4608      	mov	r0, r1
 8002998:	aa08      	add	r2, sp, #32
 800299a:	f7fe fe53 	bl	8001644 <curve25519_addPoint>
 800299e:	a905      	add	r1, sp, #20
 80029a0:	aa0b      	add	r2, sp, #44	; 0x2c
 80029a2:	4608      	mov	r0, r1
 80029a4:	f7fe fe4e 	bl	8001644 <curve25519_addPoint>
 80029a8:	1c63      	adds	r3, r4, #1
 80029aa:	d1e3      	bne.n	8002974 <update_static_key_curve25519+0x74>
 80029ac:	a83e      	add	r0, sp, #248	; 0xf8
 80029ae:	f000 fb9d 	bl	80030ec <fe25519_setzero>
 80029b2:	2208      	movs	r2, #8
 80029b4:	2300      	movs	r3, #0
 80029b6:	a83e      	add	r0, sp, #248	; 0xf8
 80029b8:	f7fd ff9a 	bl	80008f0 <randombytes>
 80029bc:	e9dd 233e 	ldrd	r2, r3, [sp, #248]	; 0xf8
 80029c0:	4313      	orrs	r3, r2
 80029c2:	d0f6      	beq.n	80029b2 <update_static_key_curve25519+0xb2>
 80029c4:	2300      	movs	r3, #0
 80029c6:	a85e      	add	r0, sp, #376	; 0x178
 80029c8:	2240      	movs	r2, #64	; 0x40
 80029ca:	f7fd ff91 	bl	80008f0 <randombytes>
 80029ce:	a95e      	add	r1, sp, #376	; 0x178
 80029d0:	a856      	add	r0, sp, #344	; 0x158
 80029d2:	f7fd fc4b 	bl	800026c <fe25519_reduceTo256Bits_asm>
 80029d6:	aa56      	add	r2, sp, #344	; 0x158
 80029d8:	a84e      	add	r0, sp, #312	; 0x138
 80029da:	a93e      	add	r1, sp, #248	; 0xf8
 80029dc:	f000 ff94 	bl	8003908 <sc25519_mul>
 80029e0:	a94e      	add	r1, sp, #312	; 0x138
 80029e2:	4608      	mov	r0, r1
 80029e4:	f001 f8d6 	bl	8003b94 <sc25519_inverse>
 80029e8:	aa56      	add	r2, sp, #344	; 0x158
 80029ea:	a94e      	add	r1, sp, #312	; 0x138
 80029ec:	a846      	add	r0, sp, #280	; 0x118
 80029ee:	f000 ff8b 	bl	8003908 <sc25519_mul>
 80029f2:	490e      	ldr	r1, [pc, #56]	; (8002a2c <update_static_key_curve25519+0x12c>)
 80029f4:	aa46      	add	r2, sp, #280	; 0x118
 80029f6:	4608      	mov	r0, r1
 80029f8:	f000 ff86 	bl	8003908 <sc25519_mul>
 80029fc:	490b      	ldr	r1, [pc, #44]	; (8002a2c <update_static_key_curve25519+0x12c>)
 80029fe:	4a0c      	ldr	r2, [pc, #48]	; (8002a30 <update_static_key_curve25519+0x130>)
 8002a00:	4608      	mov	r0, r1
 8002a02:	f000 ff81 	bl	8003908 <sc25519_mul>
 8002a06:	480a      	ldr	r0, [pc, #40]	; (8002a30 <update_static_key_curve25519+0x130>)
 8002a08:	a93e      	add	r1, sp, #248	; 0xf8
 8002a0a:	f000 fec3 	bl	8003794 <cpy_256bitvalue>
 8002a0e:	b06f      	add	sp, #444	; 0x1bc
 8002a10:	bd30      	pop	{r4, r5, pc}
 8002a12:	bf00      	nop
 8002a14:	20000060 	.word	0x20000060
 8002a18:	20000040 	.word	0x20000040
 8002a1c:	20000000 	.word	0x20000000
 8002a20:	20000020 	.word	0x20000020
 8002a24:	20000080 	.word	0x20000080
 8002a28:	200000a0 	.word	0x200000a0
 8002a2c:	200000e0 	.word	0x200000e0
 8002a30:	200000c0 	.word	0x200000c0

08002a34 <set_static_key_curve25519>:
 8002a34:	e92d 4ff0 	stmdb	sp!, {r4, r5, r6, r7, r8, r9, sl, fp, lr}
 8002a38:	b087      	sub	sp, #28
 8002a3a:	e9dd 4510 	ldrd	r4, r5, [sp, #64]	; 0x40
 8002a3e:	9503      	str	r5, [sp, #12]
 8002a40:	9d12      	ldr	r5, [sp, #72]	; 0x48
 8002a42:	9504      	str	r5, [sp, #16]
 8002a44:	9d13      	ldr	r5, [sp, #76]	; 0x4c
 8002a46:	9505      	str	r5, [sp, #20]
 8002a48:	4d21      	ldr	r5, [pc, #132]	; (8002ad0 <set_static_key_curve25519+0x9c>)
 8002a4a:	9501      	str	r5, [sp, #4]
 8002a4c:	3b01      	subs	r3, #1
 8002a4e:	f8df 9090 	ldr.w	r9, [pc, #144]	; 8002ae0 <set_static_key_curve25519+0xac>
 8002a52:	f8df 8090 	ldr.w	r8, [pc, #144]	; 8002ae4 <set_static_key_curve25519+0xb0>
 8002a56:	f8df e090 	ldr.w	lr, [pc, #144]	; 8002ae8 <set_static_key_curve25519+0xb4>
 8002a5a:	f8df c090 	ldr.w	ip, [pc, #144]	; 8002aec <set_static_key_curve25519+0xb8>
 8002a5e:	4f1d      	ldr	r7, [pc, #116]	; (8002ad4 <set_static_key_curve25519+0xa0>)
 8002a60:	4e1d      	ldr	r6, [pc, #116]	; (8002ad8 <set_static_key_curve25519+0xa4>)
 8002a62:	4d1e      	ldr	r5, [pc, #120]	; (8002adc <set_static_key_curve25519+0xa8>)
 8002a64:	9302      	str	r3, [sp, #8]
 8002a66:	f104 3aff 	add.w	sl, r4, #4294967295	; 0xffffffff
 8002a6a:	3801      	subs	r0, #1
 8002a6c:	3901      	subs	r1, #1
 8002a6e:	3a01      	subs	r2, #1
 8002a70:	2400      	movs	r4, #0
 8002a72:	9b01      	ldr	r3, [sp, #4]
 8002a74:	f810 bf01 	ldrb.w	fp, [r0, #1]!
 8002a78:	f803 bf01 	strb.w	fp, [r3, #1]!
 8002a7c:	f811 bf01 	ldrb.w	fp, [r1, #1]!
 8002a80:	f809 bf01 	strb.w	fp, [r9, #1]!
 8002a84:	f812 bf01 	ldrb.w	fp, [r2, #1]!
 8002a88:	f808 bf01 	strb.w	fp, [r8, #1]!
 8002a8c:	9301      	str	r3, [sp, #4]
 8002a8e:	9b02      	ldr	r3, [sp, #8]
 8002a90:	f813 bf01 	ldrb.w	fp, [r3, #1]!
 8002a94:	f80e bf01 	strb.w	fp, [lr, #1]!
 8002a98:	f81a bf01 	ldrb.w	fp, [sl, #1]!
 8002a9c:	f80c bf01 	strb.w	fp, [ip, #1]!
 8002aa0:	9302      	str	r3, [sp, #8]
 8002aa2:	9b03      	ldr	r3, [sp, #12]
 8002aa4:	f813 b004 	ldrb.w	fp, [r3, r4]
 8002aa8:	f807 bf01 	strb.w	fp, [r7, #1]!
 8002aac:	9b04      	ldr	r3, [sp, #16]
 8002aae:	f813 b004 	ldrb.w	fp, [r3, r4]
 8002ab2:	f806 bf01 	strb.w	fp, [r6, #1]!
 8002ab6:	9b05      	ldr	r3, [sp, #20]
 8002ab8:	f813 b004 	ldrb.w	fp, [r3, r4]
 8002abc:	f805 bf01 	strb.w	fp, [r5, #1]!
 8002ac0:	3401      	adds	r4, #1
 8002ac2:	2c20      	cmp	r4, #32
 8002ac4:	d1d5      	bne.n	8002a72 <set_static_key_curve25519+0x3e>
 8002ac6:	b007      	add	sp, #28
 8002ac8:	e8bd 4ff0 	ldmia.w	sp!, {r4, r5, r6, r7, r8, r9, sl, fp, lr}
 8002acc:	f7ff bf18 	b.w	8002900 <update_static_key_curve25519>
 8002ad0:	1fffffff 	.word	0x1fffffff
 8002ad4:	2000009f 	.word	0x2000009f
 8002ad8:	200000df 	.word	0x200000df
 8002adc:	200000bf 	.word	0x200000bf
 8002ae0:	2000001f 	.word	0x2000001f
 8002ae4:	2000003f 	.word	0x2000003f
 8002ae8:	2000005f 	.word	0x2000005f
 8002aec:	2000007f 	.word	0x2000007f

08002af0 <crypto_scalarmult_curve25519>:
 8002af0:	e92d 43f0 	stmdb	sp!, {r4, r5, r6, r7, r8, r9, lr}
 8002af4:	f5ad 7d2d 	sub.w	sp, sp, #692	; 0x2b4
 8002af8:	f04f 34ff 	mov.w	r4, #4294967295	; 0xffffffff
 8002afc:	9407      	str	r4, [sp, #28]
 8002afe:	2600      	movs	r6, #0
 8002b00:	4c6d      	ldr	r4, [pc, #436]	; (8002cb8 <crypto_scalarmult_curve25519+0x1c8>)
 8002b02:	9105      	str	r1, [sp, #20]
 8002b04:	2220      	movs	r2, #32
 8002b06:	2300      	movs	r3, #0
 8002b08:	4607      	mov	r7, r0
 8002b0a:	9608      	str	r6, [sp, #32]
 8002b0c:	f7fd fef0 	bl	80008f0 <randombytes>
 8002b10:	9905      	ldr	r1, [sp, #20]
 8002b12:	f104 0020 	add.w	r0, r4, #32
 8002b16:	f20d 2587 	addw	r5, sp, #647	; 0x287
 8002b1a:	f814 3f01 	ldrb.w	r3, [r4, #1]!
 8002b1e:	f805 3f01 	strb.w	r3, [r5, #1]!
 8002b22:	aa08      	add	r2, sp, #32
 8002b24:	4633      	mov	r3, r6
 8002b26:	6813      	ldr	r3, [r2, #0]
 8002b28:	f103 0309 	add.w	r3, r3, #9
 8002b2c:	6013      	str	r3, [r2, #0]
 8002b2e:	42a0      	cmp	r0, r4
 8002b30:	d1f3      	bne.n	8002b1a <crypto_scalarmult_curve25519+0x2a>
 8002b32:	a872      	add	r0, sp, #456	; 0x1c8
 8002b34:	f000 fabe 	bl	80030b4 <fe25519_unpack>
 8002b38:	a88a      	add	r0, sp, #552	; 0x228
 8002b3a:	f000 fae1 	bl	8003100 <fe25519_setone>
 8002b3e:	a892      	add	r0, sp, #584	; 0x248
 8002b40:	f000 fad4 	bl	80030ec <fe25519_setzero>
 8002b44:	a972      	add	r1, sp, #456	; 0x1c8
 8002b46:	a87a      	add	r0, sp, #488	; 0x1e8
 8002b48:	f000 fac6 	bl	80030d8 <fe25519_cpy>
 8002b4c:	a882      	add	r0, sp, #520	; 0x208
 8002b4e:	f000 fad7 	bl	8003100 <fe25519_setone>
 8002b52:	ab08      	add	r3, sp, #32
 8002b54:	681e      	ldr	r6, [r3, #0]
 8002b56:	f106 0609 	add.w	r6, r6, #9
 8002b5a:	601e      	str	r6, [r3, #0]
 8002b5c:	4a57      	ldr	r2, [pc, #348]	; (8002cbc <crypto_scalarmult_curve25519+0x1cc>)
 8002b5e:	4c58      	ldr	r4, [pc, #352]	; (8002cc0 <crypto_scalarmult_curve25519+0x1d0>)
 8002b60:	4b58      	ldr	r3, [pc, #352]	; (8002cc4 <crypto_scalarmult_curve25519+0x1d4>)
 8002b62:	930e      	str	r3, [sp, #56]	; 0x38
 8002b64:	a97a      	add	r1, sp, #488	; 0x1e8
 8002b66:	ad82      	add	r5, sp, #520	; 0x208
 8002b68:	9109      	str	r1, [sp, #36]	; 0x24
 8002b6a:	a862      	add	r0, sp, #392	; 0x188
 8002b6c:	a972      	add	r1, sp, #456	; 0x1c8
 8002b6e:	950b      	str	r5, [sp, #44]	; 0x2c
 8002b70:	ad12      	add	r5, sp, #72	; 0x48
 8002b72:	e9cd 420c 	strd	r4, r2, [sp, #48]	; 0x30
 8002b76:	950a      	str	r5, [sp, #40]	; 0x28
 8002b78:	f7fd fc04 	bl	8000384 <fe25519_square_asm>
 8002b7c:	a962      	add	r1, sp, #392	; 0x188
 8002b7e:	a85a      	add	r0, sp, #360	; 0x168
 8002b80:	aa72      	add	r2, sp, #456	; 0x1c8
 8002b82:	f7fd fccd 	bl	8000520 <fe25519_mul_asm>
 8002b86:	a962      	add	r1, sp, #392	; 0x188
 8002b88:	4608      	mov	r0, r1
 8002b8a:	4a4f      	ldr	r2, [pc, #316]	; (8002cc8 <crypto_scalarmult_curve25519+0x1d8>)
 8002b8c:	f7fd fcc8 	bl	8000520 <fe25519_mul_asm>
 8002b90:	2201      	movs	r2, #1
 8002b92:	ab5a      	add	r3, sp, #360	; 0x168
 8002b94:	a962      	add	r1, sp, #392	; 0x188
 8002b96:	4610      	mov	r0, r2
 8002b98:	469e      	mov	lr, r3
 8002b9a:	f8de 501c 	ldr.w	r5, [lr, #28]
 8002b9e:	69cc      	ldr	r4, [r1, #28]
 8002ba0:	4626      	mov	r6, r4
 8002ba2:	fbe5 5660 	umaal	r5, r6, r5, r0
 8002ba6:	fbe4 5600 	umlal	r5, r6, r4, r0
 8002baa:	f04f 0413 	mov.w	r4, #19
 8002bae:	fb06 f404 	mul.w	r4, r6, r4
 8002bb2:	f8de 6000 	ldr.w	r6, [lr]
 8002bb6:	f8d1 c000 	ldr.w	ip, [r1]
 8002bba:	fbe0 6c64 	umaal	r6, ip, r0, r4
 8002bbe:	601e      	str	r6, [r3, #0]
 8002bc0:	f8de 4004 	ldr.w	r4, [lr, #4]
 8002bc4:	684e      	ldr	r6, [r1, #4]
 8002bc6:	fbe0 6c64 	umaal	r6, ip, r0, r4
 8002bca:	605e      	str	r6, [r3, #4]
 8002bcc:	f8de 4008 	ldr.w	r4, [lr, #8]
 8002bd0:	688e      	ldr	r6, [r1, #8]
 8002bd2:	fbe0 6c64 	umaal	r6, ip, r0, r4
 8002bd6:	609e      	str	r6, [r3, #8]
 8002bd8:	f8de 400c 	ldr.w	r4, [lr, #12]
 8002bdc:	68ce      	ldr	r6, [r1, #12]
 8002bde:	fbe0 6c64 	umaal	r6, ip, r0, r4
 8002be2:	60de      	str	r6, [r3, #12]
 8002be4:	f8de 4010 	ldr.w	r4, [lr, #16]
 8002be8:	690e      	ldr	r6, [r1, #16]
 8002bea:	fbe0 6c64 	umaal	r6, ip, r0, r4
 8002bee:	611e      	str	r6, [r3, #16]
 8002bf0:	f8de 4014 	ldr.w	r4, [lr, #20]
 8002bf4:	694e      	ldr	r6, [r1, #20]
 8002bf6:	fbe0 6c64 	umaal	r6, ip, r0, r4
 8002bfa:	615e      	str	r6, [r3, #20]
 8002bfc:	f8de 4018 	ldr.w	r4, [lr, #24]
 8002c00:	698e      	ldr	r6, [r1, #24]
 8002c02:	fbe0 6c64 	umaal	r6, ip, r0, r4
 8002c06:	619e      	str	r6, [r3, #24]
 8002c08:	eb0c 0c55 	add.w	ip, ip, r5, lsr #1
 8002c0c:	f8c3 c01c 	str.w	ip, [r3, #28]
 8002c10:	ab5a      	add	r3, sp, #360	; 0x168
 8002c12:	a972      	add	r1, sp, #456	; 0x1c8
 8002c14:	469c      	mov	ip, r3
 8002c16:	f8dc 401c 	ldr.w	r4, [ip, #28]
 8002c1a:	69c8      	ldr	r0, [r1, #28]
 8002c1c:	4605      	mov	r5, r0
 8002c1e:	fbe4 4562 	umaal	r4, r5, r4, r2
 8002c22:	fbe0 4502 	umlal	r4, r5, r0, r2
 8002c26:	f04f 0013 	mov.w	r0, #19
 8002c2a:	fb05 f000 	mul.w	r0, r5, r0
 8002c2e:	f8dc 5000 	ldr.w	r5, [ip]
 8002c32:	680e      	ldr	r6, [r1, #0]
 8002c34:	fbe2 5660 	umaal	r5, r6, r2, r0
 8002c38:	601d      	str	r5, [r3, #0]
 8002c3a:	f8dc 0004 	ldr.w	r0, [ip, #4]
 8002c3e:	684d      	ldr	r5, [r1, #4]
 8002c40:	fbe2 5660 	umaal	r5, r6, r2, r0
 8002c44:	605d      	str	r5, [r3, #4]
 8002c46:	f8dc 0008 	ldr.w	r0, [ip, #8]
 8002c4a:	688d      	ldr	r5, [r1, #8]
 8002c4c:	fbe2 5660 	umaal	r5, r6, r2, r0
 8002c50:	609d      	str	r5, [r3, #8]
 8002c52:	f8dc 000c 	ldr.w	r0, [ip, #12]
 8002c56:	68cd      	ldr	r5, [r1, #12]
 8002c58:	fbe2 5660 	umaal	r5, r6, r2, r0
 8002c5c:	60dd      	str	r5, [r3, #12]
 8002c5e:	f8dc 0010 	ldr.w	r0, [ip, #16]
 8002c62:	690d      	ldr	r5, [r1, #16]
 8002c64:	fbe2 5660 	umaal	r5, r6, r2, r0
 8002c68:	611d      	str	r5, [r3, #16]
 8002c6a:	f8dc 0014 	ldr.w	r0, [ip, #20]
 8002c6e:	694d      	ldr	r5, [r1, #20]
 8002c70:	fbe2 5660 	umaal	r5, r6, r2, r0
 8002c74:	615d      	str	r5, [r3, #20]
 8002c76:	f8dc 0018 	ldr.w	r0, [ip, #24]
 8002c7a:	698d      	ldr	r5, [r1, #24]
 8002c7c:	fbe2 5660 	umaal	r5, r6, r2, r0
 8002c80:	619d      	str	r5, [r3, #24]
 8002c82:	eb06 0654 	add.w	r6, r6, r4, lsr #1
 8002c86:	61de      	str	r6, [r3, #28]
 8002c88:	a95a      	add	r1, sp, #360	; 0x168
 8002c8a:	a812      	add	r0, sp, #72	; 0x48
 8002c8c:	f000 fad4 	bl	8003238 <fe25519_squareroot>
 8002c90:	b1e0      	cbz	r0, 8002ccc <crypto_scalarmult_curve25519+0x1dc>
 8002c92:	f04f 31ff 	mov.w	r1, #4294967295	; 0xffffffff
 8002c96:	2220      	movs	r2, #32
 8002c98:	2300      	movs	r3, #0
 8002c9a:	a87a      	add	r0, sp, #488	; 0x1e8
 8002c9c:	9107      	str	r1, [sp, #28]
 8002c9e:	f7fd fe27 	bl	80008f0 <randombytes>
 8002ca2:	4638      	mov	r0, r7
 8002ca4:	a97a      	add	r1, sp, #488	; 0x1e8
 8002ca6:	f000 fa95 	bl	80031d4 <fe25519_pack>
 8002caa:	f7ff fe29 	bl	8002900 <update_static_key_curve25519>
 8002cae:	9807      	ldr	r0, [sp, #28]
 8002cb0:	f50d 7d2d 	add.w	sp, sp, #692	; 0x2b4
 8002cb4:	e8bd 83f0 	ldmia.w	sp!, {r4, r5, r6, r7, r8, r9, pc}
 8002cb8:	200000df 	.word	0x200000df
 8002cbc:	20000020 	.word	0x20000020
 8002cc0:	20000000 	.word	0x20000000
 8002cc4:	20000040 	.word	0x20000040
 8002cc8:	08003f98 	.word	0x08003f98
 8002ccc:	a909      	add	r1, sp, #36	; 0x24
 8002cce:	aa0c      	add	r2, sp, #48	; 0x30
 8002cd0:	4608      	mov	r0, r1
 8002cd2:	f7fe fcb7 	bl	8001644 <curve25519_addPoint>
 8002cd6:	a909      	add	r1, sp, #36	; 0x24
 8002cd8:	4608      	mov	r0, r1
 8002cda:	f7fd fe57 	bl	800098c <curve25519_doublePoint>
 8002cde:	a909      	add	r1, sp, #36	; 0x24
 8002ce0:	4608      	mov	r0, r1
 8002ce2:	f7fd fe53 	bl	800098c <curve25519_doublePoint>
 8002ce6:	a909      	add	r1, sp, #36	; 0x24
 8002ce8:	4608      	mov	r0, r1
 8002cea:	f7fd fe4f 	bl	800098c <curve25519_doublePoint>
 8002cee:	a89a      	add	r0, sp, #616	; 0x268
 8002cf0:	f000 f9fc 	bl	80030ec <fe25519_setzero>
 8002cf4:	2208      	movs	r2, #8
 8002cf6:	2300      	movs	r3, #0
 8002cf8:	a89a      	add	r0, sp, #616	; 0x268
 8002cfa:	f7fd fdf9 	bl	80008f0 <randombytes>
 8002cfe:	e9dd 239a 	ldrd	r2, r3, [sp, #616]	; 0x268
 8002d02:	4313      	orrs	r3, r2
 8002d04:	d0f6      	beq.n	8002cf4 <crypto_scalarmult_curve25519+0x204>
 8002d06:	2300      	movs	r3, #0
 8002d08:	2240      	movs	r2, #64	; 0x40
 8002d0a:	a862      	add	r0, sp, #392	; 0x188
 8002d0c:	f7fd fdf0 	bl	80008f0 <randombytes>
 8002d10:	a832      	add	r0, sp, #200	; 0xc8
 8002d12:	a962      	add	r1, sp, #392	; 0x188
 8002d14:	f7fd faaa 	bl	800026c <fe25519_reduceTo256Bits_asm>
 8002d18:	aa32      	add	r2, sp, #200	; 0xc8
 8002d1a:	a99a      	add	r1, sp, #616	; 0x268
 8002d1c:	a822      	add	r0, sp, #136	; 0x88
 8002d1e:	f000 fdf3 	bl	8003908 <sc25519_mul>
 8002d22:	a922      	add	r1, sp, #136	; 0x88
 8002d24:	4608      	mov	r0, r1
 8002d26:	f000 ff35 	bl	8003b94 <sc25519_inverse>
 8002d2a:	ada2      	add	r5, sp, #648	; 0x288
 8002d2c:	aa32      	add	r2, sp, #200	; 0xc8
 8002d2e:	a922      	add	r1, sp, #136	; 0x88
 8002d30:	a82a      	add	r0, sp, #168	; 0xa8
 8002d32:	f000 fde9 	bl	8003908 <sc25519_mul>
 8002d36:	aa2a      	add	r2, sp, #168	; 0xa8
 8002d38:	4629      	mov	r1, r5
 8002d3a:	4628      	mov	r0, r5
 8002d3c:	f000 fde4 	bl	8003908 <sc25519_mul>
 8002d40:	4ab6      	ldr	r2, [pc, #728]	; (800301c <crypto_scalarmult_curve25519+0x52c>)
 8002d42:	4629      	mov	r1, r5
 8002d44:	4628      	mov	r0, r5
 8002d46:	f000 fddf 	bl	8003908 <sc25519_mul>
 8002d4a:	2300      	movs	r3, #0
 8002d4c:	aa08      	add	r2, sp, #32
 8002d4e:	6813      	ldr	r3, [r2, #0]
 8002d50:	f103 03a3 	add.w	r3, r3, #163	; 0xa3
 8002d54:	6013      	str	r3, [r2, #0]
 8002d56:	a982      	add	r1, sp, #520	; 0x208
 8002d58:	ab72      	add	r3, sp, #456	; 0x1c8
 8002d5a:	4608      	mov	r0, r1
 8002d5c:	9300      	str	r3, [sp, #0]
 8002d5e:	aa8a      	add	r2, sp, #552	; 0x228
 8002d60:	ab92      	add	r3, sp, #584	; 0x248
 8002d62:	f000 fb87 	bl	8003474 <fe25519_invert_useProvidedScratchBuffers>
 8002d66:	a97a      	add	r1, sp, #488	; 0x1e8
 8002d68:	4608      	mov	r0, r1
 8002d6a:	aa82      	add	r2, sp, #520	; 0x208
 8002d6c:	f7fd fbd8 	bl	8000520 <fe25519_mul_asm>
 8002d70:	a87a      	add	r0, sp, #488	; 0x1e8
 8002d72:	f000 f9f5 	bl	8003160 <fe25519_reduceCompletely>
 8002d76:	a912      	add	r1, sp, #72	; 0x48
 8002d78:	aa82      	add	r2, sp, #520	; 0x208
 8002d7a:	4608      	mov	r0, r1
 8002d7c:	f7fd fbd0 	bl	8000520 <fe25519_mul_asm>
 8002d80:	a97a      	add	r1, sp, #488	; 0x1e8
 8002d82:	a872      	add	r0, sp, #456	; 0x1c8
 8002d84:	f000 f9a8 	bl	80030d8 <fe25519_cpy>
 8002d88:	2240      	movs	r2, #64	; 0x40
 8002d8a:	2300      	movs	r3, #0
 8002d8c:	a862      	add	r0, sp, #392	; 0x188
 8002d8e:	f7fd fdaf 	bl	80008f0 <randombytes>
 8002d92:	a962      	add	r1, sp, #392	; 0x188
 8002d94:	a892      	add	r0, sp, #584	; 0x248
 8002d96:	f7fd fa69 	bl	800026c <fe25519_reduceTo256Bits_asm>
 8002d9a:	a892      	add	r0, sp, #584	; 0x248
 8002d9c:	f000 f9e0 	bl	8003160 <fe25519_reduceCompletely>
 8002da0:	f89d 3267 	ldrb.w	r3, [sp, #615]	; 0x267
 8002da4:	a992      	add	r1, sp, #584	; 0x248
 8002da6:	f063 037f 	orn	r3, r3, #127	; 0x7f
 8002daa:	aa72      	add	r2, sp, #456	; 0x1c8
 8002dac:	a88a      	add	r0, sp, #552	; 0x228
 8002dae:	f88d 3267 	strb.w	r3, [sp, #615]	; 0x267
 8002db2:	f7fd fbb5 	bl	8000520 <fe25519_mul_asm>
 8002db6:	a87a      	add	r0, sp, #488	; 0x1e8
 8002db8:	f000 f9a2 	bl	8003100 <fe25519_setone>
 8002dbc:	a882      	add	r0, sp, #520	; 0x208
 8002dbe:	f000 f995 	bl	80030ec <fe25519_setzero>
 8002dc2:	aca9      	add	r4, sp, #676	; 0x2a4
 8002dc4:	23fd      	movs	r3, #253	; 0xfd
 8002dc6:	93aa      	str	r3, [sp, #680]	; 0x2a8
 8002dc8:	4621      	mov	r1, r4
 8002dca:	680a      	ldr	r2, [r1, #0]
 8002dcc:	f851 3d04 	ldr.w	r3, [r1, #-4]!
 8002dd0:	0c1b      	lsrs	r3, r3, #16
 8002dd2:	ea43 4302 	orr.w	r3, r3, r2, lsl #16
 8002dd6:	ea83 0343 	eor.w	r3, r3, r3, lsl #1
 8002dda:	ea82 0242 	eor.w	r2, r2, r2, lsl #1
 8002dde:	0c1b      	lsrs	r3, r3, #16
 8002de0:	0c12      	lsrs	r2, r2, #16
 8002de2:	428d      	cmp	r5, r1
 8002de4:	808b      	strh	r3, [r1, #4]
 8002de6:	80ca      	strh	r2, [r1, #6]
 8002de8:	d1ef      	bne.n	8002dca <crypto_scalarmult_curve25519+0x2da>
 8002dea:	99a2      	ldr	r1, [sp, #648]	; 0x288
 8002dec:	2220      	movs	r2, #32
 8002dee:	ea81 0141 	eor.w	r1, r1, r1, lsl #1
 8002df2:	a83a      	add	r0, sp, #232	; 0xe8
 8002df4:	2300      	movs	r3, #0
 8002df6:	91a2      	str	r1, [sp, #648]	; 0x288
 8002df8:	f7fd fd7a 	bl	80008f0 <randombytes>
 8002dfc:	f89d 3107 	ldrb.w	r3, [sp, #263]	; 0x107
 8002e00:	ad42      	add	r5, sp, #264	; 0x108
 8002e02:	f003 033f 	and.w	r3, r3, #63	; 0x3f
 8002e06:	4628      	mov	r0, r5
 8002e08:	a93a      	add	r1, sp, #232	; 0xe8
 8002e0a:	f88d 3107 	strb.w	r3, [sp, #263]	; 0x107
 8002e0e:	f000 fcc1 	bl	8003794 <cpy_256bitvalue>
 8002e12:	69eb      	ldr	r3, [r5, #28]
 8002e14:	005b      	lsls	r3, r3, #1
 8002e16:	61eb      	str	r3, [r5, #28]
 8002e18:	a841      	add	r0, sp, #260	; 0x104
 8002e1a:	aa49      	add	r2, sp, #292	; 0x124
 8002e1c:	f852 6c04 	ldr.w	r6, [r2, #-4]
 8002e20:	f850 1904 	ldr.w	r1, [r0], #-4
 8002e24:	ea43 73d6 	orr.w	r3, r3, r6, lsr #31
 8002e28:	6013      	str	r3, [r2, #0]
 8002e2a:	6826      	ldr	r6, [r4, #0]
 8002e2c:	f852 3d04 	ldr.w	r3, [r2, #-4]!
 8002e30:	4071      	eors	r1, r6
 8002e32:	005b      	lsls	r3, r3, #1
 8002e34:	4295      	cmp	r5, r2
 8002e36:	f844 1904 	str.w	r1, [r4], #-4
 8002e3a:	6013      	str	r3, [r2, #0]
 8002e3c:	d1ee      	bne.n	8002e1c <crypto_scalarmult_curve25519+0x32c>
 8002e3e:	9a3a      	ldr	r2, [sp, #232]	; 0xe8
 8002e40:	9ba2      	ldr	r3, [sp, #648]	; 0x288
 8002e42:	2600      	movs	r6, #0
 8002e44:	4053      	eors	r3, r2
 8002e46:	93a2      	str	r3, [sp, #648]	; 0x288
 8002e48:	aa08      	add	r2, sp, #32
 8002e4a:	4633      	mov	r3, r6
 8002e4c:	6813      	ldr	r3, [r2, #0]
 8002e4e:	f103 03a3 	add.w	r3, r3, #163	; 0xa3
 8002e52:	6013      	str	r3, [r2, #0]
 8002e54:	221e      	movs	r2, #30
 8002e56:	69e9      	ldr	r1, [r5, #28]
 8002e58:	a872      	add	r0, sp, #456	; 0x1c8
 8002e5a:	f7ff fd29 	bl	80028b0 <maskScalarBitsWithRandomAndCswap>
 8002e5e:	9aaa      	ldr	r2, [sp, #680]	; 0x2a8
 8002e60:	42b2      	cmp	r2, r6
 8002e62:	db23      	blt.n	8002eac <crypto_scalarmult_curve25519+0x3bc>
 8002e64:	f3c2 1447 	ubfx	r4, r2, #5, #8
 8002e68:	abac      	add	r3, sp, #688	; 0x2b0
 8002e6a:	eb03 0384 	add.w	r3, r3, r4, lsl #2
 8002e6e:	f002 081f 	and.w	r8, r2, #31
 8002e72:	f853 1c28 	ldr.w	r1, [r3, #-40]
 8002e76:	a872      	add	r0, sp, #456	; 0x1c8
 8002e78:	4642      	mov	r2, r8
 8002e7a:	f7ff fd19 	bl	80028b0 <maskScalarBitsWithRandomAndCswap>
 8002e7e:	9baa      	ldr	r3, [sp, #680]	; 0x2a8
 8002e80:	2b00      	cmp	r3, #0
 8002e82:	a872      	add	r0, sp, #456	; 0x1c8
 8002e84:	dd0e      	ble.n	8002ea4 <crypto_scalarmult_curve25519+0x3b4>
 8002e86:	f7fe ff4f 	bl	8001d28 <curve25519_ladderstep>
 8002e8a:	4633      	mov	r3, r6
 8002e8c:	a908      	add	r1, sp, #32
 8002e8e:	680b      	ldr	r3, [r1, #0]
 8002e90:	f103 0309 	add.w	r3, r3, #9
 8002e94:	600b      	str	r3, [r1, #0]
 8002e96:	f855 1024 	ldr.w	r1, [r5, r4, lsl #2]
 8002e9a:	4642      	mov	r2, r8
 8002e9c:	a872      	add	r0, sp, #456	; 0x1c8
 8002e9e:	f7ff fd07 	bl	80028b0 <maskScalarBitsWithRandomAndCswap>
 8002ea2:	9baa      	ldr	r3, [sp, #680]	; 0x2a8
 8002ea4:	1e5a      	subs	r2, r3, #1
 8002ea6:	2a00      	cmp	r2, #0
 8002ea8:	92aa      	str	r2, [sp, #680]	; 0x2a8
 8002eaa:	dadb      	bge.n	8002e64 <crypto_scalarmult_curve25519+0x374>
 8002eac:	ab12      	add	r3, sp, #72	; 0x48
 8002eae:	9302      	str	r3, [sp, #8]
 8002eb0:	ab72      	add	r3, sp, #456	; 0x1c8
 8002eb2:	f10d 0868 	add.w	r8, sp, #104	; 0x68
 8002eb6:	9301      	str	r3, [sp, #4]
 8002eb8:	ab92      	add	r3, sp, #584	; 0x248
 8002eba:	9300      	str	r3, [sp, #0]
 8002ebc:	4640      	mov	r0, r8
 8002ebe:	ab8a      	add	r3, sp, #552	; 0x228
 8002ec0:	aa82      	add	r2, sp, #520	; 0x208
 8002ec2:	a97a      	add	r1, sp, #488	; 0x1e8
 8002ec4:	f7ff fa12 	bl	80022ec <computeY_curve25519_projective>
 8002ec8:	a982      	add	r1, sp, #520	; 0x208
 8002eca:	ab72      	add	r3, sp, #456	; 0x1c8
 8002ecc:	9300      	str	r3, [sp, #0]
 8002ece:	aa8a      	add	r2, sp, #552	; 0x228
 8002ed0:	ab92      	add	r3, sp, #584	; 0x248
 8002ed2:	4608      	mov	r0, r1
 8002ed4:	f000 face 	bl	8003474 <fe25519_invert_useProvidedScratchBuffers>
 8002ed8:	a97a      	add	r1, sp, #488	; 0x1e8
 8002eda:	aa82      	add	r2, sp, #520	; 0x208
 8002edc:	4608      	mov	r0, r1
 8002ede:	f7fd fb1f 	bl	8000520 <fe25519_mul_asm>
 8002ee2:	a87a      	add	r0, sp, #488	; 0x1e8
 8002ee4:	f000 f93c 	bl	8003160 <fe25519_reduceCompletely>
 8002ee8:	aa82      	add	r2, sp, #520	; 0x208
 8002eea:	4641      	mov	r1, r8
 8002eec:	4640      	mov	r0, r8
 8002eee:	f7fd fb17 	bl	8000520 <fe25519_mul_asm>
 8002ef2:	a97a      	add	r1, sp, #488	; 0x1e8
 8002ef4:	a872      	add	r0, sp, #456	; 0x1c8
 8002ef6:	f000 f8ef 	bl	80030d8 <fe25519_cpy>
 8002efa:	2240      	movs	r2, #64	; 0x40
 8002efc:	2300      	movs	r3, #0
 8002efe:	a862      	add	r0, sp, #392	; 0x188
 8002f00:	f7fd fcf6 	bl	80008f0 <randombytes>
 8002f04:	a962      	add	r1, sp, #392	; 0x188
 8002f06:	a892      	add	r0, sp, #584	; 0x248
 8002f08:	f7fd f9b0 	bl	800026c <fe25519_reduceTo256Bits_asm>
 8002f0c:	a892      	add	r0, sp, #584	; 0x248
 8002f0e:	f000 f927 	bl	8003160 <fe25519_reduceCompletely>
 8002f12:	f89d 3267 	ldrb.w	r3, [sp, #615]	; 0x267
 8002f16:	aa72      	add	r2, sp, #456	; 0x1c8
 8002f18:	f063 037f 	orn	r3, r3, #127	; 0x7f
 8002f1c:	a992      	add	r1, sp, #584	; 0x248
 8002f1e:	a88a      	add	r0, sp, #552	; 0x228
 8002f20:	f88d 3267 	strb.w	r3, [sp, #615]	; 0x267
 8002f24:	f7fd fafc 	bl	8000520 <fe25519_mul_asm>
 8002f28:	a87a      	add	r0, sp, #488	; 0x1e8
 8002f2a:	f000 f8e9 	bl	8003100 <fe25519_setone>
 8002f2e:	a882      	add	r0, sp, #520	; 0x208
 8002f30:	f000 f8dc 	bl	80030ec <fe25519_setzero>
 8002f34:	e9dd 309a 	ldrd	r3, r0, [sp, #616]	; 0x268
 8002f38:	9c9c      	ldr	r4, [sp, #624]	; 0x270
 8002f3a:	0fc1      	lsrs	r1, r0, #31
 8002f3c:	0fda      	lsrs	r2, r3, #31
 8002f3e:	ea41 0144 	orr.w	r1, r1, r4, lsl #1
 8002f42:	ea42 0240 	orr.w	r2, r2, r0, lsl #1
 8002f46:	4061      	eors	r1, r4
 8002f48:	4042      	eors	r2, r0
 8002f4a:	ea83 0343 	eor.w	r3, r3, r3, lsl #1
 8002f4e:	a84a      	add	r0, sp, #296	; 0x128
 8002f50:	2440      	movs	r4, #64	; 0x40
 8002f52:	e9cd 219b 	strd	r2, r1, [sp, #620]	; 0x26c
 8002f56:	939a      	str	r3, [sp, #616]	; 0x268
 8002f58:	94aa      	str	r4, [sp, #680]	; 0x2a8
 8002f5a:	f000 f8c7 	bl	80030ec <fe25519_setzero>
 8002f5e:	a84a      	add	r0, sp, #296	; 0x128
 8002f60:	220c      	movs	r2, #12
 8002f62:	2300      	movs	r3, #0
 8002f64:	f7fd fcc4 	bl	80008f0 <randombytes>
 8002f68:	f89d 312a 	ldrb.w	r3, [sp, #298]	; 0x12a
 8002f6c:	ad52      	add	r5, sp, #328	; 0x148
 8002f6e:	f003 0301 	and.w	r3, r3, #1
 8002f72:	a94a      	add	r1, sp, #296	; 0x128
 8002f74:	4628      	mov	r0, r5
 8002f76:	f88d 312a 	strb.w	r3, [sp, #298]	; 0x12a
 8002f7a:	f000 fc0b 	bl	8003794 <cpy_256bitvalue>
 8002f7e:	e9d5 3600 	ldrd	r3, r6, [r5]
 8002f82:	68ac      	ldr	r4, [r5, #8]
 8002f84:	9a4c      	ldr	r2, [sp, #304]	; 0x130
 8002f86:	989c      	ldr	r0, [sp, #624]	; 0x270
 8002f88:	0ff1      	lsrs	r1, r6, #31
 8002f8a:	ea41 0144 	orr.w	r1, r1, r4, lsl #1
 8002f8e:	4050      	eors	r0, r2
 8002f90:	60a9      	str	r1, [r5, #8]
 8002f92:	e9dd 424a 	ldrd	r4, r2, [sp, #296]	; 0x128
 8002f96:	0fd9      	lsrs	r1, r3, #31
 8002f98:	ea41 0146 	orr.w	r1, r1, r6, lsl #1
 8002f9c:	9e9b      	ldr	r6, [sp, #620]	; 0x26c
 8002f9e:	6069      	str	r1, [r5, #4]
 8002fa0:	ea86 0102 	eor.w	r1, r6, r2
 8002fa4:	9a9a      	ldr	r2, [sp, #616]	; 0x268
 8002fa6:	005b      	lsls	r3, r3, #1
 8002fa8:	4062      	eors	r2, r4
 8002faa:	2600      	movs	r6, #0
 8002fac:	602b      	str	r3, [r5, #0]
 8002fae:	929a      	str	r2, [sp, #616]	; 0x268
 8002fb0:	e9cd 109b 	strd	r1, r0, [sp, #620]	; 0x26c
 8002fb4:	4633      	mov	r3, r6
 8002fb6:	aa08      	add	r2, sp, #32
 8002fb8:	6813      	ldr	r3, [r2, #0]
 8002fba:	f103 03a3 	add.w	r3, r3, #163	; 0xa3
 8002fbe:	6013      	str	r3, [r2, #0]
 8002fc0:	2201      	movs	r2, #1
 8002fc2:	68a9      	ldr	r1, [r5, #8]
 8002fc4:	a872      	add	r0, sp, #456	; 0x1c8
 8002fc6:	f7ff fc73 	bl	80028b0 <maskScalarBitsWithRandomAndCswap>
 8002fca:	9aaa      	ldr	r2, [sp, #680]	; 0x2a8
 8002fcc:	42b2      	cmp	r2, r6
 8002fce:	db27      	blt.n	8003020 <crypto_scalarmult_curve25519+0x530>
 8002fd0:	f3c2 1447 	ubfx	r4, r2, #5, #8
 8002fd4:	abac      	add	r3, sp, #688	; 0x2b0
 8002fd6:	eb03 0384 	add.w	r3, r3, r4, lsl #2
 8002fda:	f002 091f 	and.w	r9, r2, #31
 8002fde:	f853 1c48 	ldr.w	r1, [r3, #-72]
 8002fe2:	a872      	add	r0, sp, #456	; 0x1c8
 8002fe4:	464a      	mov	r2, r9
 8002fe6:	f7ff fc63 	bl	80028b0 <maskScalarBitsWithRandomAndCswap>
 8002fea:	9baa      	ldr	r3, [sp, #680]	; 0x2a8
 8002fec:	2b00      	cmp	r3, #0
 8002fee:	a872      	add	r0, sp, #456	; 0x1c8
 8002ff0:	dd0e      	ble.n	8003010 <crypto_scalarmult_curve25519+0x520>
 8002ff2:	f7fe fe99 	bl	8001d28 <curve25519_ladderstep>
 8002ff6:	4633      	mov	r3, r6
 8002ff8:	a908      	add	r1, sp, #32
 8002ffa:	680b      	ldr	r3, [r1, #0]
 8002ffc:	f103 0309 	add.w	r3, r3, #9
 8003000:	600b      	str	r3, [r1, #0]
 8003002:	f855 1024 	ldr.w	r1, [r5, r4, lsl #2]
 8003006:	464a      	mov	r2, r9
 8003008:	a872      	add	r0, sp, #456	; 0x1c8
 800300a:	f7ff fc51 	bl	80028b0 <maskScalarBitsWithRandomAndCswap>
 800300e:	9baa      	ldr	r3, [sp, #680]	; 0x2a8
 8003010:	1e5a      	subs	r2, r3, #1
 8003012:	2a00      	cmp	r2, #0
 8003014:	92aa      	str	r2, [sp, #680]	; 0x2a8
 8003016:	dadb      	bge.n	8002fd0 <crypto_scalarmult_curve25519+0x4e0>
 8003018:	e002      	b.n	8003020 <crypto_scalarmult_curve25519+0x530>
 800301a:	bf00      	nop
 800301c:	200000c0 	.word	0x200000c0
 8003020:	ab72      	add	r3, sp, #456	; 0x1c8
 8003022:	9301      	str	r3, [sp, #4]
 8003024:	ab92      	add	r3, sp, #584	; 0x248
 8003026:	9300      	str	r3, [sp, #0]
 8003028:	aa82      	add	r2, sp, #520	; 0x208
 800302a:	ab8a      	add	r3, sp, #552	; 0x228
 800302c:	a97a      	add	r1, sp, #488	; 0x1e8
 800302e:	a812      	add	r0, sp, #72	; 0x48
 8003030:	ac7a      	add	r4, sp, #488	; 0x1e8
 8003032:	f8cd 8008 	str.w	r8, [sp, #8]
 8003036:	f7ff f959 	bl	80022ec <computeY_curve25519_projective>
 800303a:	4a1b      	ldr	r2, [pc, #108]	; (80030a8 <crypto_scalarmult_curve25519+0x5b8>)
 800303c:	9409      	str	r4, [sp, #36]	; 0x24
 800303e:	ac12      	add	r4, sp, #72	; 0x48
 8003040:	4b1a      	ldr	r3, [pc, #104]	; (80030ac <crypto_scalarmult_curve25519+0x5bc>)
 8003042:	940a      	str	r4, [sp, #40]	; 0x28
 8003044:	a85a      	add	r0, sp, #360	; 0x168
 8003046:	491a      	ldr	r1, [pc, #104]	; (80030b0 <crypto_scalarmult_curve25519+0x5c0>)
 8003048:	9311      	str	r3, [sp, #68]	; 0x44
 800304a:	ac82      	add	r4, sp, #520	; 0x208
 800304c:	e9cd 200f 	strd	r2, r0, [sp, #60]	; 0x3c
 8003050:	940b      	str	r4, [sp, #44]	; 0x2c
 8003052:	f000 f841 	bl	80030d8 <fe25519_cpy>
 8003056:	9910      	ldr	r1, [sp, #64]	; 0x40
 8003058:	4608      	mov	r0, r1
 800305a:	f000 f85d 	bl	8003118 <fe25519_neg>
 800305e:	a909      	add	r1, sp, #36	; 0x24
 8003060:	aa0f      	add	r2, sp, #60	; 0x3c
 8003062:	4608      	mov	r0, r1
 8003064:	f7fe faee 	bl	8001644 <curve25519_addPoint>
 8003068:	a982      	add	r1, sp, #520	; 0x208
 800306a:	ab72      	add	r3, sp, #456	; 0x1c8
 800306c:	9300      	str	r3, [sp, #0]
 800306e:	aa8a      	add	r2, sp, #552	; 0x228
 8003070:	ab92      	add	r3, sp, #584	; 0x248
 8003072:	4608      	mov	r0, r1
 8003074:	f000 f9fe 	bl	8003474 <fe25519_invert_useProvidedScratchBuffers>
 8003078:	a97a      	add	r1, sp, #488	; 0x1e8
 800307a:	aa82      	add	r2, sp, #520	; 0x208
 800307c:	4608      	mov	r0, r1
 800307e:	f7fd fa4f 	bl	8000520 <fe25519_mul_asm>
 8003082:	a87a      	add	r0, sp, #488	; 0x1e8
 8003084:	f000 f86c 	bl	8003160 <fe25519_reduceCompletely>
 8003088:	2100      	movs	r1, #0
 800308a:	460b      	mov	r3, r1
 800308c:	aa08      	add	r2, sp, #32
 800308e:	6813      	ldr	r3, [r2, #0]
 8003090:	f103 03a3 	add.w	r3, r3, #163	; 0xa3
 8003094:	6013      	str	r3, [r2, #0]
 8003096:	9a08      	ldr	r2, [sp, #32]
 8003098:	f640 63da 	movw	r3, #3802	; 0xeda
 800309c:	429a      	cmp	r2, r3
 800309e:	f47f adf8 	bne.w	8002c92 <crypto_scalarmult_curve25519+0x1a2>
 80030a2:	9107      	str	r1, [sp, #28]
 80030a4:	e5fd      	b.n	8002ca2 <crypto_scalarmult_curve25519+0x1b2>
 80030a6:	bf00      	nop
 80030a8:	20000060 	.word	0x20000060
 80030ac:	200000a0 	.word	0x200000a0
 80030b0:	20000080 	.word	0x20000080

080030b4 <fe25519_unpack>:
 80030b4:	b410      	push	{r4}
 80030b6:	1e4b      	subs	r3, r1, #1
 80030b8:	f101 041f 	add.w	r4, r1, #31
 80030bc:	1e42      	subs	r2, r0, #1
 80030be:	f813 1f01 	ldrb.w	r1, [r3, #1]!
 80030c2:	f802 1f01 	strb.w	r1, [r2, #1]!
 80030c6:	42a3      	cmp	r3, r4
 80030c8:	d1f9      	bne.n	80030be <fe25519_unpack+0xa>
 80030ca:	7fc3      	ldrb	r3, [r0, #31]
 80030cc:	f85d 4b04 	ldr.w	r4, [sp], #4
 80030d0:	f003 037f 	and.w	r3, r3, #127	; 0x7f
 80030d4:	77c3      	strb	r3, [r0, #31]
 80030d6:	4770      	bx	lr

080030d8 <fe25519_cpy>:
 80030d8:	1f0b      	subs	r3, r1, #4
 80030da:	3804      	subs	r0, #4
 80030dc:	311c      	adds	r1, #28
 80030de:	f853 2f04 	ldr.w	r2, [r3, #4]!
 80030e2:	f840 2f04 	str.w	r2, [r0, #4]!
 80030e6:	428b      	cmp	r3, r1
 80030e8:	d1f9      	bne.n	80030de <fe25519_cpy+0x6>
 80030ea:	4770      	bx	lr

080030ec <fe25519_setzero>:
 80030ec:	2300      	movs	r3, #0
 80030ee:	e9c0 3300 	strd	r3, r3, [r0]
 80030f2:	e9c0 3302 	strd	r3, r3, [r0, #8]
 80030f6:	e9c0 3304 	strd	r3, r3, [r0, #16]
 80030fa:	e9c0 3306 	strd	r3, r3, [r0, #24]
 80030fe:	4770      	bx	lr

08003100 <fe25519_setone>:
 8003100:	2300      	movs	r3, #0
 8003102:	2201      	movs	r2, #1
 8003104:	e9c0 2300 	strd	r2, r3, [r0]
 8003108:	e9c0 3302 	strd	r3, r3, [r0, #8]
 800310c:	e9c0 3304 	strd	r3, r3, [r0, #16]
 8003110:	e9c0 3306 	strd	r3, r3, [r0, #24]
 8003114:	4770      	bx	lr
 8003116:	bf00      	nop

08003118 <fe25519_neg>:
 8003118:	b5f0      	push	{r4, r5, r6, r7, lr}
 800311a:	69cc      	ldr	r4, [r1, #28]
 800311c:	4264      	negs	r4, r4
 800311e:	eb65 0505 	sbc.w	r5, r5, r5
 8003122:	0fe2      	lsrs	r2, r4, #31
 8003124:	ea42 0245 	orr.w	r2, r2, r5, lsl #1
 8003128:	3a01      	subs	r2, #1
 800312a:	eb02 03c2 	add.w	r3, r2, r2, lsl #3
 800312e:	eb02 0243 	add.w	r2, r2, r3, lsl #1
 8003132:	1f0e      	subs	r6, r1, #4
 8003134:	f101 0c18 	add.w	ip, r1, #24
 8003138:	f044 4e00 	orr.w	lr, r4, #2147483648	; 0x80000000
 800313c:	17d3      	asrs	r3, r2, #31
 800313e:	1f01      	subs	r1, r0, #4
 8003140:	f856 7f04 	ldr.w	r7, [r6, #4]!
 8003144:	1bd4      	subs	r4, r2, r7
 8003146:	f163 0500 	sbc.w	r5, r3, #0
 800314a:	4566      	cmp	r6, ip
 800314c:	f841 4f04 	str.w	r4, [r1, #4]!
 8003150:	462a      	mov	r2, r5
 8003152:	ea4f 73e5 	mov.w	r3, r5, asr #31
 8003156:	d1f3      	bne.n	8003140 <fe25519_neg+0x28>
 8003158:	eb15 020e 	adds.w	r2, r5, lr
 800315c:	61c2      	str	r2, [r0, #28]
 800315e:	bdf0      	pop	{r4, r5, r6, r7, pc}

08003160 <fe25519_reduceCompletely>:
 8003160:	e92d 03f0 	stmdb	sp!, {r4, r5, r6, r7, r8, r9}
 8003164:	69c7      	ldr	r7, [r0, #28]
 8003166:	0ffa      	lsrs	r2, r7, #31
 8003168:	3201      	adds	r2, #1
 800316a:	eb02 03c2 	add.w	r3, r2, r2, lsl #3
 800316e:	1f01      	subs	r1, r0, #4
 8003170:	eb02 0243 	add.w	r2, r2, r3, lsl #1
 8003174:	460c      	mov	r4, r1
 8003176:	2300      	movs	r3, #0
 8003178:	f100 0618 	add.w	r6, r0, #24
 800317c:	f854 5f04 	ldr.w	r5, [r4, #4]!
 8003180:	eb12 0805 	adds.w	r8, r2, r5
 8003184:	f143 0900 	adc.w	r9, r3, #0
 8003188:	42a6      	cmp	r6, r4
 800318a:	464a      	mov	r2, r9
 800318c:	f04f 0300 	mov.w	r3, #0
 8003190:	d1f4      	bne.n	800317c <fe25519_reduceCompletely+0x1c>
 8003192:	eb19 0207 	adds.w	r2, r9, r7
 8003196:	f143 0300 	adc.w	r3, r3, #0
 800319a:	0fd4      	lsrs	r4, r2, #31
 800319c:	ea44 0443 	orr.w	r4, r4, r3, lsl #1
 80031a0:	eb04 03c4 	add.w	r3, r4, r4, lsl #3
 80031a4:	eb04 0243 	add.w	r2, r4, r3, lsl #1
 80031a8:	46bc      	mov	ip, r7
 80031aa:	2300      	movs	r3, #0
 80031ac:	f851 7f04 	ldr.w	r7, [r1, #4]!
 80031b0:	19d4      	adds	r4, r2, r7
 80031b2:	f143 0500 	adc.w	r5, r3, #0
 80031b6:	428e      	cmp	r6, r1
 80031b8:	462a      	mov	r2, r5
 80031ba:	600c      	str	r4, [r1, #0]
 80031bc:	f04f 0300 	mov.w	r3, #0
 80031c0:	d1f4      	bne.n	80031ac <fe25519_reduceCompletely+0x4c>
 80031c2:	eb1c 0205 	adds.w	r2, ip, r5
 80031c6:	f022 4200 	bic.w	r2, r2, #2147483648	; 0x80000000
 80031ca:	e8bd 03f0 	ldmia.w	sp!, {r4, r5, r6, r7, r8, r9}
 80031ce:	61c2      	str	r2, [r0, #28]
 80031d0:	4770      	bx	lr
 80031d2:	bf00      	nop

080031d4 <fe25519_pack>:
 80031d4:	b538      	push	{r3, r4, r5, lr}
 80031d6:	460d      	mov	r5, r1
 80031d8:	4604      	mov	r4, r0
 80031da:	4608      	mov	r0, r1
 80031dc:	f7ff ffc0 	bl	8003160 <fe25519_reduceCompletely>
 80031e0:	1e62      	subs	r2, r4, #1
 80031e2:	1e6b      	subs	r3, r5, #1
 80031e4:	f105 001f 	add.w	r0, r5, #31
 80031e8:	f813 1f01 	ldrb.w	r1, [r3, #1]!
 80031ec:	f802 1f01 	strb.w	r1, [r2, #1]!
 80031f0:	4283      	cmp	r3, r0
 80031f2:	d1f9      	bne.n	80031e8 <fe25519_pack+0x14>
 80031f4:	bd38      	pop	{r3, r4, r5, pc}
 80031f6:	bf00      	nop

080031f8 <fe25519_iseq_vartime>:
 80031f8:	b538      	push	{r3, r4, r5, lr}
 80031fa:	69c2      	ldr	r2, [r0, #28]
 80031fc:	69cb      	ldr	r3, [r1, #28]
 80031fe:	429a      	cmp	r2, r3
 8003200:	460c      	mov	r4, r1
 8003202:	4605      	mov	r5, r0
 8003204:	d10d      	bne.n	8003222 <fe25519_iseq_vartime+0x2a>
 8003206:	1f21      	subs	r1, r4, #4
 8003208:	1f2b      	subs	r3, r5, #4
 800320a:	f105 0018 	add.w	r0, r5, #24
 800320e:	f853 4f04 	ldr.w	r4, [r3, #4]!
 8003212:	f851 2f04 	ldr.w	r2, [r1, #4]!
 8003216:	4294      	cmp	r4, r2
 8003218:	d10c      	bne.n	8003234 <fe25519_iseq_vartime+0x3c>
 800321a:	4283      	cmp	r3, r0
 800321c:	d1f7      	bne.n	800320e <fe25519_iseq_vartime+0x16>
 800321e:	2001      	movs	r0, #1
 8003220:	bd38      	pop	{r3, r4, r5, pc}
 8003222:	f7ff ff9d 	bl	8003160 <fe25519_reduceCompletely>
 8003226:	4620      	mov	r0, r4
 8003228:	f7ff ff9a 	bl	8003160 <fe25519_reduceCompletely>
 800322c:	69ea      	ldr	r2, [r5, #28]
 800322e:	69e3      	ldr	r3, [r4, #28]
 8003230:	429a      	cmp	r2, r3
 8003232:	d0e8      	beq.n	8003206 <fe25519_iseq_vartime+0xe>
 8003234:	2000      	movs	r0, #0
 8003236:	bd38      	pop	{r3, r4, r5, pc}

08003238 <fe25519_squareroot>:
 8003238:	e92d 43f0 	stmdb	sp!, {r4, r5, r6, r7, r8, r9, lr}
 800323c:	4e8c      	ldr	r6, [pc, #560]	; (8003470 <fe25519_squareroot+0x238>)
 800323e:	4689      	mov	r9, r1
 8003240:	4605      	mov	r5, r0
 8003242:	ce0f      	ldmia	r6!, {r0, r1, r2, r3}
 8003244:	b0a9      	sub	sp, #164	; 0xa4
 8003246:	ac18      	add	r4, sp, #96	; 0x60
 8003248:	c40f      	stmia	r4!, {r0, r1, r2, r3}
 800324a:	e896 000f 	ldmia.w	r6, {r0, r1, r2, r3}
 800324e:	f1a9 0704 	sub.w	r7, r9, #4
 8003252:	f1ad 0804 	sub.w	r8, sp, #4
 8003256:	e884 000f 	stmia.w	r4, {r0, r1, r2, r3}
 800325a:	f109 061c 	add.w	r6, r9, #28
 800325e:	463b      	mov	r3, r7
 8003260:	4642      	mov	r2, r8
 8003262:	f853 1f04 	ldr.w	r1, [r3, #4]!
 8003266:	f842 1f04 	str.w	r1, [r2, #4]!
 800326a:	429e      	cmp	r6, r3
 800326c:	d1f9      	bne.n	8003262 <fe25519_squareroot+0x2a>
 800326e:	2300      	movs	r3, #0
 8003270:	2201      	movs	r2, #1
 8003272:	e9cd 2310 	strd	r2, r3, [sp, #64]	; 0x40
 8003276:	e9cd 3312 	strd	r3, r3, [sp, #72]	; 0x48
 800327a:	e9cd 3314 	strd	r3, r3, [sp, #80]	; 0x50
 800327e:	e9cd 3316 	strd	r3, r3, [sp, #88]	; 0x58
 8003282:	aa07      	add	r2, sp, #28
 8003284:	463b      	mov	r3, r7
 8003286:	f853 1f04 	ldr.w	r1, [r3, #4]!
 800328a:	f842 1f04 	str.w	r1, [r2, #4]!
 800328e:	429e      	cmp	r6, r3
 8003290:	d1f9      	bne.n	8003286 <fe25519_squareroot+0x4e>
 8003292:	4669      	mov	r1, sp
 8003294:	4668      	mov	r0, sp
 8003296:	f7fd f875 	bl	8000384 <fe25519_square_asm>
 800329a:	aa08      	add	r2, sp, #32
 800329c:	4610      	mov	r0, r2
 800329e:	4669      	mov	r1, sp
 80032a0:	f7fd f93e 	bl	8000520 <fe25519_mul_asm>
 80032a4:	4669      	mov	r1, sp
 80032a6:	4668      	mov	r0, sp
 80032a8:	f7fd f86c 	bl	8000384 <fe25519_square_asm>
 80032ac:	24fa      	movs	r4, #250	; 0xfa
 80032ae:	4669      	mov	r1, sp
 80032b0:	4668      	mov	r0, sp
 80032b2:	f7fd f867 	bl	8000384 <fe25519_square_asm>
 80032b6:	aa08      	add	r2, sp, #32
 80032b8:	4669      	mov	r1, sp
 80032ba:	4610      	mov	r0, r2
 80032bc:	f7fd f930 	bl	8000520 <fe25519_mul_asm>
 80032c0:	3c01      	subs	r4, #1
 80032c2:	d1f4      	bne.n	80032ae <fe25519_squareroot+0x76>
 80032c4:	a910      	add	r1, sp, #64	; 0x40
 80032c6:	a808      	add	r0, sp, #32
 80032c8:	f7ff ff96 	bl	80031f8 <fe25519_iseq_vartime>
 80032cc:	4604      	mov	r4, r0
 80032ce:	b1f8      	cbz	r0, 8003310 <fe25519_squareroot+0xd8>
 80032d0:	f857 3f04 	ldr.w	r3, [r7, #4]!
 80032d4:	f848 3f04 	str.w	r3, [r8, #4]!
 80032d8:	42b7      	cmp	r7, r6
 80032da:	d1f9      	bne.n	80032d0 <fe25519_squareroot+0x98>
 80032dc:	2300      	movs	r3, #0
 80032de:	2201      	movs	r2, #1
 80032e0:	e9c5 2300 	strd	r2, r3, [r5]
 80032e4:	e9c5 3302 	strd	r3, r3, [r5, #8]
 80032e8:	e9c5 3304 	strd	r3, r3, [r5, #16]
 80032ec:	e9c5 3306 	strd	r3, r3, [r5, #24]
 80032f0:	24fb      	movs	r4, #251	; 0xfb
 80032f2:	4669      	mov	r1, sp
 80032f4:	4668      	mov	r0, sp
 80032f6:	f7fd f845 	bl	8000384 <fe25519_square_asm>
 80032fa:	466a      	mov	r2, sp
 80032fc:	4629      	mov	r1, r5
 80032fe:	4628      	mov	r0, r5
 8003300:	f7fd f90e 	bl	8000520 <fe25519_mul_asm>
 8003304:	3c01      	subs	r4, #1
 8003306:	d1f4      	bne.n	80032f2 <fe25519_squareroot+0xba>
 8003308:	4620      	mov	r0, r4
 800330a:	b029      	add	sp, #164	; 0xa4
 800330c:	e8bd 83f0 	ldmia.w	sp!, {r4, r5, r6, r7, r8, r9, pc}
 8003310:	a918      	add	r1, sp, #96	; 0x60
 8003312:	a808      	add	r0, sp, #32
 8003314:	f7ff ff70 	bl	80031f8 <fe25519_iseq_vartime>
 8003318:	2800      	cmp	r0, #0
 800331a:	f000 80a5 	beq.w	8003468 <fe25519_squareroot+0x230>
 800331e:	2201      	movs	r2, #1
 8003320:	ab20      	add	r3, sp, #128	; 0x80
 8003322:	4611      	mov	r1, r2
 8003324:	46ce      	mov	lr, r9
 8003326:	f8d9 601c 	ldr.w	r6, [r9, #28]
 800332a:	f8de 001c 	ldr.w	r0, [lr, #28]
 800332e:	4607      	mov	r7, r0
 8003330:	fbe6 6761 	umaal	r6, r7, r6, r1
 8003334:	fbe0 6701 	umlal	r6, r7, r0, r1
 8003338:	f04f 0013 	mov.w	r0, #19
 800333c:	fb07 f000 	mul.w	r0, r7, r0
 8003340:	f8d9 7000 	ldr.w	r7, [r9]
 8003344:	f8de c000 	ldr.w	ip, [lr]
 8003348:	fbe1 7c60 	umaal	r7, ip, r1, r0
 800334c:	601f      	str	r7, [r3, #0]
 800334e:	f8d9 0004 	ldr.w	r0, [r9, #4]
 8003352:	f8de 7004 	ldr.w	r7, [lr, #4]
 8003356:	fbe1 7c60 	umaal	r7, ip, r1, r0
 800335a:	605f      	str	r7, [r3, #4]
 800335c:	f8d9 0008 	ldr.w	r0, [r9, #8]
 8003360:	f8de 7008 	ldr.w	r7, [lr, #8]
 8003364:	fbe1 7c60 	umaal	r7, ip, r1, r0
 8003368:	609f      	str	r7, [r3, #8]
 800336a:	f8d9 000c 	ldr.w	r0, [r9, #12]
 800336e:	f8de 700c 	ldr.w	r7, [lr, #12]
 8003372:	fbe1 7c60 	umaal	r7, ip, r1, r0
 8003376:	60df      	str	r7, [r3, #12]
 8003378:	f8d9 0010 	ldr.w	r0, [r9, #16]
 800337c:	f8de 7010 	ldr.w	r7, [lr, #16]
 8003380:	fbe1 7c60 	umaal	r7, ip, r1, r0
 8003384:	611f      	str	r7, [r3, #16]
 8003386:	f8d9 0014 	ldr.w	r0, [r9, #20]
 800338a:	f8de 7014 	ldr.w	r7, [lr, #20]
 800338e:	fbe1 7c60 	umaal	r7, ip, r1, r0
 8003392:	615f      	str	r7, [r3, #20]
 8003394:	f8d9 0018 	ldr.w	r0, [r9, #24]
 8003398:	f8de 7018 	ldr.w	r7, [lr, #24]
 800339c:	fbe1 7c60 	umaal	r7, ip, r1, r0
 80033a0:	619f      	str	r7, [r3, #24]
 80033a2:	eb0c 0c56 	add.w	ip, ip, r6, lsr #1
 80033a6:	f8c3 c01c 	str.w	ip, [r3, #28]
 80033aa:	ab20      	add	r3, sp, #128	; 0x80
 80033ac:	4629      	mov	r1, r5
 80033ae:	469e      	mov	lr, r3
 80033b0:	69de      	ldr	r6, [r3, #28]
 80033b2:	f8de 001c 	ldr.w	r0, [lr, #28]
 80033b6:	4607      	mov	r7, r0
 80033b8:	fbe6 6762 	umaal	r6, r7, r6, r2
 80033bc:	fbe0 6702 	umlal	r6, r7, r0, r2
 80033c0:	f04f 0013 	mov.w	r0, #19
 80033c4:	fb07 f000 	mul.w	r0, r7, r0
 80033c8:	681f      	ldr	r7, [r3, #0]
 80033ca:	f8de c000 	ldr.w	ip, [lr]
 80033ce:	fbe2 7c60 	umaal	r7, ip, r2, r0
 80033d2:	600f      	str	r7, [r1, #0]
 80033d4:	6858      	ldr	r0, [r3, #4]
 80033d6:	f8de 7004 	ldr.w	r7, [lr, #4]
 80033da:	fbe2 7c60 	umaal	r7, ip, r2, r0
 80033de:	604f      	str	r7, [r1, #4]
 80033e0:	6898      	ldr	r0, [r3, #8]
 80033e2:	f8de 7008 	ldr.w	r7, [lr, #8]
 80033e6:	fbe2 7c60 	umaal	r7, ip, r2, r0
 80033ea:	608f      	str	r7, [r1, #8]
 80033ec:	68d8      	ldr	r0, [r3, #12]
 80033ee:	f8de 700c 	ldr.w	r7, [lr, #12]
 80033f2:	fbe2 7c60 	umaal	r7, ip, r2, r0
 80033f6:	60cf      	str	r7, [r1, #12]
 80033f8:	6918      	ldr	r0, [r3, #16]
 80033fa:	f8de 7010 	ldr.w	r7, [lr, #16]
 80033fe:	fbe2 7c60 	umaal	r7, ip, r2, r0
 8003402:	610f      	str	r7, [r1, #16]
 8003404:	6958      	ldr	r0, [r3, #20]
 8003406:	f8de 7014 	ldr.w	r7, [lr, #20]
 800340a:	fbe2 7c60 	umaal	r7, ip, r2, r0
 800340e:	614f      	str	r7, [r1, #20]
 8003410:	6998      	ldr	r0, [r3, #24]
 8003412:	f8de 7018 	ldr.w	r7, [lr, #24]
 8003416:	fbe2 7c60 	umaal	r7, ip, r2, r0
 800341a:	618f      	str	r7, [r1, #24]
 800341c:	eb0c 0c56 	add.w	ip, ip, r6, lsr #1
 8003420:	f8c1 c01c 	str.w	ip, [r1, #28]
 8003424:	1f2b      	subs	r3, r5, #4
 8003426:	f105 011c 	add.w	r1, r5, #28
 800342a:	f853 2f04 	ldr.w	r2, [r3, #4]!
 800342e:	f848 2f04 	str.w	r2, [r8, #4]!
 8003432:	4299      	cmp	r1, r3
 8003434:	d1f9      	bne.n	800342a <fe25519_squareroot+0x1f2>
 8003436:	4669      	mov	r1, sp
 8003438:	4668      	mov	r0, sp
 800343a:	f7fc ffa3 	bl	8000384 <fe25519_square_asm>
 800343e:	26fa      	movs	r6, #250	; 0xfa
 8003440:	4669      	mov	r1, sp
 8003442:	4668      	mov	r0, sp
 8003444:	f7fc ff9e 	bl	8000384 <fe25519_square_asm>
 8003448:	466a      	mov	r2, sp
 800344a:	4629      	mov	r1, r5
 800344c:	4628      	mov	r0, r5
 800344e:	f7fd f867 	bl	8000520 <fe25519_mul_asm>
 8003452:	3e01      	subs	r6, #1
 8003454:	d1f4      	bne.n	8003440 <fe25519_squareroot+0x208>
 8003456:	4628      	mov	r0, r5
 8003458:	aa20      	add	r2, sp, #128	; 0x80
 800345a:	4629      	mov	r1, r5
 800345c:	f7fd f860 	bl	8000520 <fe25519_mul_asm>
 8003460:	4620      	mov	r0, r4
 8003462:	b029      	add	sp, #164	; 0xa4
 8003464:	e8bd 83f0 	ldmia.w	sp!, {r4, r5, r6, r7, r8, r9, pc}
 8003468:	f04f 34ff 	mov.w	r4, #4294967295	; 0xffffffff
 800346c:	e74c      	b.n	8003308 <fe25519_squareroot+0xd0>
 800346e:	bf00      	nop
 8003470:	08003fb8 	.word	0x08003fb8

08003474 <fe25519_invert_useProvidedScratchBuffers>:
 8003474:	e92d 41f0 	stmdb	sp!, {r4, r5, r6, r7, r8, lr}
 8003478:	b082      	sub	sp, #8
 800347a:	4614      	mov	r4, r2
 800347c:	9e08      	ldr	r6, [sp, #32]
 800347e:	9101      	str	r1, [sp, #4]
 8003480:	4607      	mov	r7, r0
 8003482:	4630      	mov	r0, r6
 8003484:	4698      	mov	r8, r3
 8003486:	f7fc ff7d 	bl	8000384 <fe25519_square_asm>
 800348a:	4631      	mov	r1, r6
 800348c:	4620      	mov	r0, r4
 800348e:	f7fc ff79 	bl	8000384 <fe25519_square_asm>
 8003492:	4621      	mov	r1, r4
 8003494:	4620      	mov	r0, r4
 8003496:	f7fc ff75 	bl	8000384 <fe25519_square_asm>
 800349a:	9a01      	ldr	r2, [sp, #4]
 800349c:	4621      	mov	r1, r4
 800349e:	4640      	mov	r0, r8
 80034a0:	f7fd f83e 	bl	8000520 <fe25519_mul_asm>
 80034a4:	4632      	mov	r2, r6
 80034a6:	4641      	mov	r1, r8
 80034a8:	4638      	mov	r0, r7
 80034aa:	f7fd f839 	bl	8000520 <fe25519_mul_asm>
 80034ae:	4639      	mov	r1, r7
 80034b0:	4620      	mov	r0, r4
 80034b2:	f7fc ff67 	bl	8000384 <fe25519_square_asm>
 80034b6:	4642      	mov	r2, r8
 80034b8:	4621      	mov	r1, r4
 80034ba:	4640      	mov	r0, r8
 80034bc:	f7fd f830 	bl	8000520 <fe25519_mul_asm>
 80034c0:	4641      	mov	r1, r8
 80034c2:	4620      	mov	r0, r4
 80034c4:	f7fc ff5e 	bl	8000384 <fe25519_square_asm>
 80034c8:	4621      	mov	r1, r4
 80034ca:	4620      	mov	r0, r4
 80034cc:	f7fc ff5a 	bl	8000384 <fe25519_square_asm>
 80034d0:	4621      	mov	r1, r4
 80034d2:	4620      	mov	r0, r4
 80034d4:	f7fc ff56 	bl	8000384 <fe25519_square_asm>
 80034d8:	4621      	mov	r1, r4
 80034da:	4620      	mov	r0, r4
 80034dc:	f7fc ff52 	bl	8000384 <fe25519_square_asm>
 80034e0:	4621      	mov	r1, r4
 80034e2:	4620      	mov	r0, r4
 80034e4:	f7fc ff4e 	bl	8000384 <fe25519_square_asm>
 80034e8:	4642      	mov	r2, r8
 80034ea:	4621      	mov	r1, r4
 80034ec:	4640      	mov	r0, r8
 80034ee:	f7fd f817 	bl	8000520 <fe25519_mul_asm>
 80034f2:	4641      	mov	r1, r8
 80034f4:	4620      	mov	r0, r4
 80034f6:	f7fc ff45 	bl	8000384 <fe25519_square_asm>
 80034fa:	2509      	movs	r5, #9
 80034fc:	4621      	mov	r1, r4
 80034fe:	4620      	mov	r0, r4
 8003500:	f7fc ff40 	bl	8000384 <fe25519_square_asm>
 8003504:	1e6b      	subs	r3, r5, #1
 8003506:	f013 05ff 	ands.w	r5, r3, #255	; 0xff
 800350a:	d1f7      	bne.n	80034fc <fe25519_invert_useProvidedScratchBuffers+0x88>
 800350c:	4642      	mov	r2, r8
 800350e:	4621      	mov	r1, r4
 8003510:	4630      	mov	r0, r6
 8003512:	f7fd f805 	bl	8000520 <fe25519_mul_asm>
 8003516:	4631      	mov	r1, r6
 8003518:	4620      	mov	r0, r4
 800351a:	f7fc ff33 	bl	8000384 <fe25519_square_asm>
 800351e:	2513      	movs	r5, #19
 8003520:	4621      	mov	r1, r4
 8003522:	4620      	mov	r0, r4
 8003524:	f7fc ff2e 	bl	8000384 <fe25519_square_asm>
 8003528:	1e6b      	subs	r3, r5, #1
 800352a:	f013 05ff 	ands.w	r5, r3, #255	; 0xff
 800352e:	d1f7      	bne.n	8003520 <fe25519_invert_useProvidedScratchBuffers+0xac>
 8003530:	4632      	mov	r2, r6
 8003532:	4621      	mov	r1, r4
 8003534:	4620      	mov	r0, r4
 8003536:	f7fc fff3 	bl	8000520 <fe25519_mul_asm>
 800353a:	4621      	mov	r1, r4
 800353c:	4620      	mov	r0, r4
 800353e:	f7fc ff21 	bl	8000384 <fe25519_square_asm>
 8003542:	2509      	movs	r5, #9
 8003544:	4621      	mov	r1, r4
 8003546:	4620      	mov	r0, r4
 8003548:	f7fc ff1c 	bl	8000384 <fe25519_square_asm>
 800354c:	1e6b      	subs	r3, r5, #1
 800354e:	f013 05ff 	ands.w	r5, r3, #255	; 0xff
 8003552:	d1f7      	bne.n	8003544 <fe25519_invert_useProvidedScratchBuffers+0xd0>
 8003554:	4642      	mov	r2, r8
 8003556:	4621      	mov	r1, r4
 8003558:	4630      	mov	r0, r6
 800355a:	f7fc ffe1 	bl	8000520 <fe25519_mul_asm>
 800355e:	4631      	mov	r1, r6
 8003560:	4620      	mov	r0, r4
 8003562:	f7fc ff0f 	bl	8000384 <fe25519_square_asm>
 8003566:	2531      	movs	r5, #49	; 0x31
 8003568:	4621      	mov	r1, r4
 800356a:	4620      	mov	r0, r4
 800356c:	f7fc ff0a 	bl	8000384 <fe25519_square_asm>
 8003570:	1e6a      	subs	r2, r5, #1
 8003572:	f012 05ff 	ands.w	r5, r2, #255	; 0xff
 8003576:	d1f7      	bne.n	8003568 <fe25519_invert_useProvidedScratchBuffers+0xf4>
 8003578:	4632      	mov	r2, r6
 800357a:	4621      	mov	r1, r4
 800357c:	4640      	mov	r0, r8
 800357e:	f7fc ffcf 	bl	8000520 <fe25519_mul_asm>
 8003582:	4641      	mov	r1, r8
 8003584:	4620      	mov	r0, r4
 8003586:	f7fc fefd 	bl	8000384 <fe25519_square_asm>
 800358a:	2563      	movs	r5, #99	; 0x63
 800358c:	4621      	mov	r1, r4
 800358e:	4620      	mov	r0, r4
 8003590:	f7fc fef8 	bl	8000384 <fe25519_square_asm>
 8003594:	1e6a      	subs	r2, r5, #1
 8003596:	f012 05ff 	ands.w	r5, r2, #255	; 0xff
 800359a:	d1f7      	bne.n	800358c <fe25519_invert_useProvidedScratchBuffers+0x118>
 800359c:	4642      	mov	r2, r8
 800359e:	4621      	mov	r1, r4
 80035a0:	4620      	mov	r0, r4
 80035a2:	f7fc ffbd 	bl	8000520 <fe25519_mul_asm>
 80035a6:	2532      	movs	r5, #50	; 0x32
 80035a8:	4621      	mov	r1, r4
 80035aa:	4620      	mov	r0, r4
 80035ac:	f7fc feea 	bl	8000384 <fe25519_square_asm>
 80035b0:	1e6b      	subs	r3, r5, #1
 80035b2:	f013 05ff 	ands.w	r5, r3, #255	; 0xff
 80035b6:	d1f7      	bne.n	80035a8 <fe25519_invert_useProvidedScratchBuffers+0x134>
 80035b8:	4632      	mov	r2, r6
 80035ba:	4621      	mov	r1, r4
 80035bc:	4620      	mov	r0, r4
 80035be:	f7fc ffaf 	bl	8000520 <fe25519_mul_asm>
 80035c2:	2505      	movs	r5, #5
 80035c4:	4621      	mov	r1, r4
 80035c6:	4620      	mov	r0, r4
 80035c8:	f7fc fedc 	bl	8000384 <fe25519_square_asm>
 80035cc:	1e6b      	subs	r3, r5, #1
 80035ce:	f013 05ff 	ands.w	r5, r3, #255	; 0xff
 80035d2:	d1f7      	bne.n	80035c4 <fe25519_invert_useProvidedScratchBuffers+0x150>
 80035d4:	4621      	mov	r1, r4
 80035d6:	463a      	mov	r2, r7
 80035d8:	4638      	mov	r0, r7
 80035da:	b002      	add	sp, #8
 80035dc:	e8bd 41f0 	ldmia.w	sp!, {r4, r5, r6, r7, r8, lr}
 80035e0:	f7fc bf9e 	b.w	8000520 <fe25519_mul_asm>

080035e4 <multiply288x288>:
 80035e4:	e92d 4ff0 	stmdb	sp!, {r4, r5, r6, r7, r8, r9, sl, fp, lr}
 80035e8:	460e      	mov	r6, r1
 80035ea:	b08f      	sub	sp, #60	; 0x3c
 80035ec:	4614      	mov	r4, r2
 80035ee:	4605      	mov	r5, r0
 80035f0:	920a      	str	r2, [sp, #40]	; 0x28
 80035f2:	9009      	str	r0, [sp, #36]	; 0x24
 80035f4:	f7fd f89c 	bl	8000730 <multiply256x256_asm>
 80035f8:	6a32      	ldr	r2, [r6, #32]
 80035fa:	6a23      	ldr	r3, [r4, #32]
 80035fc:	b291      	uxth	r1, r2
 80035fe:	0c14      	lsrs	r4, r2, #16
 8003600:	ea4f 4913 	mov.w	r9, r3, lsr #16
 8003604:	fa1f f883 	uxth.w	r8, r3
 8003608:	fb09 fb01 	mul.w	fp, r9, r1
 800360c:	fb04 f308 	mul.w	r3, r4, r8
 8003610:	041a      	lsls	r2, r3, #16
 8003612:	ea4f 4a0b 	mov.w	sl, fp, lsl #16
 8003616:	eb1a 0a02 	adds.w	sl, sl, r2
 800361a:	ea4f 4313 	mov.w	r3, r3, lsr #16
 800361e:	ea4f 4b1b 	mov.w	fp, fp, lsr #16
 8003622:	fb08 f201 	mul.w	r2, r8, r1
 8003626:	eb4b 0b03 	adc.w	fp, fp, r3
 800362a:	9106      	str	r1, [sp, #24]
 800362c:	fb09 f304 	mul.w	r3, r9, r4
 8003630:	eb1a 0102 	adds.w	r1, sl, r2
 8003634:	f105 0720 	add.w	r7, r5, #32
 8003638:	f04f 0e00 	mov.w	lr, #0
 800363c:	9407      	str	r4, [sp, #28]
 800363e:	f1a6 0604 	sub.w	r6, r6, #4
 8003642:	f105 0440 	add.w	r4, r5, #64	; 0x40
 8003646:	eb4b 0303 	adc.w	r3, fp, r3
 800364a:	910b      	str	r1, [sp, #44]	; 0x2c
 800364c:	930c      	str	r3, [sp, #48]	; 0x30
 800364e:	46bc      	mov	ip, r7
 8003650:	9408      	str	r4, [sp, #32]
 8003652:	4675      	mov	r5, lr
 8003654:	4671      	mov	r1, lr
 8003656:	9605      	str	r6, [sp, #20]
 8003658:	970d      	str	r7, [sp, #52]	; 0x34
 800365a:	9a05      	ldr	r2, [sp, #20]
 800365c:	f8cd e004 	str.w	lr, [sp, #4]
 8003660:	f852 3f04 	ldr.w	r3, [r2, #4]!
 8003664:	9205      	str	r2, [sp, #20]
 8003666:	b29f      	uxth	r7, r3
 8003668:	0c1b      	lsrs	r3, r3, #16
 800366a:	fb07 f009 	mul.w	r0, r7, r9
 800366e:	fb03 fa08 	mul.w	sl, r3, r8
 8003672:	0402      	lsls	r2, r0, #16
 8003674:	ea4f 4b0a 	mov.w	fp, sl, lsl #16
 8003678:	fb07 f708 	mul.w	r7, r7, r8
 800367c:	eb12 020b 	adds.w	r2, r2, fp
 8003680:	ea4f 4010 	mov.w	r0, r0, lsr #16
 8003684:	ea4f 4a1a 	mov.w	sl, sl, lsr #16
 8003688:	eb40 0a0a 	adc.w	sl, r0, sl
 800368c:	19d2      	adds	r2, r2, r7
 800368e:	9200      	str	r2, [sp, #0]
 8003690:	e9dd 6700 	ldrd	r6, r7, [sp]
 8003694:	fb03 f309 	mul.w	r3, r3, r9
 8003698:	eb4a 0a03 	adc.w	sl, sl, r3
 800369c:	f8dc 3000 	ldr.w	r3, [ip]
 80036a0:	18f6      	adds	r6, r6, r3
 80036a2:	f147 0700 	adc.w	r7, r7, #0
 80036a6:	1975      	adds	r5, r6, r5
 80036a8:	f84c 5b04 	str.w	r5, [ip], #4
 80036ac:	eb47 0101 	adc.w	r1, r7, r1
 80036b0:	eb1a 0501 	adds.w	r5, sl, r1
 80036b4:	4671      	mov	r1, lr
 80036b6:	4149      	adcs	r1, r1
 80036b8:	4564      	cmp	r4, ip
 80036ba:	d1ce      	bne.n	800365a <multiply288x288+0x76>
 80036bc:	f8dd a02c 	ldr.w	sl, [sp, #44]	; 0x2c
 80036c0:	9b0c      	ldr	r3, [sp, #48]	; 0x30
 80036c2:	9f0d      	ldr	r7, [sp, #52]	; 0x34
 80036c4:	eb1a 0a05 	adds.w	sl, sl, r5
 80036c8:	eb4e 0101 	adc.w	r1, lr, r1
 80036cc:	440b      	add	r3, r1
 80036ce:	469b      	mov	fp, r3
 80036d0:	e9dd 8906 	ldrd	r8, r9, [sp, #24]
 80036d4:	9b0a      	ldr	r3, [sp, #40]	; 0x28
 80036d6:	9d08      	ldr	r5, [sp, #32]
 80036d8:	f8cd b000 	str.w	fp, [sp]
 80036dc:	2600      	movs	r6, #0
 80036de:	f1a3 0e04 	sub.w	lr, r3, #4
 80036e2:	4630      	mov	r0, r6
 80036e4:	46b4      	mov	ip, r6
 80036e6:	f8cd a014 	str.w	sl, [sp, #20]
 80036ea:	f85e 3f04 	ldr.w	r3, [lr, #4]!
 80036ee:	f8cd c00c 	str.w	ip, [sp, #12]
 80036f2:	b29c      	uxth	r4, r3
 80036f4:	0c1b      	lsrs	r3, r3, #16
 80036f6:	fb04 fa09 	mul.w	sl, r4, r9
 80036fa:	fb03 f108 	mul.w	r1, r3, r8
 80036fe:	ea4f 420a 	mov.w	r2, sl, lsl #16
 8003702:	ea4f 4b01 	mov.w	fp, r1, lsl #16
 8003706:	eb12 020b 	adds.w	r2, r2, fp
 800370a:	ea4f 4111 	mov.w	r1, r1, lsr #16
 800370e:	fb04 f408 	mul.w	r4, r4, r8
 8003712:	ea4f 4a1a 	mov.w	sl, sl, lsr #16
 8003716:	eb4a 0a01 	adc.w	sl, sl, r1
 800371a:	1912      	adds	r2, r2, r4
 800371c:	9202      	str	r2, [sp, #8]
 800371e:	e9dd 1202 	ldrd	r1, r2, [sp, #8]
 8003722:	fb03 f309 	mul.w	r3, r3, r9
 8003726:	eb4a 0a03 	adc.w	sl, sl, r3
 800372a:	683b      	ldr	r3, [r7, #0]
 800372c:	18c9      	adds	r1, r1, r3
 800372e:	f142 0200 	adc.w	r2, r2, #0
 8003732:	198e      	adds	r6, r1, r6
 8003734:	f847 6b04 	str.w	r6, [r7], #4
 8003738:	eb42 0000 	adc.w	r0, r2, r0
 800373c:	eb1a 0600 	adds.w	r6, sl, r0
 8003740:	4660      	mov	r0, ip
 8003742:	4140      	adcs	r0, r0
 8003744:	42bd      	cmp	r5, r7
 8003746:	d1d0      	bne.n	80036ea <multiply288x288+0x106>
 8003748:	f8dd a014 	ldr.w	sl, [sp, #20]
 800374c:	f8dd b000 	ldr.w	fp, [sp]
 8003750:	9b09      	ldr	r3, [sp, #36]	; 0x24
 8003752:	eb16 060a 	adds.w	r6, r6, sl
 8003756:	eb40 0c0c 	adc.w	ip, r0, ip
 800375a:	eb0b 000c 	add.w	r0, fp, ip
 800375e:	6458      	str	r0, [r3, #68]	; 0x44
 8003760:	641e      	str	r6, [r3, #64]	; 0x40
 8003762:	b00f      	add	sp, #60	; 0x3c
 8003764:	e8bd 8ff0 	ldmia.w	sp!, {r4, r5, r6, r7, r8, r9, sl, fp, pc}

08003768 <setone_256bitvalue>:
 8003768:	2300      	movs	r3, #0
 800376a:	2201      	movs	r2, #1
 800376c:	e9c0 2300 	strd	r2, r3, [r0]
 8003770:	e9c0 3302 	strd	r3, r3, [r0, #8]
 8003774:	e9c0 3304 	strd	r3, r3, [r0, #16]
 8003778:	e9c0 3306 	strd	r3, r3, [r0, #24]
 800377c:	4770      	bx	lr
 800377e:	bf00      	nop

08003780 <setzero_256bitvalue>:
 8003780:	2300      	movs	r3, #0
 8003782:	e9c0 3300 	strd	r3, r3, [r0]
 8003786:	e9c0 3302 	strd	r3, r3, [r0, #8]
 800378a:	e9c0 3304 	strd	r3, r3, [r0, #16]
 800378e:	e9c0 3306 	strd	r3, r3, [r0, #24]
 8003792:	4770      	bx	lr

08003794 <cpy_256bitvalue>:
 8003794:	1f0b      	subs	r3, r1, #4
 8003796:	3804      	subs	r0, #4
 8003798:	311c      	adds	r1, #28
 800379a:	f853 2f04 	ldr.w	r2, [r3, #4]!
 800379e:	f840 2f04 	str.w	r2, [r0, #4]!
 80037a2:	428b      	cmp	r3, r1
 80037a4:	d1f9      	bne.n	800379a <cpy_256bitvalue+0x6>
 80037a6:	4770      	bx	lr

080037a8 <conditionalMove_256bitValue>:
 80037a8:	b430      	push	{r4, r5}
 80037aa:	3904      	subs	r1, #4
 80037ac:	4252      	negs	r2, r2
 80037ae:	1f04      	subs	r4, r0, #4
 80037b0:	f100 051c 	add.w	r5, r0, #28
 80037b4:	f854 0f04 	ldr.w	r0, [r4, #4]!
 80037b8:	f851 3f04 	ldr.w	r3, [r1, #4]!
 80037bc:	4043      	eors	r3, r0
 80037be:	4013      	ands	r3, r2
 80037c0:	4043      	eors	r3, r0
 80037c2:	42ac      	cmp	r4, r5
 80037c4:	6023      	str	r3, [r4, #0]
 80037c6:	d1f5      	bne.n	80037b4 <conditionalMove_256bitValue+0xc>
 80037c8:	bc30      	pop	{r4, r5}
 80037ca:	4770      	bx	lr

080037cc <shiftLeftOne>:
 80037cc:	69c3      	ldr	r3, [r0, #28]
 80037ce:	4602      	mov	r2, r0
 80037d0:	005b      	lsls	r3, r3, #1
 80037d2:	f842 3f1c 	str.w	r3, [r2, #28]!
 80037d6:	f852 1c04 	ldr.w	r1, [r2, #-4]
 80037da:	eb03 73d1 	add.w	r3, r3, r1, lsr #31
 80037de:	6013      	str	r3, [r2, #0]
 80037e0:	f852 3d04 	ldr.w	r3, [r2, #-4]!
 80037e4:	005b      	lsls	r3, r3, #1
 80037e6:	4282      	cmp	r2, r0
 80037e8:	6013      	str	r3, [r2, #0]
 80037ea:	d1f4      	bne.n	80037d6 <shiftLeftOne+0xa>
 80037ec:	4770      	bx	lr
 80037ee:	bf00      	nop

080037f0 <shiftRightOne>:
 80037f0:	6803      	ldr	r3, [r0, #0]
 80037f2:	69c1      	ldr	r1, [r0, #28]
 80037f4:	085b      	lsrs	r3, r3, #1
 80037f6:	b430      	push	{r4, r5}
 80037f8:	4602      	mov	r2, r0
 80037fa:	6003      	str	r3, [r0, #0]
 80037fc:	f001 4500 	and.w	r5, r1, #2147483648	; 0x80000000
 8003800:	f100 041c 	add.w	r4, r0, #28
 8003804:	6851      	ldr	r1, [r2, #4]
 8003806:	eb03 73c1 	add.w	r3, r3, r1, lsl #31
 800380a:	6013      	str	r3, [r2, #0]
 800380c:	f852 3f04 	ldr.w	r3, [r2, #4]!
 8003810:	085b      	lsrs	r3, r3, #1
 8003812:	42a2      	cmp	r2, r4
 8003814:	6013      	str	r3, [r2, #0]
 8003816:	d1f5      	bne.n	8003804 <shiftRightOne+0x14>
 8003818:	69c3      	ldr	r3, [r0, #28]
 800381a:	432b      	orrs	r3, r5
 800381c:	61c3      	str	r3, [r0, #28]
 800381e:	bc30      	pop	{r4, r5}
 8003820:	4770      	bx	lr
 8003822:	bf00      	nop

08003824 <isEqual_256bitvalue>:
 8003824:	b430      	push	{r4, r5}
 8003826:	1f02      	subs	r2, r0, #4
 8003828:	f100 051c 	add.w	r5, r0, #28
 800382c:	3904      	subs	r1, #4
 800382e:	2000      	movs	r0, #0
 8003830:	f852 3f04 	ldr.w	r3, [r2, #4]!
 8003834:	f851 4f04 	ldr.w	r4, [r1, #4]!
 8003838:	42aa      	cmp	r2, r5
 800383a:	ea83 0304 	eor.w	r3, r3, r4
 800383e:	ea40 0003 	orr.w	r0, r0, r3
 8003842:	d1f5      	bne.n	8003830 <isEqual_256bitvalue+0xc>
 8003844:	bc30      	pop	{r4, r5}
 8003846:	4770      	bx	lr

08003848 <sc25519_reduceAddSub>:
 8003848:	e92d 43f8 	stmdb	sp!, {r3, r4, r5, r6, r7, r8, r9, lr}
 800384c:	4689      	mov	r9, r1
 800384e:	4680      	mov	r8, r0
 8003850:	4601      	mov	r1, r0
 8003852:	4d11      	ldr	r5, [pc, #68]	; (8003898 <sc25519_reduceAddSub+0x50>)
 8003854:	4648      	mov	r0, r9
 8003856:	f7ff ff9d 	bl	8003794 <cpy_256bitvalue>
 800385a:	f1a9 0404 	sub.w	r4, r9, #4
 800385e:	f109 0c1c 	add.w	ip, r9, #28
 8003862:	2200      	movs	r2, #0
 8003864:	2300      	movs	r3, #0
 8003866:	f854 0f04 	ldr.w	r0, [r4, #4]!
 800386a:	f855 1f04 	ldr.w	r1, [r5, #4]!
 800386e:	1812      	adds	r2, r2, r0
 8003870:	f143 0300 	adc.w	r3, r3, #0
 8003874:	1a56      	subs	r6, r2, r1
 8003876:	f163 0700 	sbc.w	r7, r3, #0
 800387a:	45a4      	cmp	ip, r4
 800387c:	463a      	mov	r2, r7
 800387e:	6026      	str	r6, [r4, #0]
 8003880:	ea4f 73e7 	mov.w	r3, r7, asr #31
 8003884:	d1ef      	bne.n	8003866 <sc25519_reduceAddSub+0x1e>
 8003886:	43fa      	mvns	r2, r7
 8003888:	4649      	mov	r1, r9
 800388a:	4640      	mov	r0, r8
 800388c:	f002 0201 	and.w	r2, r2, #1
 8003890:	e8bd 43f8 	ldmia.w	sp!, {r3, r4, r5, r6, r7, r8, r9, lr}
 8003894:	f7ff bf88 	b.w	80037a8 <conditionalMove_256bitValue>
 8003898:	08003ff4 	.word	0x08003ff4

0800389c <sc25519_reduce>:
 800389c:	b5f0      	push	{r4, r5, r6, r7, lr}
 800389e:	b0a7      	sub	sp, #156	; 0x9c
 80038a0:	f100 021c 	add.w	r2, r0, #28
 80038a4:	4916      	ldr	r1, [pc, #88]	; (8003900 <sc25519_reduce+0x64>)
 80038a6:	4607      	mov	r7, r0
 80038a8:	a802      	add	r0, sp, #8
 80038aa:	f7ff fe9b 	bl	80035e4 <multiply288x288>
 80038ae:	a90b      	add	r1, sp, #44	; 0x2c
 80038b0:	4a14      	ldr	r2, [pc, #80]	; (8003904 <sc25519_reduce+0x68>)
 80038b2:	a814      	add	r0, sp, #80	; 0x50
 80038b4:	f7ff fe96 	bl	80035e4 <multiply288x288>
 80038b8:	1f3e      	subs	r6, r7, #4
 80038ba:	a914      	add	r1, sp, #80	; 0x50
 80038bc:	f10d 0e90 	add.w	lr, sp, #144	; 0x90
 80038c0:	2400      	movs	r4, #0
 80038c2:	2500      	movs	r5, #0
 80038c4:	f856 cf04 	ldr.w	ip, [r6, #4]!
 80038c8:	f851 0b04 	ldr.w	r0, [r1], #4
 80038cc:	eb14 020c 	adds.w	r2, r4, ip
 80038d0:	f145 0300 	adc.w	r3, r5, #0
 80038d4:	1a12      	subs	r2, r2, r0
 80038d6:	f163 0300 	sbc.w	r3, r3, #0
 80038da:	458e      	cmp	lr, r1
 80038dc:	461c      	mov	r4, r3
 80038de:	6032      	str	r2, [r6, #0]
 80038e0:	ea4f 75e3 	mov.w	r5, r3, asr #31
 80038e4:	d1ee      	bne.n	80038c4 <sc25519_reduce+0x28>
 80038e6:	f107 0120 	add.w	r1, r7, #32
 80038ea:	4638      	mov	r0, r7
 80038ec:	9101      	str	r1, [sp, #4]
 80038ee:	f7ff ffab 	bl	8003848 <sc25519_reduceAddSub>
 80038f2:	9901      	ldr	r1, [sp, #4]
 80038f4:	4638      	mov	r0, r7
 80038f6:	f7ff ffa7 	bl	8003848 <sc25519_reduceAddSub>
 80038fa:	b027      	add	sp, #156	; 0x9c
 80038fc:	bdf0      	pop	{r4, r5, r6, r7, pc}
 80038fe:	bf00      	nop
 8003900:	08004020 	.word	0x08004020
 8003904:	08003ff8 	.word	0x08003ff8

08003908 <sc25519_mul>:
 8003908:	b510      	push	{r4, lr}
 800390a:	b090      	sub	sp, #64	; 0x40
 800390c:	4604      	mov	r4, r0
 800390e:	4668      	mov	r0, sp
 8003910:	f7fc ff0e 	bl	8000730 <multiply256x256_asm>
 8003914:	4668      	mov	r0, sp
 8003916:	f7ff ffc1 	bl	800389c <sc25519_reduce>
 800391a:	4669      	mov	r1, sp
 800391c:	4620      	mov	r0, r4
 800391e:	f7ff ff39 	bl	8003794 <cpy_256bitvalue>
 8003922:	b010      	add	sp, #64	; 0x40
 8003924:	bd10      	pop	{r4, pc}
 8003926:	bf00      	nop

08003928 <greaterThan>:
 8003928:	b5f0      	push	{r4, r5, r6, r7, lr}
 800392a:	b089      	sub	sp, #36	; 0x24
 800392c:	460c      	mov	r4, r1
 800392e:	4601      	mov	r1, r0
 8003930:	4668      	mov	r0, sp
 8003932:	f7ff ff2f 	bl	8003794 <cpy_256bitvalue>
 8003936:	1f25      	subs	r5, r4, #4
 8003938:	f104 0c1c 	add.w	ip, r4, #28
 800393c:	2000      	movs	r0, #0
 800393e:	f1ad 0404 	sub.w	r4, sp, #4
 8003942:	2100      	movs	r1, #0
 8003944:	f854 7f04 	ldr.w	r7, [r4, #4]!
 8003948:	f855 6f04 	ldr.w	r6, [r5, #4]!
 800394c:	19c2      	adds	r2, r0, r7
 800394e:	f141 0300 	adc.w	r3, r1, #0
 8003952:	1b92      	subs	r2, r2, r6
 8003954:	f163 0300 	sbc.w	r3, r3, #0
 8003958:	4565      	cmp	r5, ip
 800395a:	4618      	mov	r0, r3
 800395c:	6022      	str	r2, [r4, #0]
 800395e:	ea4f 71e3 	mov.w	r1, r3, asr #31
 8003962:	d1ef      	bne.n	8003944 <greaterThan+0x1c>
 8003964:	9807      	ldr	r0, [sp, #28]
 8003966:	0fc0      	lsrs	r0, r0, #31
 8003968:	b009      	add	sp, #36	; 0x24
 800396a:	bdf0      	pop	{r4, r5, r6, r7, pc}

0800396c <sc25519_binary_extended_gcd>:
 800396c:	e92d 47f0 	stmdb	sp!, {r4, r5, r6, r7, r8, r9, sl, lr}
 8003970:	b0c0      	sub	sp, #256	; 0x100
 8003972:	4614      	mov	r4, r2
 8003974:	4606      	mov	r6, r0
 8003976:	a828      	add	r0, sp, #160	; 0xa0
 8003978:	f7ff ff0c 	bl	8003794 <cpy_256bitvalue>
 800397c:	4621      	mov	r1, r4
 800397e:	a830      	add	r0, sp, #192	; 0xc0
 8003980:	f7ff ff08 	bl	8003794 <cpy_256bitvalue>
 8003984:	a820      	add	r0, sp, #128	; 0x80
 8003986:	f7ff feef 	bl	8003768 <setone_256bitvalue>
 800398a:	f89d 30a0 	ldrb.w	r3, [sp, #160]	; 0xa0
 800398e:	07d9      	lsls	r1, r3, #31
 8003990:	46b2      	mov	sl, r6
 8003992:	d50c      	bpl.n	80039ae <sc25519_binary_extended_gcd+0x42>
 8003994:	e010      	b.n	80039b8 <sc25519_binary_extended_gcd+0x4c>
 8003996:	f7ff ff2b 	bl	80037f0 <shiftRightOne>
 800399a:	a830      	add	r0, sp, #192	; 0xc0
 800399c:	f7ff ff28 	bl	80037f0 <shiftRightOne>
 80039a0:	a820      	add	r0, sp, #128	; 0x80
 80039a2:	f7ff ff13 	bl	80037cc <shiftLeftOne>
 80039a6:	f89d 30a0 	ldrb.w	r3, [sp, #160]	; 0xa0
 80039aa:	07da      	lsls	r2, r3, #31
 80039ac:	d404      	bmi.n	80039b8 <sc25519_binary_extended_gcd+0x4c>
 80039ae:	f89d 30c0 	ldrb.w	r3, [sp, #192]	; 0xc0
 80039b2:	07db      	lsls	r3, r3, #31
 80039b4:	a828      	add	r0, sp, #160	; 0xa0
 80039b6:	d5ee      	bpl.n	8003996 <sc25519_binary_extended_gcd+0x2a>
 80039b8:	a928      	add	r1, sp, #160	; 0xa0
 80039ba:	a818      	add	r0, sp, #96	; 0x60
 80039bc:	f7ff feea 	bl	8003794 <cpy_256bitvalue>
 80039c0:	a930      	add	r1, sp, #192	; 0xc0
 80039c2:	a810      	add	r0, sp, #64	; 0x40
 80039c4:	f7ff fee6 	bl	8003794 <cpy_256bitvalue>
 80039c8:	4668      	mov	r0, sp
 80039ca:	f7ff fed9 	bl	8003780 <setzero_256bitvalue>
 80039ce:	a808      	add	r0, sp, #32
 80039d0:	f7ff feca 	bl	8003768 <setone_256bitvalue>
 80039d4:	a838      	add	r0, sp, #224	; 0xe0
 80039d6:	f7ff fed3 	bl	8003780 <setzero_256bitvalue>
 80039da:	ac07      	add	r4, sp, #28
 80039dc:	ad0f      	add	r5, sp, #60	; 0x3c
 80039de:	a938      	add	r1, sp, #224	; 0xe0
 80039e0:	a818      	add	r0, sp, #96	; 0x60
 80039e2:	f7ff ff1f 	bl	8003824 <isEqual_256bitvalue>
 80039e6:	2800      	cmp	r0, #0
 80039e8:	f000 809c 	beq.w	8003b24 <sc25519_binary_extended_gcd+0x1b8>
 80039ec:	f89d 3060 	ldrb.w	r3, [sp, #96]	; 0x60
 80039f0:	07db      	lsls	r3, r3, #31
 80039f2:	d507      	bpl.n	8003a04 <sc25519_binary_extended_gcd+0x98>
 80039f4:	e02b      	b.n	8003a4e <sc25519_binary_extended_gcd+0xe2>
 80039f6:	4668      	mov	r0, sp
 80039f8:	f7ff fefa 	bl	80037f0 <shiftRightOne>
 80039fc:	f89d 3060 	ldrb.w	r3, [sp, #96]	; 0x60
 8003a00:	07de      	lsls	r6, r3, #31
 8003a02:	d424      	bmi.n	8003a4e <sc25519_binary_extended_gcd+0xe2>
 8003a04:	a818      	add	r0, sp, #96	; 0x60
 8003a06:	f7ff fef3 	bl	80037f0 <shiftRightOne>
 8003a0a:	f89d 3000 	ldrb.w	r3, [sp]
 8003a0e:	07df      	lsls	r7, r3, #31
 8003a10:	d5f1      	bpl.n	80039f6 <sc25519_binary_extended_gcd+0x8a>
 8003a12:	f1ad 0104 	sub.w	r1, sp, #4
 8003a16:	a827      	add	r0, sp, #156	; 0x9c
 8003a18:	2200      	movs	r2, #0
 8003a1a:	2300      	movs	r3, #0
 8003a1c:	f851 6f04 	ldr.w	r6, [r1, #4]!
 8003a20:	f850 7f04 	ldr.w	r7, [r0, #4]!
 8003a24:	1992      	adds	r2, r2, r6
 8003a26:	f143 0300 	adc.w	r3, r3, #0
 8003a2a:	ebb2 0807 	subs.w	r8, r2, r7
 8003a2e:	f163 0900 	sbc.w	r9, r3, #0
 8003a32:	428c      	cmp	r4, r1
 8003a34:	464a      	mov	r2, r9
 8003a36:	f8c1 8000 	str.w	r8, [r1]
 8003a3a:	ea4f 73e9 	mov.w	r3, r9, asr #31
 8003a3e:	d1ed      	bne.n	8003a1c <sc25519_binary_extended_gcd+0xb0>
 8003a40:	4668      	mov	r0, sp
 8003a42:	f7ff fed5 	bl	80037f0 <shiftRightOne>
 8003a46:	f89d 3060 	ldrb.w	r3, [sp, #96]	; 0x60
 8003a4a:	07de      	lsls	r6, r3, #31
 8003a4c:	d5da      	bpl.n	8003a04 <sc25519_binary_extended_gcd+0x98>
 8003a4e:	f89d 3040 	ldrb.w	r3, [sp, #64]	; 0x40
 8003a52:	07d8      	lsls	r0, r3, #31
 8003a54:	d425      	bmi.n	8003aa2 <sc25519_binary_extended_gcd+0x136>
 8003a56:	e006      	b.n	8003a66 <sc25519_binary_extended_gcd+0xfa>
 8003a58:	a808      	add	r0, sp, #32
 8003a5a:	f7ff fec9 	bl	80037f0 <shiftRightOne>
 8003a5e:	f89d 3040 	ldrb.w	r3, [sp, #64]	; 0x40
 8003a62:	07da      	lsls	r2, r3, #31
 8003a64:	d41d      	bmi.n	8003aa2 <sc25519_binary_extended_gcd+0x136>
 8003a66:	a810      	add	r0, sp, #64	; 0x40
 8003a68:	f7ff fec2 	bl	80037f0 <shiftRightOne>
 8003a6c:	f89d 3020 	ldrb.w	r3, [sp, #32]
 8003a70:	07d9      	lsls	r1, r3, #31
 8003a72:	d5f1      	bpl.n	8003a58 <sc25519_binary_extended_gcd+0xec>
 8003a74:	4621      	mov	r1, r4
 8003a76:	a827      	add	r0, sp, #156	; 0x9c
 8003a78:	2200      	movs	r2, #0
 8003a7a:	2300      	movs	r3, #0
 8003a7c:	f851 6f04 	ldr.w	r6, [r1, #4]!
 8003a80:	f850 7f04 	ldr.w	r7, [r0, #4]!
 8003a84:	1992      	adds	r2, r2, r6
 8003a86:	f143 0300 	adc.w	r3, r3, #0
 8003a8a:	ebb2 0807 	subs.w	r8, r2, r7
 8003a8e:	f163 0900 	sbc.w	r9, r3, #0
 8003a92:	428d      	cmp	r5, r1
 8003a94:	464a      	mov	r2, r9
 8003a96:	f8c1 8000 	str.w	r8, [r1]
 8003a9a:	ea4f 73e9 	mov.w	r3, r9, asr #31
 8003a9e:	d1ed      	bne.n	8003a7c <sc25519_binary_extended_gcd+0x110>
 8003aa0:	e7da      	b.n	8003a58 <sc25519_binary_extended_gcd+0xec>
 8003aa2:	a910      	add	r1, sp, #64	; 0x40
 8003aa4:	a818      	add	r0, sp, #96	; 0x60
 8003aa6:	f7ff ff3f 	bl	8003928 <greaterThan>
 8003aaa:	2800      	cmp	r0, #0
 8003aac:	d041      	beq.n	8003b32 <sc25519_binary_extended_gcd+0x1c6>
 8003aae:	a910      	add	r1, sp, #64	; 0x40
 8003ab0:	a818      	add	r0, sp, #96	; 0x60
 8003ab2:	f7ff feb7 	bl	8003824 <isEqual_256bitvalue>
 8003ab6:	2800      	cmp	r0, #0
 8003ab8:	d03b      	beq.n	8003b32 <sc25519_binary_extended_gcd+0x1c6>
 8003aba:	a817      	add	r0, sp, #92	; 0x5c
 8003abc:	4686      	mov	lr, r0
 8003abe:	4629      	mov	r1, r5
 8003ac0:	2200      	movs	r2, #0
 8003ac2:	2300      	movs	r3, #0
 8003ac4:	f851 6f04 	ldr.w	r6, [r1, #4]!
 8003ac8:	f850 7f04 	ldr.w	r7, [r0, #4]!
 8003acc:	1992      	adds	r2, r2, r6
 8003ace:	f143 0300 	adc.w	r3, r3, #0
 8003ad2:	ebb2 0807 	subs.w	r8, r2, r7
 8003ad6:	f163 0900 	sbc.w	r9, r3, #0
 8003ada:	458e      	cmp	lr, r1
 8003adc:	464a      	mov	r2, r9
 8003ade:	f8c1 8000 	str.w	r8, [r1]
 8003ae2:	ea4f 73e9 	mov.w	r3, r9, asr #31
 8003ae6:	d1ed      	bne.n	8003ac4 <sc25519_binary_extended_gcd+0x158>
 8003ae8:	4621      	mov	r1, r4
 8003aea:	f1ad 0004 	sub.w	r0, sp, #4
 8003aee:	2200      	movs	r2, #0
 8003af0:	2300      	movs	r3, #0
 8003af2:	f851 6f04 	ldr.w	r6, [r1, #4]!
 8003af6:	f850 7f04 	ldr.w	r7, [r0, #4]!
 8003afa:	1992      	adds	r2, r2, r6
 8003afc:	f143 0300 	adc.w	r3, r3, #0
 8003b00:	ebb2 0807 	subs.w	r8, r2, r7
 8003b04:	f163 0900 	sbc.w	r9, r3, #0
 8003b08:	428d      	cmp	r5, r1
 8003b0a:	464a      	mov	r2, r9
 8003b0c:	f8c1 8000 	str.w	r8, [r1]
 8003b10:	ea4f 73e9 	mov.w	r3, r9, asr #31
 8003b14:	d1ed      	bne.n	8003af2 <sc25519_binary_extended_gcd+0x186>
 8003b16:	a938      	add	r1, sp, #224	; 0xe0
 8003b18:	a818      	add	r0, sp, #96	; 0x60
 8003b1a:	f7ff fe83 	bl	8003824 <isEqual_256bitvalue>
 8003b1e:	2800      	cmp	r0, #0
 8003b20:	f47f af64 	bne.w	80039ec <sc25519_binary_extended_gcd+0x80>
 8003b24:	a908      	add	r1, sp, #32
 8003b26:	4650      	mov	r0, sl
 8003b28:	f7ff fe34 	bl	8003794 <cpy_256bitvalue>
 8003b2c:	b040      	add	sp, #256	; 0x100
 8003b2e:	e8bd 87f0 	ldmia.w	sp!, {r4, r5, r6, r7, r8, r9, sl, pc}
 8003b32:	a917      	add	r1, sp, #92	; 0x5c
 8003b34:	4628      	mov	r0, r5
 8003b36:	f10d 0e7c 	add.w	lr, sp, #124	; 0x7c
 8003b3a:	2200      	movs	r2, #0
 8003b3c:	2300      	movs	r3, #0
 8003b3e:	f851 6f04 	ldr.w	r6, [r1, #4]!
 8003b42:	f850 7f04 	ldr.w	r7, [r0, #4]!
 8003b46:	1992      	adds	r2, r2, r6
 8003b48:	f143 0300 	adc.w	r3, r3, #0
 8003b4c:	ebb2 0807 	subs.w	r8, r2, r7
 8003b50:	f163 0900 	sbc.w	r9, r3, #0
 8003b54:	458e      	cmp	lr, r1
 8003b56:	464a      	mov	r2, r9
 8003b58:	f8c1 8000 	str.w	r8, [r1]
 8003b5c:	ea4f 73e9 	mov.w	r3, r9, asr #31
 8003b60:	d1ed      	bne.n	8003b3e <sc25519_binary_extended_gcd+0x1d2>
 8003b62:	f1ad 0104 	sub.w	r1, sp, #4
 8003b66:	4620      	mov	r0, r4
 8003b68:	2200      	movs	r2, #0
 8003b6a:	2300      	movs	r3, #0
 8003b6c:	f851 6f04 	ldr.w	r6, [r1, #4]!
 8003b70:	f850 7f04 	ldr.w	r7, [r0, #4]!
 8003b74:	1992      	adds	r2, r2, r6
 8003b76:	f143 0300 	adc.w	r3, r3, #0
 8003b7a:	ebb2 0807 	subs.w	r8, r2, r7
 8003b7e:	f163 0900 	sbc.w	r9, r3, #0
 8003b82:	428c      	cmp	r4, r1
 8003b84:	464a      	mov	r2, r9
 8003b86:	f8c1 8000 	str.w	r8, [r1]
 8003b8a:	ea4f 73e9 	mov.w	r3, r9, asr #31
 8003b8e:	d1ed      	bne.n	8003b6c <sc25519_binary_extended_gcd+0x200>
 8003b90:	e725      	b.n	80039de <sc25519_binary_extended_gcd+0x72>
 8003b92:	bf00      	nop

08003b94 <sc25519_inverse>:
 8003b94:	e92d 41f0 	stmdb	sp!, {r4, r5, r6, r7, r8, lr}
 8003b98:	4d19      	ldr	r5, [pc, #100]	; (8003c00 <sc25519_inverse+0x6c>)
 8003b9a:	4680      	mov	r8, r0
 8003b9c:	460e      	mov	r6, r1
 8003b9e:	cd0f      	ldmia	r5!, {r0, r1, r2, r3}
 8003ba0:	b088      	sub	sp, #32
 8003ba2:	466c      	mov	r4, sp
 8003ba4:	c40f      	stmia	r4!, {r0, r1, r2, r3}
 8003ba6:	e895 000f 	ldmia.w	r5, {r0, r1, r2, r3}
 8003baa:	e884 000f 	stmia.w	r4, {r0, r1, r2, r3}
 8003bae:	4632      	mov	r2, r6
 8003bb0:	4640      	mov	r0, r8
 8003bb2:	4669      	mov	r1, sp
 8003bb4:	f7ff feda 	bl	800396c <sc25519_binary_extended_gcd>
 8003bb8:	f8d8 301c 	ldr.w	r3, [r8, #28]
 8003bbc:	2b00      	cmp	r3, #0
 8003bbe:	da1c      	bge.n	8003bfa <sc25519_inverse+0x66>
 8003bc0:	f1a8 0e04 	sub.w	lr, r8, #4
 8003bc4:	f108 0c1c 	add.w	ip, r8, #28
 8003bc8:	4673      	mov	r3, lr
 8003bca:	f1ad 0204 	sub.w	r2, sp, #4
 8003bce:	2600      	movs	r6, #0
 8003bd0:	2700      	movs	r7, #0
 8003bd2:	f853 0f04 	ldr.w	r0, [r3, #4]!
 8003bd6:	f852 1f04 	ldr.w	r1, [r2, #4]!
 8003bda:	1834      	adds	r4, r6, r0
 8003bdc:	f147 0500 	adc.w	r5, r7, #0
 8003be0:	1864      	adds	r4, r4, r1
 8003be2:	f145 0500 	adc.w	r5, r5, #0
 8003be6:	459c      	cmp	ip, r3
 8003be8:	462e      	mov	r6, r5
 8003bea:	601c      	str	r4, [r3, #0]
 8003bec:	ea4f 77e5 	mov.w	r7, r5, asr #31
 8003bf0:	d1ef      	bne.n	8003bd2 <sc25519_inverse+0x3e>
 8003bf2:	f8d8 301c 	ldr.w	r3, [r8, #28]
 8003bf6:	2b00      	cmp	r3, #0
 8003bf8:	dbe6      	blt.n	8003bc8 <sc25519_inverse+0x34>
 8003bfa:	b008      	add	sp, #32
 8003bfc:	e8bd 81f0 	ldmia.w	sp!, {r4, r5, r6, r7, r8, pc}
 8003c00:	08003fd8 	.word	0x08003fd8

08003c04 <pcg32_srandom>:
 8003c04:	1892      	adds	r2, r2, r2
 8003c06:	b4f0      	push	{r4, r5, r6, r7}
 8003c08:	f042 0201 	orr.w	r2, r2, #1
 8003c0c:	4c0b      	ldr	r4, [pc, #44]	; (8003c3c <pcg32_srandom+0x38>)
 8003c0e:	4e0c      	ldr	r6, [pc, #48]	; (8003c40 <pcg32_srandom+0x3c>)
 8003c10:	4d0c      	ldr	r5, [pc, #48]	; (8003c44 <pcg32_srandom+0x40>)
 8003c12:	415b      	adcs	r3, r3
 8003c14:	1880      	adds	r0, r0, r2
 8003c16:	eb43 0101 	adc.w	r1, r3, r1
 8003c1a:	fb04 f400 	mul.w	r4, r4, r0
 8003c1e:	fb06 4401 	mla	r4, r6, r1, r4
 8003c22:	fba0 6706 	umull	r6, r7, r0, r6
 8003c26:	18b0      	adds	r0, r6, r2
 8003c28:	4427      	add	r7, r4
 8003c2a:	eb43 0107 	adc.w	r1, r3, r7
 8003c2e:	e9c5 0100 	strd	r0, r1, [r5]
 8003c32:	e9c5 2302 	strd	r2, r3, [r5, #8]
 8003c36:	bcf0      	pop	{r4, r5, r6, r7}
 8003c38:	4770      	bx	lr
 8003c3a:	bf00      	nop
 8003c3c:	5851f42d 	.word	0x5851f42d
 8003c40:	4c957f2d 	.word	0x4c957f2d
 8003c44:	20000100 	.word	0x20000100

08003c48 <pcg32_random>:
 8003c48:	4a11      	ldr	r2, [pc, #68]	; (8003c90 <pcg32_random+0x48>)
 8003c4a:	b4f0      	push	{r4, r5, r6, r7}
 8003c4c:	e9d2 7000 	ldrd	r7, r0, [r2]
 8003c50:	4e10      	ldr	r6, [pc, #64]	; (8003c94 <pcg32_random+0x4c>)
 8003c52:	4c11      	ldr	r4, [pc, #68]	; (8003c98 <pcg32_random+0x50>)
 8003c54:	6891      	ldr	r1, [r2, #8]
 8003c56:	fb06 f607 	mul.w	r6, r6, r7
 8003c5a:	0cbb      	lsrs	r3, r7, #18
 8003c5c:	fb04 6600 	mla	r6, r4, r0, r6
 8003c60:	ea43 3380 	orr.w	r3, r3, r0, lsl #14
 8003c64:	fba7 4504 	umull	r4, r5, r7, r4
 8003c68:	4435      	add	r5, r6
 8003c6a:	407b      	eors	r3, r7
 8003c6c:	68d6      	ldr	r6, [r2, #12]
 8003c6e:	1909      	adds	r1, r1, r4
 8003c70:	ea4f 63d3 	mov.w	r3, r3, lsr #27
 8003c74:	ea80 4490 	eor.w	r4, r0, r0, lsr #18
 8003c78:	eb45 0606 	adc.w	r6, r5, r6
 8003c7c:	ea43 1344 	orr.w	r3, r3, r4, lsl #5
 8003c80:	0ec0      	lsrs	r0, r0, #27
 8003c82:	e9c2 1600 	strd	r1, r6, [r2]
 8003c86:	fa63 f000 	ror.w	r0, r3, r0
 8003c8a:	bcf0      	pop	{r4, r5, r6, r7}
 8003c8c:	4770      	bx	lr
 8003c8e:	bf00      	nop
 8003c90:	20000100 	.word	0x20000100
 8003c94:	5851f42d 	.word	0x5851f42d
 8003c98:	4c957f2d 	.word	0x4c957f2d

08003c9c <cSwapAndRandomize_asm>:
 8003c9c:	e92d 4ff0 	stmdb	sp!, {r4, r5, r6, r7, r8, r9, sl, fp, lr}
 8003ca0:	b082      	sub	sp, #8
 8003ca2:	f043 0301 	orr.w	r3, r3, #1
 8003ca6:	ea80 0403 	eor.w	r4, r0, r3
 8003caa:	f420 407f 	bic.w	r0, r0, #65280	; 0xff00
 8003cae:	f424 447f 	bic.w	r4, r4, #65280	; 0xff00
 8003cb2:	ea4f 3373 	mov.w	r3, r3, ror #13
 8003cb6:	f020 00fe 	bic.w	r0, r0, #254	; 0xfe
 8003cba:	f024 04fe 	bic.w	r4, r4, #254	; 0xfe
 8003cbe:	f023 2380 	bic.w	r3, r3, #2147516416	; 0x80008000
 8003cc2:	f101 0e1c 	add.w	lr, r1, #28
 8003cc6:	f8cd e000 	str.w	lr, [sp]
 8003cca:	69cd      	ldr	r5, [r1, #28]
 8003ccc:	69d6      	ldr	r6, [r2, #28]
 8003cce:	fb00 f705 	mul.w	r7, r0, r5
 8003cd2:	fb00 f806 	mul.w	r8, r0, r6
 8003cd6:	fbe4 7a06 	umlal	r7, sl, r4, r6
 8003cda:	fbe4 8a05 	umlal	r8, sl, r4, r5
 8003cde:	b2bf      	uxth	r7, r7
 8003ce0:	fa1f f888 	uxth.w	r8, r8
 8003ce4:	fba3 9a07 	umull	r9, sl, r3, r7
 8003ce8:	ea4f 4333 	mov.w	r3, r3, ror #16
 8003cec:	fba3 be08 	umull	fp, lr, r3, r8
 8003cf0:	ea4f 4333 	mov.w	r3, r3, ror #16
 8003cf4:	ea4f 4535 	mov.w	r5, r5, ror #16
 8003cf8:	ea4f 4636 	mov.w	r6, r6, ror #16
 8003cfc:	fb00 f705 	mul.w	r7, r0, r5
 8003d00:	fb00 f806 	mul.w	r8, r0, r6
 8003d04:	fbe4 7606 	umlal	r7, r6, r4, r6
 8003d08:	fbe4 8505 	umlal	r8, r5, r4, r5
 8003d0c:	ea4f 4707 	mov.w	r7, r7, lsl #16
 8003d10:	ea4f 4808 	mov.w	r8, r8, lsl #16
 8003d14:	fbe3 9a07 	umlal	r9, sl, r3, r7
 8003d18:	ea4f 4333 	mov.w	r3, r3, ror #16
 8003d1c:	fbe3 be08 	umlal	fp, lr, r3, r8
 8003d20:	ea4f 4333 	mov.w	r3, r3, ror #16
 8003d24:	f029 4500 	bic.w	r5, r9, #2147483648	; 0x80000000
 8003d28:	f02b 4600 	bic.w	r6, fp, #2147483648	; 0x80000000
 8003d2c:	61d5      	str	r5, [r2, #28]
 8003d2e:	61ce      	str	r6, [r1, #28]
 8003d30:	ea4f 79d9 	mov.w	r9, r9, lsr #31
 8003d34:	ea4f 7bdb 	mov.w	fp, fp, lsr #31
 8003d38:	ea49 094a 	orr.w	r9, r9, sl, lsl #1
 8003d3c:	ea4b 0b4e 	orr.w	fp, fp, lr, lsl #1
 8003d40:	f04f 0513 	mov.w	r5, #19
 8003d44:	fba9 9a05 	umull	r9, sl, r9, r5
 8003d48:	fbab be05 	umull	fp, lr, fp, r5

08003d4c <.loopStart>:
 8003d4c:	9101      	str	r1, [sp, #4]
 8003d4e:	680d      	ldr	r5, [r1, #0]
 8003d50:	6816      	ldr	r6, [r2, #0]
 8003d52:	fb00 f705 	mul.w	r7, r0, r5
 8003d56:	fb00 f806 	mul.w	r8, r0, r6
 8003d5a:	fbe4 7106 	umlal	r7, r1, r4, r6
 8003d5e:	fbe4 8105 	umlal	r8, r1, r4, r5
 8003d62:	b2bf      	uxth	r7, r7
 8003d64:	fa1f f888 	uxth.w	r8, r8
 8003d68:	fbe3 9a07 	umlal	r9, sl, r3, r7
 8003d6c:	ea4f 4333 	mov.w	r3, r3, ror #16
 8003d70:	fbe3 be08 	umlal	fp, lr, r3, r8
 8003d74:	ea4f 4333 	mov.w	r3, r3, ror #16
 8003d78:	ea4f 4535 	mov.w	r5, r5, ror #16
 8003d7c:	ea4f 4636 	mov.w	r6, r6, ror #16
 8003d80:	fb00 f705 	mul.w	r7, r0, r5
 8003d84:	fb00 f806 	mul.w	r8, r0, r6
 8003d88:	fbe4 7606 	umlal	r7, r6, r4, r6
 8003d8c:	fbe4 8505 	umlal	r8, r5, r4, r5
 8003d90:	ea4f 4707 	mov.w	r7, r7, lsl #16
 8003d94:	ea4f 4808 	mov.w	r8, r8, lsl #16
 8003d98:	fbe3 9a07 	umlal	r9, sl, r3, r7
 8003d9c:	ea4f 4333 	mov.w	r3, r3, ror #16
 8003da0:	fbe3 be08 	umlal	fp, lr, r3, r8
 8003da4:	ea4f 4333 	mov.w	r3, r3, ror #16
 8003da8:	f8c2 9000 	str.w	r9, [r2]
 8003dac:	9901      	ldr	r1, [sp, #4]
 8003dae:	f8c1 b000 	str.w	fp, [r1]
 8003db2:	46d1      	mov	r9, sl
 8003db4:	46f3      	mov	fp, lr
 8003db6:	f04f 0a00 	mov.w	sl, #0
 8003dba:	f04f 0e00 	mov.w	lr, #0
 8003dbe:	f101 0104 	add.w	r1, r1, #4
 8003dc2:	f102 0204 	add.w	r2, r2, #4
 8003dc6:	9d00      	ldr	r5, [sp, #0]
 8003dc8:	42a9      	cmp	r1, r5
 8003dca:	d1bf      	bne.n	8003d4c <.loopStart>
 8003dcc:	6815      	ldr	r5, [r2, #0]
 8003dce:	680e      	ldr	r6, [r1, #0]
 8003dd0:	444d      	add	r5, r9
 8003dd2:	445e      	add	r6, fp
 8003dd4:	6015      	str	r5, [r2, #0]
 8003dd6:	600e      	str	r6, [r1, #0]
 8003dd8:	e8bd 8ff3 	ldmia.w	sp!, {r0, r1, r4, r5, r6, r7, r8, r9, sl, fp, pc}

08003ddc <memset>:
 8003ddc:	b4f0      	push	{r4, r5, r6, r7}
 8003dde:	0786      	lsls	r6, r0, #30
 8003de0:	d046      	beq.n	8003e70 <memset+0x94>
 8003de2:	1e54      	subs	r4, r2, #1
 8003de4:	2a00      	cmp	r2, #0
 8003de6:	d03c      	beq.n	8003e62 <memset+0x86>
 8003de8:	b2ca      	uxtb	r2, r1
 8003dea:	4603      	mov	r3, r0
 8003dec:	e001      	b.n	8003df2 <memset+0x16>
 8003dee:	3c01      	subs	r4, #1
 8003df0:	d337      	bcc.n	8003e62 <memset+0x86>
 8003df2:	f803 2b01 	strb.w	r2, [r3], #1
 8003df6:	079d      	lsls	r5, r3, #30
 8003df8:	d1f9      	bne.n	8003dee <memset+0x12>
 8003dfa:	2c03      	cmp	r4, #3
 8003dfc:	d92a      	bls.n	8003e54 <memset+0x78>
 8003dfe:	b2cd      	uxtb	r5, r1
 8003e00:	ea45 2505 	orr.w	r5, r5, r5, lsl #8
 8003e04:	2c0f      	cmp	r4, #15
 8003e06:	ea45 4505 	orr.w	r5, r5, r5, lsl #16
 8003e0a:	d934      	bls.n	8003e76 <memset+0x9a>
 8003e0c:	f1a4 0210 	sub.w	r2, r4, #16
 8003e10:	f022 0c0f 	bic.w	ip, r2, #15
 8003e14:	f103 0720 	add.w	r7, r3, #32
 8003e18:	0916      	lsrs	r6, r2, #4
 8003e1a:	4467      	add	r7, ip
 8003e1c:	f103 0210 	add.w	r2, r3, #16
 8003e20:	e942 5504 	strd	r5, r5, [r2, #-16]
 8003e24:	e942 5502 	strd	r5, r5, [r2, #-8]
 8003e28:	3210      	adds	r2, #16
 8003e2a:	42ba      	cmp	r2, r7
 8003e2c:	d1f8      	bne.n	8003e20 <memset+0x44>
 8003e2e:	1c72      	adds	r2, r6, #1
 8003e30:	f014 0f0c 	tst.w	r4, #12
 8003e34:	eb03 1202 	add.w	r2, r3, r2, lsl #4
 8003e38:	f004 060f 	and.w	r6, r4, #15
 8003e3c:	d013      	beq.n	8003e66 <memset+0x8a>
 8003e3e:	1f33      	subs	r3, r6, #4
 8003e40:	f023 0303 	bic.w	r3, r3, #3
 8003e44:	3304      	adds	r3, #4
 8003e46:	4413      	add	r3, r2
 8003e48:	f842 5b04 	str.w	r5, [r2], #4
 8003e4c:	4293      	cmp	r3, r2
 8003e4e:	d1fb      	bne.n	8003e48 <memset+0x6c>
 8003e50:	f006 0403 	and.w	r4, r6, #3
 8003e54:	b12c      	cbz	r4, 8003e62 <memset+0x86>
 8003e56:	b2ca      	uxtb	r2, r1
 8003e58:	441c      	add	r4, r3
 8003e5a:	f803 2b01 	strb.w	r2, [r3], #1
 8003e5e:	429c      	cmp	r4, r3
 8003e60:	d1fb      	bne.n	8003e5a <memset+0x7e>
 8003e62:	bcf0      	pop	{r4, r5, r6, r7}
 8003e64:	4770      	bx	lr
 8003e66:	4634      	mov	r4, r6
 8003e68:	4613      	mov	r3, r2
 8003e6a:	2c00      	cmp	r4, #0
 8003e6c:	d1f3      	bne.n	8003e56 <memset+0x7a>
 8003e6e:	e7f8      	b.n	8003e62 <memset+0x86>
 8003e70:	4614      	mov	r4, r2
 8003e72:	4603      	mov	r3, r0
 8003e74:	e7c1      	b.n	8003dfa <memset+0x1e>
 8003e76:	461a      	mov	r2, r3
 8003e78:	4626      	mov	r6, r4
 8003e7a:	e7e0      	b.n	8003e3e <memset+0x62>

08003e7c <blocking_handler>:
 8003e7c:	e7fe      	b.n	8003e7c <blocking_handler>

08003e7e <null_handler>:
 8003e7e:	4770      	bx	lr

08003e80 <reset_handler>:
 8003e80:	b538      	push	{r3, r4, r5, lr}
 8003e82:	4a1a      	ldr	r2, [pc, #104]	; (8003eec <reset_handler+0x6c>)
 8003e84:	4b1a      	ldr	r3, [pc, #104]	; (8003ef0 <reset_handler+0x70>)
 8003e86:	491b      	ldr	r1, [pc, #108]	; (8003ef4 <reset_handler+0x74>)
 8003e88:	428b      	cmp	r3, r1
 8003e8a:	d31b      	bcc.n	8003ec4 <reset_handler+0x44>
 8003e8c:	4a1a      	ldr	r2, [pc, #104]	; (8003ef8 <reset_handler+0x78>)
 8003e8e:	2100      	movs	r1, #0
 8003e90:	4293      	cmp	r3, r2
 8003e92:	d31c      	bcc.n	8003ece <reset_handler+0x4e>
 8003e94:	4a19      	ldr	r2, [pc, #100]	; (8003efc <reset_handler+0x7c>)
 8003e96:	4c1a      	ldr	r4, [pc, #104]	; (8003f00 <reset_handler+0x80>)
 8003e98:	6813      	ldr	r3, [r2, #0]
 8003e9a:	4d1a      	ldr	r5, [pc, #104]	; (8003f04 <reset_handler+0x84>)
 8003e9c:	f443 7300 	orr.w	r3, r3, #512	; 0x200
 8003ea0:	6013      	str	r3, [r2, #0]
 8003ea2:	6f53      	ldr	r3, [r2, #116]	; 0x74
 8003ea4:	f443 0370 	orr.w	r3, r3, #15728640	; 0xf00000
 8003ea8:	6753      	str	r3, [r2, #116]	; 0x74
 8003eaa:	42ac      	cmp	r4, r5
 8003eac:	d312      	bcc.n	8003ed4 <reset_handler+0x54>
 8003eae:	4c16      	ldr	r4, [pc, #88]	; (8003f08 <reset_handler+0x88>)
 8003eb0:	4d16      	ldr	r5, [pc, #88]	; (8003f0c <reset_handler+0x8c>)
 8003eb2:	42ac      	cmp	r4, r5
 8003eb4:	d312      	bcc.n	8003edc <reset_handler+0x5c>
 8003eb6:	f7fc f97b 	bl	80001b0 <main>
 8003eba:	4c15      	ldr	r4, [pc, #84]	; (8003f10 <reset_handler+0x90>)
 8003ebc:	4d15      	ldr	r5, [pc, #84]	; (8003f14 <reset_handler+0x94>)
 8003ebe:	42ac      	cmp	r4, r5
 8003ec0:	d310      	bcc.n	8003ee4 <reset_handler+0x64>
 8003ec2:	bd38      	pop	{r3, r4, r5, pc}
 8003ec4:	f852 0b04 	ldr.w	r0, [r2], #4
 8003ec8:	f843 0b04 	str.w	r0, [r3], #4
 8003ecc:	e7dc      	b.n	8003e88 <reset_handler+0x8>
 8003ece:	f843 1b04 	str.w	r1, [r3], #4
 8003ed2:	e7dd      	b.n	8003e90 <reset_handler+0x10>
 8003ed4:	f854 3b04 	ldr.w	r3, [r4], #4
 8003ed8:	4798      	blx	r3
 8003eda:	e7e6      	b.n	8003eaa <reset_handler+0x2a>
 8003edc:	f854 3b04 	ldr.w	r3, [r4], #4
 8003ee0:	4798      	blx	r3
 8003ee2:	e7e6      	b.n	8003eb2 <reset_handler+0x32>
 8003ee4:	f854 3b04 	ldr.w	r3, [r4], #4
 8003ee8:	4798      	blx	r3
 8003eea:	e7e8      	b.n	8003ebe <reset_handler+0x3e>
 8003eec:	08004044 	.word	0x08004044
 8003ef0:	20000000 	.word	0x20000000
 8003ef4:	20000110 	.word	0x20000110
 8003ef8:	20000110 	.word	0x20000110
 8003efc:	e000ed14 	.word	0xe000ed14
 8003f00:	08004044 	.word	0x08004044
 8003f04:	08004044 	.word	0x08004044
 8003f08:	08004044 	.word	0x08004044
 8003f0c:	08004044 	.word	0x08004044
 8003f10:	08004044 	.word	0x08004044
 8003f14:	08004044 	.word	0x08004044
 8003f18:	ef4b520f 	.word	0xef4b520f
 8003f1c:	8f25127e 	.word	0x8f25127e
 8003f20:	d9fceed9 	.word	0xd9fceed9
 8003f24:	1eb268e4 	.word	0x1eb268e4
 8003f28:	cc903d54 	.word	0xcc903d54
 8003f2c:	47b3544a 	.word	0x47b3544a
 8003f30:	96c58cf4 	.word	0x96c58cf4
 8003f34:	32f4eb9f 	.word	0x32f4eb9f
 8003f38:	3eed00b8 	.word	0x3eed00b8
 8003f3c:	a77fc6e5 	.word	0xa77fc6e5
 8003f40:	59302853 	.word	0x59302853
 8003f44:	895add44 	.word	0x895add44
 8003f48:	dd603f66 	.word	0xdd603f66
 8003f4c:	bb481ecc 	.word	0xbb481ecc
 8003f50:	195bf5e0 	.word	0x195bf5e0
 8003f54:	179d3025 	.word	0x179d3025
 8003f58:	3265bb96 	.word	0x3265bb96
 8003f5c:	8fa12004 	.word	0x8fa12004
 8003f60:	0e2c0453 	.word	0x0e2c0453
 8003f64:	dddb51dd 	.word	0xdddb51dd
 8003f68:	65b9f0ac 	.word	0x65b9f0ac
 8003f6c:	9244772f 	.word	0x9244772f
 8003f70:	68a9eb64 	.word	0x68a9eb64
 8003f74:	5383ad35 	.word	0x5383ad35
 8003f78:	8caad036 	.word	0x8caad036
 8003f7c:	3f3437fe 	.word	0x3f3437fe
 8003f80:	db1d2751 	.word	0xdb1d2751
 8003f84:	d30fd44b 	.word	0xd30fd44b
 8003f88:	a0807062 	.word	0xa0807062
 8003f8c:	5f485ce5 	.word	0x5f485ce5
 8003f90:	534f4adf 	.word	0x534f4adf
 8003f94:	32618be2 	.word	0x32618be2

08003f98 <CON486662>:
 8003f98:	00076d06 00000000 00000000 00000000     .m..............
	...
 8003fb8:	ffffffec ffffffff ffffffff ffffffff     ................
 8003fc8:	ffffffff ffffffff ffffffff 7fffffff     ................
 8003fd8:	5cf5d3ed 5812631a a2f79cd6 14def9de     ...\.c.X........
	...
 8003ff4:	10000000                                ....

08003ff8 <sc25519_scalar>:
 8003ff8:	5cf5d3ed 5812631a a2f79cd6 14def9de     ...\.c.X........
	...
 8004014:	10000000 00000000 00000000              ............

08004020 <u32_mu.5878>:
 8004020:	0a2c131b ed9ce5a3 086329a7 2106215d     ..,......)c.]!.!
 8004030:	ffffffeb ffffffff ffffffff ffffffff     ................
 8004040:	0000000f                                ....
