
eval.elf:     file format elf32-littlearm


Disassembly of section .text:

08000000 <vector_table>:
 8000000:	00 00 01 10 bd 3d 00 08 bb 3d 00 08 b9 3d 00 08     .....=...=...=..
 8000010:	b9 3d 00 08 b9 3d 00 08 b9 3d 00 08 00 00 00 00     .=...=...=......
	...
 800002c:	bb 3d 00 08 bb 3d 00 08 00 00 00 00 bb 3d 00 08     .=...=.......=..
 800003c:	bb 3d 00 08 b9 3d 00 08 b9 3d 00 08 b9 3d 00 08     .=...=...=...=..
 800004c:	b9 3d 00 08 b9 3d 00 08 b9 3d 00 08 b9 3d 00 08     .=...=...=...=..
 800005c:	b9 3d 00 08 b9 3d 00 08 b9 3d 00 08 b9 3d 00 08     .=...=...=...=..
 800006c:	b9 3d 00 08 b9 3d 00 08 b9 3d 00 08 b9 3d 00 08     .=...=...=...=..
 800007c:	b9 3d 00 08 b9 3d 00 08 b9 3d 00 08 b9 3d 00 08     .=...=...=...=..
 800008c:	b9 3d 00 08 b9 3d 00 08 b9 3d 00 08 b9 3d 00 08     .=...=...=...=..
 800009c:	b9 3d 00 08 b9 3d 00 08 b9 3d 00 08 b9 3d 00 08     .=...=...=...=..
 80000ac:	b9 3d 00 08 b9 3d 00 08 b9 3d 00 08 b9 3d 00 08     .=...=...=...=..
 80000bc:	b9 3d 00 08 b9 3d 00 08 b9 3d 00 08 b9 3d 00 08     .=...=...=...=..
 80000cc:	b9 3d 00 08 b9 3d 00 08 b9 3d 00 08 b9 3d 00 08     .=...=...=...=..
 80000dc:	b9 3d 00 08 b9 3d 00 08 b9 3d 00 08 b9 3d 00 08     .=...=...=...=..
 80000ec:	b9 3d 00 08 b9 3d 00 08 b9 3d 00 08 b9 3d 00 08     .=...=...=...=..
 80000fc:	b9 3d 00 08 b9 3d 00 08 b9 3d 00 08 b9 3d 00 08     .=...=...=...=..
 800010c:	b9 3d 00 08 b9 3d 00 08 b9 3d 00 08 b9 3d 00 08     .=...=...=...=..
 800011c:	b9 3d 00 08 b9 3d 00 08 b9 3d 00 08 b9 3d 00 08     .=...=...=...=..
 800012c:	b9 3d 00 08 b9 3d 00 08 b9 3d 00 08 b9 3d 00 08     .=...=...=...=..
 800013c:	b9 3d 00 08 b9 3d 00 08 b9 3d 00 08 b9 3d 00 08     .=...=...=...=..
 800014c:	b9 3d 00 08 b9 3d 00 08 b9 3d 00 08 b9 3d 00 08     .=...=...=...=..
 800015c:	b9 3d 00 08 b9 3d 00 08 b9 3d 00 08 b9 3d 00 08     .=...=...=...=..
 800016c:	b9 3d 00 08 b9 3d 00 08 b9 3d 00 08 b9 3d 00 08     .=...=...=...=..
 800017c:	b9 3d 00 08 b9 3d 00 08 b9 3d 00 08 b9 3d 00 08     .=...=...=...=..
 800018c:	b9 3d 00 08 b9 3d 00 08 b9 3d 00 08 b9 3d 00 08     .=...=...=...=..
 800019c:	b9 3d 00 08 b9 3d 00 08 b9 3d 00 08 b9 3d 00 08     .=...=...=...=..

080001ac <main>:
 80001ac:	e92d 4ff0 	stmdb	sp!, {r4, r5, r6, r7, r8, r9, sl, fp, lr}
 80001b0:	4c31      	ldr	r4, [pc, #196]	@ (8000278 <main+0xcc>)
 80001b2:	46a3      	mov	fp, r4
 80001b4:	e8bb 000f 	ldmia.w	fp!, {r0, r1, r2, r3}
 80001b8:	b0cd      	sub	sp, #308	@ 0x134
 80001ba:	f10d 0910 	add.w	r9, sp, #16
 80001be:	46ca      	mov	sl, r9
 80001c0:	e8aa 000f 	stmia.w	sl!, {r0, r1, r2, r3}
 80001c4:	e89b 000f 	ldmia.w	fp, {r0, r1, r2, r3}
 80001c8:	f104 0820 	add.w	r8, r4, #32
 80001cc:	e88a 000f 	stmia.w	sl, {r0, r1, r2, r3}
 80001d0:	e8b8 000f 	ldmia.w	r8!, {r0, r1, r2, r3}
 80001d4:	af0c      	add	r7, sp, #48	@ 0x30
 80001d6:	c70f      	stmia	r7!, {r0, r1, r2, r3}
 80001d8:	e898 000f 	ldmia.w	r8, {r0, r1, r2, r3}
 80001dc:	f104 0640 	add.w	r6, r4, #64	@ 0x40
 80001e0:	e887 000f 	stmia.w	r7, {r0, r1, r2, r3}
 80001e4:	ce0f      	ldmia	r6!, {r0, r1, r2, r3}
 80001e6:	ad14      	add	r5, sp, #80	@ 0x50
 80001e8:	c50f      	stmia	r5!, {r0, r1, r2, r3}
 80001ea:	e896 000f 	ldmia.w	r6, {r0, r1, r2, r3}
 80001ee:	f104 0e60 	add.w	lr, r4, #96	@ 0x60
 80001f2:	e885 000f 	stmia.w	r5, {r0, r1, r2, r3}
 80001f6:	e8be 000f 	ldmia.w	lr!, {r0, r1, r2, r3}
 80001fa:	f10d 0c70 	add.w	ip, sp, #112	@ 0x70
 80001fe:	e8ac 000f 	stmia.w	ip!, {r0, r1, r2, r3}
 8000202:	e89e 000f 	ldmia.w	lr, {r0, r1, r2, r3}
 8000206:	e88c 000f 	stmia.w	ip, {r0, r1, r2, r3}
 800020a:	2220      	movs	r2, #32
 800020c:	2100      	movs	r1, #0
 800020e:	a824      	add	r0, sp, #144	@ 0x90
 8000210:	f003 fd74 	bl	8003cfc <memset>
 8000214:	f104 0c80 	add.w	ip, r4, #128	@ 0x80
 8000218:	e8bc 000f 	ldmia.w	ip!, {r0, r1, r2, r3}
 800021c:	ae2c      	add	r6, sp, #176	@ 0xb0
 800021e:	c60f      	stmia	r6!, {r0, r1, r2, r3}
 8000220:	e89c 000f 	ldmia.w	ip, {r0, r1, r2, r3}
 8000224:	34a0      	adds	r4, #160	@ 0xa0
 8000226:	e886 000f 	stmia.w	r6, {r0, r1, r2, r3}
 800022a:	cc0f      	ldmia	r4!, {r0, r1, r2, r3}
 800022c:	ad34      	add	r5, sp, #208	@ 0xd0
 800022e:	c50f      	stmia	r5!, {r0, r1, r2, r3}
 8000230:	e894 000f 	ldmia.w	r4, {r0, r1, r2, r3}
 8000234:	2701      	movs	r7, #1
 8000236:	f10d 08f0 	add.w	r8, sp, #240	@ 0xf0
 800023a:	f88d 7090 	strb.w	r7, [sp, #144]	@ 0x90
 800023e:	e885 000f 	stmia.w	r5, {r0, r1, r2, r3}
 8000242:	2220      	movs	r2, #32
 8000244:	2100      	movs	r1, #0
 8000246:	4640      	mov	r0, r8
 8000248:	f003 fd58 	bl	8003cfc <memset>
 800024c:	ab0c      	add	r3, sp, #48	@ 0x30
 800024e:	9303      	str	r3, [sp, #12]
 8000250:	ab34      	add	r3, sp, #208	@ 0xd0
 8000252:	9300      	str	r3, [sp, #0]
 8000254:	aa24      	add	r2, sp, #144	@ 0x90
 8000256:	ab2c      	add	r3, sp, #176	@ 0xb0
 8000258:	a91c      	add	r1, sp, #112	@ 0x70
 800025a:	a814      	add	r0, sp, #80	@ 0x50
 800025c:	e9cd 8901 	strd	r8, r9, [sp, #4]
 8000260:	f88d 70f0 	strb.w	r7, [sp, #240]	@ 0xf0
 8000264:	f002 fbf0 	bl	8002a48 <set_static_key_curve25519>
 8000268:	4904      	ldr	r1, [pc, #16]	@ (800027c <main+0xd0>)
 800026a:	a844      	add	r0, sp, #272	@ 0x110
 800026c:	f002 fc4a 	bl	8002b04 <crypto_scalarmult_curve25519>
 8000270:	2000      	movs	r0, #0
 8000272:	b04d      	add	sp, #308	@ 0x134
 8000274:	e8bd 8ff0 	ldmia.w	sp!, {r4, r5, r6, r7, r8, r9, sl, fp, pc}
 8000278:	08003e80 	.word	0x08003e80
 800027c:	08003e5c 	.word	0x08003e5c

08000280 <fe25519_reduceTo256Bits_asm>:
 8000280:	b5f0      	push	{r4, r5, r6, r7, lr}
 8000282:	6bca      	ldr	r2, [r1, #60]	@ 0x3c
 8000284:	0c13      	lsrs	r3, r2, #16
 8000286:	b292      	uxth	r2, r2
 8000288:	2726      	movs	r7, #38	@ 0x26
 800028a:	437a      	muls	r2, r7
 800028c:	437b      	muls	r3, r7
 800028e:	69cc      	ldr	r4, [r1, #28]
 8000290:	0c1d      	lsrs	r5, r3, #16
 8000292:	041b      	lsls	r3, r3, #16
 8000294:	2600      	movs	r6, #0
 8000296:	18a4      	adds	r4, r4, r2
 8000298:	4175      	adcs	r5, r6
 800029a:	18e4      	adds	r4, r4, r3
 800029c:	4175      	adcs	r5, r6
 800029e:	0062      	lsls	r2, r4, #1
 80002a0:	0852      	lsrs	r2, r2, #1
 80002a2:	61c2      	str	r2, [r0, #28]
 80002a4:	0fe4      	lsrs	r4, r4, #31
 80002a6:	006d      	lsls	r5, r5, #1
 80002a8:	432c      	orrs	r4, r5
 80002aa:	2213      	movs	r2, #19
 80002ac:	4362      	muls	r2, r4
 80002ae:	680c      	ldr	r4, [r1, #0]
 80002b0:	1912      	adds	r2, r2, r4
 80002b2:	2300      	movs	r3, #0
 80002b4:	4173      	adcs	r3, r6
 80002b6:	6a0c      	ldr	r4, [r1, #32]
 80002b8:	0c25      	lsrs	r5, r4, #16
 80002ba:	b2a4      	uxth	r4, r4
 80002bc:	437d      	muls	r5, r7
 80002be:	437c      	muls	r4, r7
 80002c0:	1912      	adds	r2, r2, r4
 80002c2:	4173      	adcs	r3, r6
 80002c4:	042c      	lsls	r4, r5, #16
 80002c6:	0c2d      	lsrs	r5, r5, #16
 80002c8:	1912      	adds	r2, r2, r4
 80002ca:	416b      	adcs	r3, r5
 80002cc:	6002      	str	r2, [r0, #0]
 80002ce:	684c      	ldr	r4, [r1, #4]
 80002d0:	191b      	adds	r3, r3, r4
 80002d2:	2200      	movs	r2, #0
 80002d4:	4172      	adcs	r2, r6
 80002d6:	6a4c      	ldr	r4, [r1, #36]	@ 0x24
 80002d8:	0c25      	lsrs	r5, r4, #16
 80002da:	b2a4      	uxth	r4, r4
 80002dc:	437d      	muls	r5, r7
 80002de:	437c      	muls	r4, r7
 80002e0:	191b      	adds	r3, r3, r4
 80002e2:	4172      	adcs	r2, r6
 80002e4:	042c      	lsls	r4, r5, #16
 80002e6:	0c2d      	lsrs	r5, r5, #16
 80002e8:	191b      	adds	r3, r3, r4
 80002ea:	416a      	adcs	r2, r5
 80002ec:	6043      	str	r3, [r0, #4]
 80002ee:	688c      	ldr	r4, [r1, #8]
 80002f0:	1912      	adds	r2, r2, r4
 80002f2:	2300      	movs	r3, #0
 80002f4:	4173      	adcs	r3, r6
 80002f6:	6a8c      	ldr	r4, [r1, #40]	@ 0x28
 80002f8:	0c25      	lsrs	r5, r4, #16
 80002fa:	b2a4      	uxth	r4, r4
 80002fc:	437d      	muls	r5, r7
 80002fe:	437c      	muls	r4, r7
 8000300:	1912      	adds	r2, r2, r4
 8000302:	4173      	adcs	r3, r6
 8000304:	042c      	lsls	r4, r5, #16
 8000306:	0c2d      	lsrs	r5, r5, #16
 8000308:	1912      	adds	r2, r2, r4
 800030a:	416b      	adcs	r3, r5
 800030c:	6082      	str	r2, [r0, #8]
 800030e:	68cc      	ldr	r4, [r1, #12]
 8000310:	191b      	adds	r3, r3, r4
 8000312:	2200      	movs	r2, #0
 8000314:	4172      	adcs	r2, r6
 8000316:	6acc      	ldr	r4, [r1, #44]	@ 0x2c
 8000318:	0c25      	lsrs	r5, r4, #16
 800031a:	b2a4      	uxth	r4, r4
 800031c:	437d      	muls	r5, r7
 800031e:	437c      	muls	r4, r7
 8000320:	191b      	adds	r3, r3, r4
 8000322:	4172      	adcs	r2, r6
 8000324:	042c      	lsls	r4, r5, #16
 8000326:	0c2d      	lsrs	r5, r5, #16
 8000328:	191b      	adds	r3, r3, r4
 800032a:	416a      	adcs	r2, r5
 800032c:	60c3      	str	r3, [r0, #12]
 800032e:	690c      	ldr	r4, [r1, #16]
 8000330:	1912      	adds	r2, r2, r4
 8000332:	2300      	movs	r3, #0
 8000334:	4173      	adcs	r3, r6
 8000336:	6b0c      	ldr	r4, [r1, #48]	@ 0x30
 8000338:	0c25      	lsrs	r5, r4, #16
 800033a:	b2a4      	uxth	r4, r4
 800033c:	437d      	muls	r5, r7
 800033e:	437c      	muls	r4, r7
 8000340:	1912      	adds	r2, r2, r4
 8000342:	4173      	adcs	r3, r6
 8000344:	042c      	lsls	r4, r5, #16
 8000346:	0c2d      	lsrs	r5, r5, #16
 8000348:	1912      	adds	r2, r2, r4
 800034a:	416b      	adcs	r3, r5
 800034c:	6102      	str	r2, [r0, #16]
 800034e:	694c      	ldr	r4, [r1, #20]
 8000350:	191b      	adds	r3, r3, r4
 8000352:	2200      	movs	r2, #0
 8000354:	4172      	adcs	r2, r6
 8000356:	6b4c      	ldr	r4, [r1, #52]	@ 0x34
 8000358:	0c25      	lsrs	r5, r4, #16
 800035a:	b2a4      	uxth	r4, r4
 800035c:	437d      	muls	r5, r7
 800035e:	437c      	muls	r4, r7
 8000360:	191b      	adds	r3, r3, r4
 8000362:	4172      	adcs	r2, r6
 8000364:	042c      	lsls	r4, r5, #16
 8000366:	0c2d      	lsrs	r5, r5, #16
 8000368:	191b      	adds	r3, r3, r4
 800036a:	416a      	adcs	r2, r5
 800036c:	6143      	str	r3, [r0, #20]
 800036e:	698c      	ldr	r4, [r1, #24]
 8000370:	1912      	adds	r2, r2, r4
 8000372:	2300      	movs	r3, #0
 8000374:	4173      	adcs	r3, r6
 8000376:	6b8c      	ldr	r4, [r1, #56]	@ 0x38
 8000378:	0c25      	lsrs	r5, r4, #16
 800037a:	b2a4      	uxth	r4, r4
 800037c:	437d      	muls	r5, r7
 800037e:	437c      	muls	r4, r7
 8000380:	1912      	adds	r2, r2, r4
 8000382:	4173      	adcs	r3, r6
 8000384:	042c      	lsls	r4, r5, #16
 8000386:	0c2d      	lsrs	r5, r5, #16
 8000388:	1912      	adds	r2, r2, r4
 800038a:	416b      	adcs	r3, r5
 800038c:	6182      	str	r2, [r0, #24]
 800038e:	69c4      	ldr	r4, [r0, #28]
 8000390:	18e4      	adds	r4, r4, r3
 8000392:	61c4      	str	r4, [r0, #28]
 8000394:	bdf0      	pop	{r4, r5, r6, r7, pc}
 8000396:	bf00      	nop

08000398 <fe25519_square_asm>:
 8000398:	e92d 5ff1 	stmdb	sp!, {r0, r4, r5, r6, r7, r8, r9, sl, fp, ip, lr}
 800039c:	b085      	sub	sp, #20
 800039e:	6808      	ldr	r0, [r1, #0]
 80003a0:	684a      	ldr	r2, [r1, #4]
 80003a2:	688b      	ldr	r3, [r1, #8]
 80003a4:	68cc      	ldr	r4, [r1, #12]
 80003a6:	690d      	ldr	r5, [r1, #16]
 80003a8:	694e      	ldr	r6, [r1, #20]
 80003aa:	fba0 7802 	umull	r7, r8, r0, r2
 80003ae:	fba0 9a00 	umull	r9, sl, r0, r0
 80003b2:	fbe0 7a62 	umaal	r7, sl, r0, r2
 80003b6:	fbe2 8a62 	umaal	r8, sl, r2, r2
 80003ba:	f8cd 9000 	str.w	r9, [sp]
 80003be:	9701      	str	r7, [sp, #4]
 80003c0:	fba0 7904 	umull	r7, r9, r0, r4
 80003c4:	fba0 bc03 	umull	fp, ip, r0, r3
 80003c8:	eb1b 0b0b 	adds.w	fp, fp, fp
 80003cc:	ea8e 0e0e 	eor.w	lr, lr, lr
 80003d0:	fbe8 8b6e 	umaal	r8, fp, r8, lr
 80003d4:	fbea ab6e 	umaal	sl, fp, sl, lr
 80003d8:	f8cd 8008 	str.w	r8, [sp, #8]
 80003dc:	fbe2 7c63 	umaal	r7, ip, r2, r3
 80003e0:	417f      	adcs	r7, r7
 80003e2:	fbe7 7a6e 	umaal	r7, sl, r7, lr
 80003e6:	9703      	str	r7, [sp, #12]
 80003e8:	44da      	add	sl, fp
 80003ea:	698f      	ldr	r7, [r1, #24]
 80003ec:	f8d1 801c 	ldr.w	r8, [r1, #28]
 80003f0:	fba0 1b06 	umull	r1, fp, r0, r6
 80003f4:	fbe0 9c65 	umaal	r9, ip, r0, r5
 80003f8:	fbe2 1c65 	umaal	r1, ip, r2, r5
 80003fc:	fbe0 bc67 	umaal	fp, ip, r0, r7
 8000400:	fbe2 9e04 	umlal	r9, lr, r2, r4
 8000404:	fbe3 1e64 	umaal	r1, lr, r3, r4
 8000408:	fbe2 be66 	umaal	fp, lr, r2, r6
 800040c:	fbe0 ce68 	umaal	ip, lr, r0, r8
 8000410:	eb59 0909 	adcs.w	r9, r9, r9
 8000414:	4149      	adcs	r1, r1
 8000416:	ea80 0000 	eor.w	r0, r0, r0
 800041a:	fbe3 9a63 	umaal	r9, sl, r3, r3
 800041e:	f8cd 9010 	str.w	r9, [sp, #16]
 8000422:	fbe1 1a60 	umaal	r1, sl, r1, r0
 8000426:	fbe3 b005 	umlal	fp, r0, r3, r5
 800042a:	fbe2 0c67 	umaal	r0, ip, r2, r7
 800042e:	fbe2 ce68 	umaal	ip, lr, r2, r8
 8000432:	eb5b 0b0b 	adcs.w	fp, fp, fp
 8000436:	fbe4 ab64 	umaal	sl, fp, r4, r4
 800043a:	ea82 0202 	eor.w	r2, r2, r2
 800043e:	fbe3 0206 	umlal	r0, r2, r3, r6
 8000442:	fbe3 2c67 	umaal	r2, ip, r3, r7
 8000446:	fbe3 ce68 	umaal	ip, lr, r3, r8
 800044a:	ea83 0303 	eor.w	r3, r3, r3
 800044e:	fbe4 0305 	umlal	r0, r3, r4, r5
 8000452:	fbe4 2366 	umaal	r2, r3, r4, r6
 8000456:	fbe4 3c67 	umaal	r3, ip, r4, r7
 800045a:	fbe4 ce68 	umaal	ip, lr, r4, r8
 800045e:	4140      	adcs	r0, r0
 8000460:	ea89 0909 	eor.w	r9, r9, r9
 8000464:	fbe0 0b69 	umaal	r0, fp, r0, r9
 8000468:	4152      	adcs	r2, r2
 800046a:	fbe5 3906 	umlal	r3, r9, r5, r6
 800046e:	fbe5 9c67 	umaal	r9, ip, r5, r7
 8000472:	fbe5 ce68 	umaal	ip, lr, r5, r8
 8000476:	ea84 0404 	eor.w	r4, r4, r4
 800047a:	fbe6 c407 	umlal	ip, r4, r6, r7
 800047e:	fbe6 4e68 	umaal	r4, lr, r6, r8
 8000482:	fbe5 2b65 	umaal	r2, fp, r5, r5
 8000486:	ea85 0505 	eor.w	r5, r5, r5
 800048a:	415b      	adcs	r3, r3
 800048c:	fbe3 3b65 	umaal	r3, fp, r3, r5
 8000490:	fbe7 e508 	umlal	lr, r5, r7, r8
 8000494:	eb59 0909 	adcs.w	r9, r9, r9
 8000498:	eb5c 0c0c 	adcs.w	ip, ip, ip
 800049c:	4164      	adcs	r4, r4
 800049e:	eb5e 0e0e 	adcs.w	lr, lr, lr
 80004a2:	416d      	adcs	r5, r5
 80004a4:	fbe6 9b66 	umaal	r9, fp, r6, r6
 80004a8:	ea86 0606 	eor.w	r6, r6, r6
 80004ac:	fbeb bc66 	umaal	fp, ip, fp, r6
 80004b0:	fbe7 4c67 	umaal	r4, ip, r7, r7
 80004b4:	fbec ce66 	umaal	ip, lr, ip, r6
 80004b8:	fbe8 5e68 	umaal	r5, lr, r8, r8
 80004bc:	eb5e 0e06 	adcs.w	lr, lr, r6
 80004c0:	f04f 0726 	mov.w	r7, #38	@ 0x26
 80004c4:	fbee 0607 	umlal	r0, r6, lr, r7
 80004c8:	f04f 0813 	mov.w	r8, #19
 80004cc:	ea4f 7ed0 	mov.w	lr, r0, lsr #31
 80004d0:	fb0e f808 	mul.w	r8, lr, r8
 80004d4:	ea4f 0040 	mov.w	r0, r0, lsl #1
 80004d8:	ea4f 0050 	mov.w	r0, r0, lsr #1
 80004dc:	f8dd e000 	ldr.w	lr, [sp]
 80004e0:	fbe2 8e67 	umaal	r8, lr, r2, r7
 80004e4:	ea82 0202 	eor.w	r2, r2, r2
 80004e8:	fbe6 8207 	umlal	r8, r2, r6, r7
 80004ec:	4472      	add	r2, lr
 80004ee:	9e05      	ldr	r6, [sp, #20]
 80004f0:	f8dd e004 	ldr.w	lr, [sp, #4]
 80004f4:	f8c6 8000 	str.w	r8, [r6]
 80004f8:	fbe3 2e67 	umaal	r2, lr, r3, r7
 80004fc:	6072      	str	r2, [r6, #4]
 80004fe:	9a02      	ldr	r2, [sp, #8]
 8000500:	9b03      	ldr	r3, [sp, #12]
 8000502:	f8dd 8010 	ldr.w	r8, [sp, #16]
 8000506:	fbe9 2e67 	umaal	r2, lr, r9, r7
 800050a:	60b2      	str	r2, [r6, #8]
 800050c:	fbeb 3e67 	umaal	r3, lr, fp, r7
 8000510:	60f3      	str	r3, [r6, #12]
 8000512:	fbe4 8e67 	umaal	r8, lr, r4, r7
 8000516:	f8c6 8010 	str.w	r8, [r6, #16]
 800051a:	fbec 1e67 	umaal	r1, lr, ip, r7
 800051e:	6171      	str	r1, [r6, #20]
 8000520:	fbe5 ae67 	umaal	sl, lr, r5, r7
 8000524:	f8c6 a018 	str.w	sl, [r6, #24]
 8000528:	4470      	add	r0, lr
 800052a:	61f0      	str	r0, [r6, #28]
 800052c:	b006      	add	sp, #24
 800052e:	e8bd 9ff0 	ldmia.w	sp!, {r4, r5, r6, r7, r8, r9, sl, fp, ip, pc}
 8000532:	bf00      	nop

08000534 <fe25519_mul_asm>:
 8000534:	e92d 5ff7 	stmdb	sp!, {r0, r1, r2, r4, r5, r6, r7, r8, r9, sl, fp, ip, lr}
 8000538:	b088      	sub	sp, #32
 800053a:	6810      	ldr	r0, [r2, #0]
 800053c:	6853      	ldr	r3, [r2, #4]
 800053e:	6894      	ldr	r4, [r2, #8]
 8000540:	68d5      	ldr	r5, [r2, #12]
 8000542:	6916      	ldr	r6, [r2, #16]
 8000544:	680f      	ldr	r7, [r1, #0]
 8000546:	fba7 8903 	umull	r8, r9, r7, r3
 800054a:	fba7 ab00 	umull	sl, fp, r7, r0
 800054e:	f8cd a000 	str.w	sl, [sp]
 8000552:	ea8a 0a0a 	eor.w	sl, sl, sl
 8000556:	fbaa ce0a 	umull	ip, lr, sl, sl
 800055a:	fbe7 9a04 	umlal	r9, sl, r7, r4
 800055e:	fbe7 ac05 	umlal	sl, ip, r7, r5
 8000562:	fbe7 ce06 	umlal	ip, lr, r7, r6
 8000566:	684f      	ldr	r7, [r1, #4]
 8000568:	fbe7 8b60 	umaal	r8, fp, r7, r0
 800056c:	fbe7 9b63 	umaal	r9, fp, r7, r3
 8000570:	fbe7 ab64 	umaal	sl, fp, r7, r4
 8000574:	fbe7 bc65 	umaal	fp, ip, r7, r5
 8000578:	f8cd 8004 	str.w	r8, [sp, #4]
 800057c:	ea88 0808 	eor.w	r8, r8, r8
 8000580:	fbe7 ce66 	umaal	ip, lr, r7, r6
 8000584:	688f      	ldr	r7, [r1, #8]
 8000586:	fbe7 9800 	umlal	r9, r8, r7, r0
 800058a:	fbe7 8a63 	umaal	r8, sl, r7, r3
 800058e:	fbe7 ab64 	umaal	sl, fp, r7, r4
 8000592:	fbe7 bc65 	umaal	fp, ip, r7, r5
 8000596:	f8cd 9008 	str.w	r9, [sp, #8]
 800059a:	ea89 0909 	eor.w	r9, r9, r9
 800059e:	fbe7 ce66 	umaal	ip, lr, r7, r6
 80005a2:	68cf      	ldr	r7, [r1, #12]
 80005a4:	fbe7 8900 	umlal	r8, r9, r7, r0
 80005a8:	fbe7 9a63 	umaal	r9, sl, r7, r3
 80005ac:	fbe7 ab64 	umaal	sl, fp, r7, r4
 80005b0:	fbe7 bc65 	umaal	fp, ip, r7, r5
 80005b4:	f8cd 800c 	str.w	r8, [sp, #12]
 80005b8:	ea88 0808 	eor.w	r8, r8, r8
 80005bc:	fbe7 ce66 	umaal	ip, lr, r7, r6
 80005c0:	690f      	ldr	r7, [r1, #16]
 80005c2:	fbe7 9800 	umlal	r9, r8, r7, r0
 80005c6:	fbe7 8a63 	umaal	r8, sl, r7, r3
 80005ca:	fbe7 ab64 	umaal	sl, fp, r7, r4
 80005ce:	fbe7 bc65 	umaal	fp, ip, r7, r5
 80005d2:	f8cd 9010 	str.w	r9, [sp, #16]
 80005d6:	ea89 0909 	eor.w	r9, r9, r9
 80005da:	fbe7 ce66 	umaal	ip, lr, r7, r6
 80005de:	694a      	ldr	r2, [r1, #20]
 80005e0:	fbe2 8900 	umlal	r8, r9, r2, r0
 80005e4:	fbe2 9a63 	umaal	r9, sl, r2, r3
 80005e8:	fbe2 ab64 	umaal	sl, fp, r2, r4
 80005ec:	698a      	ldr	r2, [r1, #24]
 80005ee:	ea87 0707 	eor.w	r7, r7, r7
 80005f2:	fbe2 9700 	umlal	r9, r7, r2, r0
 80005f6:	fbe2 7a63 	umaal	r7, sl, r2, r3
 80005fa:	fbe2 ab64 	umaal	sl, fp, r2, r4
 80005fe:	69ca      	ldr	r2, [r1, #28]
 8000600:	fbe2 ac63 	umaal	sl, ip, r2, r3
 8000604:	fbe2 bc64 	umaal	fp, ip, r2, r4
 8000608:	980a      	ldr	r0, [sp, #40]	@ 0x28
 800060a:	6943      	ldr	r3, [r0, #20]
 800060c:	6984      	ldr	r4, [r0, #24]
 800060e:	680d      	ldr	r5, [r1, #0]
 8000610:	ea86 0606 	eor.w	r6, r6, r6
 8000614:	fbe5 8603 	umlal	r8, r6, r5, r3
 8000618:	fbe5 6964 	umaal	r6, r9, r5, r4
 800061c:	f8cd 8014 	str.w	r8, [sp, #20]
 8000620:	f8d0 801c 	ldr.w	r8, [r0, #28]
 8000624:	fbe5 7968 	umaal	r7, r9, r5, r8
 8000628:	684d      	ldr	r5, [r1, #4]
 800062a:	ea82 0202 	eor.w	r2, r2, r2
 800062e:	fbe5 6203 	umlal	r6, r2, r5, r3
 8000632:	9606      	str	r6, [sp, #24]
 8000634:	fbe5 2764 	umaal	r2, r7, r5, r4
 8000638:	fbe5 7968 	umaal	r7, r9, r5, r8
 800063c:	688d      	ldr	r5, [r1, #8]
 800063e:	ea86 0606 	eor.w	r6, r6, r6
 8000642:	fbe5 2603 	umlal	r2, r6, r5, r3
 8000646:	fbe5 6764 	umaal	r6, r7, r5, r4
 800064a:	fbe5 7968 	umaal	r7, r9, r5, r8
 800064e:	68cd      	ldr	r5, [r1, #12]
 8000650:	fbe5 6a63 	umaal	r6, sl, r5, r3
 8000654:	fbe5 7a64 	umaal	r7, sl, r5, r4
 8000658:	fbe5 9a68 	umaal	r9, sl, r5, r8
 800065c:	690d      	ldr	r5, [r1, #16]
 800065e:	fbe5 7b63 	umaal	r7, fp, r5, r3
 8000662:	fbe5 9b64 	umaal	r9, fp, r5, r4
 8000666:	fbe5 ab68 	umaal	sl, fp, r5, r8
 800066a:	69cd      	ldr	r5, [r1, #28]
 800066c:	6803      	ldr	r3, [r0, #0]
 800066e:	ea84 0404 	eor.w	r4, r4, r4
 8000672:	fbe5 2403 	umlal	r2, r4, r5, r3
 8000676:	9207      	str	r2, [sp, #28]
 8000678:	698a      	ldr	r2, [r1, #24]
 800067a:	694b      	ldr	r3, [r1, #20]
 800067c:	68c1      	ldr	r1, [r0, #12]
 800067e:	fbe3 4661 	umaal	r4, r6, r3, r1
 8000682:	fbe2 6761 	umaal	r6, r7, r2, r1
 8000686:	fbe5 7961 	umaal	r7, r9, r5, r1
 800068a:	6901      	ldr	r1, [r0, #16]
 800068c:	fbe3 6e61 	umaal	r6, lr, r3, r1
 8000690:	fbe2 7c61 	umaal	r7, ip, r2, r1
 8000694:	fbe5 9a61 	umaal	r9, sl, r5, r1
 8000698:	6941      	ldr	r1, [r0, #20]
 800069a:	fbe3 7e61 	umaal	r7, lr, r3, r1
 800069e:	fbe2 9c61 	umaal	r9, ip, r2, r1
 80006a2:	fbe5 ab61 	umaal	sl, fp, r5, r1
 80006a6:	6981      	ldr	r1, [r0, #24]
 80006a8:	fbe3 9e61 	umaal	r9, lr, r3, r1
 80006ac:	fbe2 ac61 	umaal	sl, ip, r2, r1
 80006b0:	fbe5 bc61 	umaal	fp, ip, r5, r1
 80006b4:	fbe3 ae68 	umaal	sl, lr, r3, r8
 80006b8:	fbe2 be68 	umaal	fp, lr, r2, r8
 80006bc:	fbe5 ce68 	umaal	ip, lr, r5, r8
 80006c0:	9807      	ldr	r0, [sp, #28]
 80006c2:	9900      	ldr	r1, [sp, #0]
 80006c4:	9a01      	ldr	r2, [sp, #4]
 80006c6:	f04f 0326 	mov.w	r3, #38	@ 0x26
 80006ca:	ea85 0505 	eor.w	r5, r5, r5
 80006ce:	fbee 0503 	umlal	r0, r5, lr, r3
 80006d2:	f04f 0813 	mov.w	r8, #19
 80006d6:	ea4f 7ed0 	mov.w	lr, r0, lsr #31
 80006da:	fb0e f808 	mul.w	r8, lr, r8
 80006de:	ea4f 0040 	mov.w	r0, r0, lsl #1
 80006e2:	ea4f 0050 	mov.w	r0, r0, lsr #1
 80006e6:	fbe4 1863 	umaal	r1, r8, r4, r3
 80006ea:	ea84 0404 	eor.w	r4, r4, r4
 80006ee:	fbe5 1403 	umlal	r1, r4, r5, r3
 80006f2:	4422      	add	r2, r4
 80006f4:	fbe6 2863 	umaal	r2, r8, r6, r3
 80006f8:	9c02      	ldr	r4, [sp, #8]
 80006fa:	9d03      	ldr	r5, [sp, #12]
 80006fc:	9e04      	ldr	r6, [sp, #16]
 80006fe:	f8dd e014 	ldr.w	lr, [sp, #20]
 8000702:	fbe7 4863 	umaal	r4, r8, r7, r3
 8000706:	fbe9 5863 	umaal	r5, r8, r9, r3
 800070a:	fbea 6863 	umaal	r6, r8, sl, r3
 800070e:	fbeb 8e63 	umaal	r8, lr, fp, r3
 8000712:	9f06      	ldr	r7, [sp, #24]
 8000714:	f8dd 9020 	ldr.w	r9, [sp, #32]
 8000718:	fbec 7e63 	umaal	r7, lr, ip, r3
 800071c:	4470      	add	r0, lr
 800071e:	f8c9 001c 	str.w	r0, [r9, #28]
 8000722:	f8c9 7018 	str.w	r7, [r9, #24]
 8000726:	f8c9 8014 	str.w	r8, [r9, #20]
 800072a:	f8c9 6010 	str.w	r6, [r9, #16]
 800072e:	f8c9 500c 	str.w	r5, [r9, #12]
 8000732:	f8c9 4008 	str.w	r4, [r9, #8]
 8000736:	f8c9 2004 	str.w	r2, [r9, #4]
 800073a:	f8c9 1000 	str.w	r1, [r9]
 800073e:	b00b      	add	sp, #44	@ 0x2c
 8000740:	e8bd 9ff0 	ldmia.w	sp!, {r4, r5, r6, r7, r8, r9, sl, fp, ip, pc}

08000744 <multiply256x256_asm>:
 8000744:	e92d 5ff7 	stmdb	sp!, {r0, r1, r2, r4, r5, r6, r7, r8, r9, sl, fp, ip, lr}
 8000748:	6813      	ldr	r3, [r2, #0]
 800074a:	6854      	ldr	r4, [r2, #4]
 800074c:	6895      	ldr	r5, [r2, #8]
 800074e:	68d6      	ldr	r6, [r2, #12]
 8000750:	6917      	ldr	r7, [r2, #16]
 8000752:	680a      	ldr	r2, [r1, #0]
 8000754:	ea88 0808 	eor.w	r8, r8, r8
 8000758:	fba8 9a08 	umull	r9, sl, r8, r8
 800075c:	ea8b 0b0b 	eor.w	fp, fp, fp
 8000760:	fba2 ce03 	umull	ip, lr, r2, r3
 8000764:	fbe2 e804 	umlal	lr, r8, r2, r4
 8000768:	fbe2 8905 	umlal	r8, r9, r2, r5
 800076c:	fbe2 9a06 	umlal	r9, sl, r2, r6
 8000770:	f8c0 c000 	str.w	ip, [r0]
 8000774:	ea8c 0c0c 	eor.w	ip, ip, ip
 8000778:	fbe2 ab07 	umlal	sl, fp, r2, r7
 800077c:	684a      	ldr	r2, [r1, #4]
 800077e:	fbe2 ec03 	umlal	lr, ip, r2, r3
 8000782:	fbe2 8c64 	umaal	r8, ip, r2, r4
 8000786:	fbe2 9c65 	umaal	r9, ip, r2, r5
 800078a:	fbe2 ac66 	umaal	sl, ip, r2, r6
 800078e:	f8c0 e004 	str.w	lr, [r0, #4]
 8000792:	ea8e 0e0e 	eor.w	lr, lr, lr
 8000796:	fbe2 bc67 	umaal	fp, ip, r2, r7
 800079a:	688a      	ldr	r2, [r1, #8]
 800079c:	fbe2 8e03 	umlal	r8, lr, r2, r3
 80007a0:	fbe2 9e64 	umaal	r9, lr, r2, r4
 80007a4:	fbe2 ae65 	umaal	sl, lr, r2, r5
 80007a8:	fbe2 be66 	umaal	fp, lr, r2, r6
 80007ac:	f8c0 8008 	str.w	r8, [r0, #8]
 80007b0:	ea88 0808 	eor.w	r8, r8, r8
 80007b4:	fbe2 ce67 	umaal	ip, lr, r2, r7
 80007b8:	68ca      	ldr	r2, [r1, #12]
 80007ba:	fbe2 9803 	umlal	r9, r8, r2, r3
 80007be:	fbe2 8a64 	umaal	r8, sl, r2, r4
 80007c2:	fbe2 ab65 	umaal	sl, fp, r2, r5
 80007c6:	fbe2 bc66 	umaal	fp, ip, r2, r6
 80007ca:	f8c0 900c 	str.w	r9, [r0, #12]
 80007ce:	ea89 0909 	eor.w	r9, r9, r9
 80007d2:	fbe2 ce67 	umaal	ip, lr, r2, r7
 80007d6:	690a      	ldr	r2, [r1, #16]
 80007d8:	fbe2 8903 	umlal	r8, r9, r2, r3
 80007dc:	fbe2 9a64 	umaal	r9, sl, r2, r4
 80007e0:	fbe2 ab65 	umaal	sl, fp, r2, r5
 80007e4:	fbe2 bc66 	umaal	fp, ip, r2, r6
 80007e8:	f8c0 8010 	str.w	r8, [r0, #16]
 80007ec:	ea88 0808 	eor.w	r8, r8, r8
 80007f0:	fbe2 ce67 	umaal	ip, lr, r2, r7
 80007f4:	694a      	ldr	r2, [r1, #20]
 80007f6:	fbe2 9803 	umlal	r9, r8, r2, r3
 80007fa:	fbe2 8a64 	umaal	r8, sl, r2, r4
 80007fe:	9a02      	ldr	r2, [sp, #8]
 8000800:	6953      	ldr	r3, [r2, #20]
 8000802:	6994      	ldr	r4, [r2, #24]
 8000804:	680d      	ldr	r5, [r1, #0]
 8000806:	ea86 0606 	eor.w	r6, r6, r6
 800080a:	fbe5 9603 	umlal	r9, r6, r5, r3
 800080e:	fbe5 6864 	umaal	r6, r8, r5, r4
 8000812:	f8c0 9014 	str.w	r9, [r0, #20]
 8000816:	ea87 0707 	eor.w	r7, r7, r7
 800081a:	f8d2 901c 	ldr.w	r9, [r2, #28]
 800081e:	fbe5 8a69 	umaal	r8, sl, r5, r9
 8000822:	684d      	ldr	r5, [r1, #4]
 8000824:	fbe5 6703 	umlal	r6, r7, r5, r3
 8000828:	fbe5 7864 	umaal	r7, r8, r5, r4
 800082c:	fbe5 8a69 	umaal	r8, sl, r5, r9
 8000830:	688d      	ldr	r5, [r1, #8]
 8000832:	fbe5 7b63 	umaal	r7, fp, r5, r3
 8000836:	fbe5 8b64 	umaal	r8, fp, r5, r4
 800083a:	fbe5 ab69 	umaal	sl, fp, r5, r9
 800083e:	68cd      	ldr	r5, [r1, #12]
 8000840:	fbe5 8c63 	umaal	r8, ip, r5, r3
 8000844:	fbe5 ac64 	umaal	sl, ip, r5, r4
 8000848:	fbe5 bc69 	umaal	fp, ip, r5, r9
 800084c:	690d      	ldr	r5, [r1, #16]
 800084e:	fbe5 ae63 	umaal	sl, lr, r5, r3
 8000852:	fbe5 be64 	umaal	fp, lr, r5, r4
 8000856:	fbe5 ce69 	umaal	ip, lr, r5, r9
 800085a:	698d      	ldr	r5, [r1, #24]
 800085c:	6813      	ldr	r3, [r2, #0]
 800085e:	6854      	ldr	r4, [r2, #4]
 8000860:	ea89 0909 	eor.w	r9, r9, r9
 8000864:	fbe5 6903 	umlal	r6, r9, r5, r3
 8000868:	fbe5 7964 	umaal	r7, r9, r5, r4
 800086c:	6186      	str	r6, [r0, #24]
 800086e:	6896      	ldr	r6, [r2, #8]
 8000870:	fbe5 8966 	umaal	r8, r9, r5, r6
 8000874:	694d      	ldr	r5, [r1, #20]
 8000876:	ea82 0202 	eor.w	r2, r2, r2
 800087a:	fbe5 7206 	umlal	r7, r2, r5, r6
 800087e:	69cd      	ldr	r5, [r1, #28]
 8000880:	ea81 0101 	eor.w	r1, r1, r1
 8000884:	fbe5 7103 	umlal	r7, r1, r5, r3
 8000888:	61c7      	str	r7, [r0, #28]
 800088a:	fbe5 1264 	umaal	r1, r2, r5, r4
 800088e:	fbe5 2966 	umaal	r2, r9, r5, r6
 8000892:	9b01      	ldr	r3, [sp, #4]
 8000894:	695c      	ldr	r4, [r3, #20]
 8000896:	699e      	ldr	r6, [r3, #24]
 8000898:	9b02      	ldr	r3, [sp, #8]
 800089a:	68df      	ldr	r7, [r3, #12]
 800089c:	fbe4 1867 	umaal	r1, r8, r4, r7
 80008a0:	6201      	str	r1, [r0, #32]
 80008a2:	fbe6 2867 	umaal	r2, r8, r6, r7
 80008a6:	fbe5 8967 	umaal	r8, r9, r5, r7
 80008aa:	6919      	ldr	r1, [r3, #16]
 80008ac:	fbe4 2a61 	umaal	r2, sl, r4, r1
 80008b0:	fbe6 8a61 	umaal	r8, sl, r6, r1
 80008b4:	fbe5 9a61 	umaal	r9, sl, r5, r1
 80008b8:	6959      	ldr	r1, [r3, #20]
 80008ba:	fbe4 8b61 	umaal	r8, fp, r4, r1
 80008be:	fbe6 9b61 	umaal	r9, fp, r6, r1
 80008c2:	fbe5 ab61 	umaal	sl, fp, r5, r1
 80008c6:	6999      	ldr	r1, [r3, #24]
 80008c8:	fbe4 9c61 	umaal	r9, ip, r4, r1
 80008cc:	fbe6 ac61 	umaal	sl, ip, r6, r1
 80008d0:	fbe5 bc61 	umaal	fp, ip, r5, r1
 80008d4:	69d9      	ldr	r1, [r3, #28]
 80008d6:	fbe4 ae61 	umaal	sl, lr, r4, r1
 80008da:	fbe6 be61 	umaal	fp, lr, r6, r1
 80008de:	fbe5 ce61 	umaal	ip, lr, r5, r1
 80008e2:	6242      	str	r2, [r0, #36]	@ 0x24
 80008e4:	f8c0 8028 	str.w	r8, [r0, #40]	@ 0x28
 80008e8:	f8c0 902c 	str.w	r9, [r0, #44]	@ 0x2c
 80008ec:	f8c0 a030 	str.w	sl, [r0, #48]	@ 0x30
 80008f0:	f8c0 b034 	str.w	fp, [r0, #52]	@ 0x34
 80008f4:	f8c0 c038 	str.w	ip, [r0, #56]	@ 0x38
 80008f8:	f8c0 e03c 	str.w	lr, [r0, #60]	@ 0x3c
 80008fc:	b003      	add	sp, #12
 80008fe:	e8bd 9ff0 	ldmia.w	sp!, {r4, r5, r6, r7, r8, r9, sl, fp, ip, pc}
 8000902:	bf00      	nop

08000904 <randombytes>:
 8000904:	e92d 43f0 	stmdb	sp!, {r4, r5, r6, r7, r8, r9, lr}
 8000908:	2a05      	cmp	r2, #5
 800090a:	461f      	mov	r7, r3
 800090c:	f177 0300 	sbcs.w	r3, r7, #0
 8000910:	b083      	sub	sp, #12
 8000912:	4616      	mov	r6, r2
 8000914:	4680      	mov	r8, r0
 8000916:	d326      	bcc.n	8000966 <randombytes+0x62>
 8000918:	4614      	mov	r4, r2
 800091a:	463d      	mov	r5, r7
 800091c:	eb00 0902 	add.w	r9, r0, r2
 8000920:	f003 fa3e 	bl	8003da0 <rng_get_random_blocking>
 8000924:	eba9 0204 	sub.w	r2, r9, r4
 8000928:	3c04      	subs	r4, #4
 800092a:	f165 0500 	sbc.w	r5, r5, #0
 800092e:	2c05      	cmp	r4, #5
 8000930:	f175 0300 	sbcs.w	r3, r5, #0
 8000934:	6010      	str	r0, [r2, #0]
 8000936:	d2f3      	bcs.n	8000920 <randombytes+0x1c>
 8000938:	1f72      	subs	r2, r6, #5
 800093a:	f147 33ff 	adc.w	r3, r7, #4294967295	@ 0xffffffff
 800093e:	0892      	lsrs	r2, r2, #2
 8000940:	3e04      	subs	r6, #4
 8000942:	ea42 7283 	orr.w	r2, r2, r3, lsl #30
 8000946:	f147 37ff 	adc.w	r7, r7, #4294967295	@ 0xffffffff
 800094a:	089b      	lsrs	r3, r3, #2
 800094c:	4251      	negs	r1, r2
 800094e:	eb63 0343 	sbc.w	r3, r3, r3, lsl #1
 8000952:	3201      	adds	r2, #1
 8000954:	009b      	lsls	r3, r3, #2
 8000956:	eb08 0882 	add.w	r8, r8, r2, lsl #2
 800095a:	008a      	lsls	r2, r1, #2
 800095c:	ea43 7391 	orr.w	r3, r3, r1, lsr #30
 8000960:	1996      	adds	r6, r2, r6
 8000962:	eb47 0703 	adc.w	r7, r7, r3
 8000966:	4337      	orrs	r7, r6
 8000968:	d102      	bne.n	8000970 <randombytes+0x6c>
 800096a:	b003      	add	sp, #12
 800096c:	e8bd 83f0 	ldmia.w	sp!, {r4, r5, r6, r7, r8, r9, pc}
 8000970:	f003 fa16 	bl	8003da0 <rng_get_random_blocking>
 8000974:	1e73      	subs	r3, r6, #1
 8000976:	aa01      	add	r2, sp, #4
 8000978:	9001      	str	r0, [sp, #4]
 800097a:	4413      	add	r3, r2
 800097c:	4446      	add	r6, r8
 800097e:	f813 2901 	ldrb.w	r2, [r3], #-1
 8000982:	f808 2b01 	strb.w	r2, [r8], #1
 8000986:	45b0      	cmp	r8, r6
 8000988:	d1f9      	bne.n	800097e <randombytes+0x7a>
 800098a:	b003      	add	sp, #12
 800098c:	e8bd 83f0 	ldmia.w	sp!, {r4, r5, r6, r7, r8, r9, pc}

08000990 <curve25519_doublePoint>:
 8000990:	e92d 47f0 	stmdb	sp!, {r4, r5, r6, r7, r8, r9, sl, lr}
 8000994:	b0b8      	sub	sp, #224	@ 0xe0
 8000996:	460d      	mov	r5, r1
 8000998:	4607      	mov	r7, r0
 800099a:	6889      	ldr	r1, [r1, #8]
 800099c:	a828      	add	r0, sp, #160	@ 0xa0
 800099e:	f7ff fcfb 	bl	8000398 <fe25519_square_asm>
 80009a2:	a928      	add	r1, sp, #160	@ 0xa0
 80009a4:	686a      	ldr	r2, [r5, #4]
 80009a6:	4608      	mov	r0, r1
 80009a8:	f7ff fdc4 	bl	8000534 <fe25519_mul_asm>
 80009ac:	2401      	movs	r4, #1
 80009ae:	ab28      	add	r3, sp, #160	@ 0xa0
 80009b0:	4622      	mov	r2, r4
 80009b2:	469e      	mov	lr, r3
 80009b4:	4698      	mov	r8, r3
 80009b6:	f8de 001c 	ldr.w	r0, [lr, #28]
 80009ba:	f8d8 101c 	ldr.w	r1, [r8, #28]
 80009be:	460e      	mov	r6, r1
 80009c0:	fbe0 0662 	umaal	r0, r6, r0, r2
 80009c4:	fbe1 0602 	umlal	r0, r6, r1, r2
 80009c8:	f04f 0113 	mov.w	r1, #19
 80009cc:	fb06 f101 	mul.w	r1, r6, r1
 80009d0:	f8de 6000 	ldr.w	r6, [lr]
 80009d4:	f8d8 c000 	ldr.w	ip, [r8]
 80009d8:	fbe2 6c61 	umaal	r6, ip, r2, r1
 80009dc:	601e      	str	r6, [r3, #0]
 80009de:	f8de 1004 	ldr.w	r1, [lr, #4]
 80009e2:	f8d8 6004 	ldr.w	r6, [r8, #4]
 80009e6:	fbe2 6c61 	umaal	r6, ip, r2, r1
 80009ea:	605e      	str	r6, [r3, #4]
 80009ec:	f8de 1008 	ldr.w	r1, [lr, #8]
 80009f0:	f8d8 6008 	ldr.w	r6, [r8, #8]
 80009f4:	fbe2 6c61 	umaal	r6, ip, r2, r1
 80009f8:	609e      	str	r6, [r3, #8]
 80009fa:	f8de 100c 	ldr.w	r1, [lr, #12]
 80009fe:	f8d8 600c 	ldr.w	r6, [r8, #12]
 8000a02:	fbe2 6c61 	umaal	r6, ip, r2, r1
 8000a06:	60de      	str	r6, [r3, #12]
 8000a08:	f8de 1010 	ldr.w	r1, [lr, #16]
 8000a0c:	f8d8 6010 	ldr.w	r6, [r8, #16]
 8000a10:	fbe2 6c61 	umaal	r6, ip, r2, r1
 8000a14:	611e      	str	r6, [r3, #16]
 8000a16:	f8de 1014 	ldr.w	r1, [lr, #20]
 8000a1a:	f8d8 6014 	ldr.w	r6, [r8, #20]
 8000a1e:	fbe2 6c61 	umaal	r6, ip, r2, r1
 8000a22:	615e      	str	r6, [r3, #20]
 8000a24:	f8de 1018 	ldr.w	r1, [lr, #24]
 8000a28:	f8d8 6018 	ldr.w	r6, [r8, #24]
 8000a2c:	fbe2 6c61 	umaal	r6, ip, r2, r1
 8000a30:	619e      	str	r6, [r3, #24]
 8000a32:	eb0c 0c50 	add.w	ip, ip, r0, lsr #1
 8000a36:	f8c3 c01c 	str.w	ip, [r3, #28]
 8000a3a:	6829      	ldr	r1, [r5, #0]
 8000a3c:	4668      	mov	r0, sp
 8000a3e:	f7ff fcab 	bl	8000398 <fe25519_square_asm>
 8000a42:	68aa      	ldr	r2, [r5, #8]
 8000a44:	4669      	mov	r1, sp
 8000a46:	4668      	mov	r0, sp
 8000a48:	f7ff fd74 	bl	8000534 <fe25519_mul_asm>
 8000a4c:	466b      	mov	r3, sp
 8000a4e:	aa08      	add	r2, sp, #32
 8000a50:	4621      	mov	r1, r4
 8000a52:	4698      	mov	r8, r3
 8000a54:	69de      	ldr	r6, [r3, #28]
 8000a56:	f8d8 001c 	ldr.w	r0, [r8, #28]
 8000a5a:	4684      	mov	ip, r0
 8000a5c:	fbe6 6c61 	umaal	r6, ip, r6, r1
 8000a60:	fbe0 6c01 	umlal	r6, ip, r0, r1
 8000a64:	f04f 0013 	mov.w	r0, #19
 8000a68:	fb0c f000 	mul.w	r0, ip, r0
 8000a6c:	f8d3 c000 	ldr.w	ip, [r3]
 8000a70:	f8d8 e000 	ldr.w	lr, [r8]
 8000a74:	fbe1 ce60 	umaal	ip, lr, r1, r0
 8000a78:	f8c2 c000 	str.w	ip, [r2]
 8000a7c:	6858      	ldr	r0, [r3, #4]
 8000a7e:	f8d8 c004 	ldr.w	ip, [r8, #4]
 8000a82:	fbe1 ce60 	umaal	ip, lr, r1, r0
 8000a86:	f8c2 c004 	str.w	ip, [r2, #4]
 8000a8a:	6898      	ldr	r0, [r3, #8]
 8000a8c:	f8d8 c008 	ldr.w	ip, [r8, #8]
 8000a90:	fbe1 ce60 	umaal	ip, lr, r1, r0
 8000a94:	f8c2 c008 	str.w	ip, [r2, #8]
 8000a98:	68d8      	ldr	r0, [r3, #12]
 8000a9a:	f8d8 c00c 	ldr.w	ip, [r8, #12]
 8000a9e:	fbe1 ce60 	umaal	ip, lr, r1, r0
 8000aa2:	f8c2 c00c 	str.w	ip, [r2, #12]
 8000aa6:	6918      	ldr	r0, [r3, #16]
 8000aa8:	f8d8 c010 	ldr.w	ip, [r8, #16]
 8000aac:	fbe1 ce60 	umaal	ip, lr, r1, r0
 8000ab0:	f8c2 c010 	str.w	ip, [r2, #16]
 8000ab4:	6958      	ldr	r0, [r3, #20]
 8000ab6:	f8d8 c014 	ldr.w	ip, [r8, #20]
 8000aba:	fbe1 ce60 	umaal	ip, lr, r1, r0
 8000abe:	f8c2 c014 	str.w	ip, [r2, #20]
 8000ac2:	6998      	ldr	r0, [r3, #24]
 8000ac4:	f8d8 c018 	ldr.w	ip, [r8, #24]
 8000ac8:	fbe1 ce60 	umaal	ip, lr, r1, r0
 8000acc:	f8c2 c018 	str.w	ip, [r2, #24]
 8000ad0:	eb0e 0e56 	add.w	lr, lr, r6, lsr #1
 8000ad4:	f8c2 e01c 	str.w	lr, [r2, #28]
 8000ad8:	466b      	mov	r3, sp
 8000ada:	aa08      	add	r2, sp, #32
 8000adc:	4621      	mov	r1, r4
 8000ade:	4698      	mov	r8, r3
 8000ae0:	f8d8 601c 	ldr.w	r6, [r8, #28]
 8000ae4:	69d0      	ldr	r0, [r2, #28]
 8000ae6:	4684      	mov	ip, r0
 8000ae8:	fbe6 6c61 	umaal	r6, ip, r6, r1
 8000aec:	fbe0 6c01 	umlal	r6, ip, r0, r1
 8000af0:	f04f 0013 	mov.w	r0, #19
 8000af4:	fb0c f000 	mul.w	r0, ip, r0
 8000af8:	f8d8 c000 	ldr.w	ip, [r8]
 8000afc:	f8d2 e000 	ldr.w	lr, [r2]
 8000b00:	fbe1 ce60 	umaal	ip, lr, r1, r0
 8000b04:	f8c3 c000 	str.w	ip, [r3]
 8000b08:	f8d8 0004 	ldr.w	r0, [r8, #4]
 8000b0c:	f8d2 c004 	ldr.w	ip, [r2, #4]
 8000b10:	fbe1 ce60 	umaal	ip, lr, r1, r0
 8000b14:	f8c3 c004 	str.w	ip, [r3, #4]
 8000b18:	f8d8 0008 	ldr.w	r0, [r8, #8]
 8000b1c:	f8d2 c008 	ldr.w	ip, [r2, #8]
 8000b20:	fbe1 ce60 	umaal	ip, lr, r1, r0
 8000b24:	f8c3 c008 	str.w	ip, [r3, #8]
 8000b28:	f8d8 000c 	ldr.w	r0, [r8, #12]
 8000b2c:	f8d2 c00c 	ldr.w	ip, [r2, #12]
 8000b30:	fbe1 ce60 	umaal	ip, lr, r1, r0
 8000b34:	f8c3 c00c 	str.w	ip, [r3, #12]
 8000b38:	f8d8 0010 	ldr.w	r0, [r8, #16]
 8000b3c:	f8d2 c010 	ldr.w	ip, [r2, #16]
 8000b40:	fbe1 ce60 	umaal	ip, lr, r1, r0
 8000b44:	f8c3 c010 	str.w	ip, [r3, #16]
 8000b48:	f8d8 0014 	ldr.w	r0, [r8, #20]
 8000b4c:	f8d2 c014 	ldr.w	ip, [r2, #20]
 8000b50:	fbe1 ce60 	umaal	ip, lr, r1, r0
 8000b54:	f8c3 c014 	str.w	ip, [r3, #20]
 8000b58:	f8d8 0018 	ldr.w	r0, [r8, #24]
 8000b5c:	f8d2 c018 	ldr.w	ip, [r2, #24]
 8000b60:	fbe1 ce60 	umaal	ip, lr, r1, r0
 8000b64:	f8c3 c018 	str.w	ip, [r3, #24]
 8000b68:	eb0e 0e56 	add.w	lr, lr, r6, lsr #1
 8000b6c:	f8c3 e01c 	str.w	lr, [r3, #28]
 8000b70:	68a9      	ldr	r1, [r5, #8]
 8000b72:	f8df 8ad0 	ldr.w	r8, [pc, #2768]	@ 8001644 <curve25519_doublePoint+0xcb4>
 8000b76:	a808      	add	r0, sp, #32
 8000b78:	f7ff fc0e 	bl	8000398 <fe25519_square_asm>
 8000b7c:	a908      	add	r1, sp, #32
 8000b7e:	682a      	ldr	r2, [r5, #0]
 8000b80:	4608      	mov	r0, r1
 8000b82:	f7ff fcd7 	bl	8000534 <fe25519_mul_asm>
 8000b86:	a908      	add	r1, sp, #32
 8000b88:	4642      	mov	r2, r8
 8000b8a:	4608      	mov	r0, r1
 8000b8c:	f7ff fcd2 	bl	8000534 <fe25519_mul_asm>
 8000b90:	ab08      	add	r3, sp, #32
 8000b92:	4622      	mov	r2, r4
 8000b94:	469e      	mov	lr, r3
 8000b96:	4699      	mov	r9, r3
 8000b98:	f8de 001c 	ldr.w	r0, [lr, #28]
 8000b9c:	f8d9 101c 	ldr.w	r1, [r9, #28]
 8000ba0:	460e      	mov	r6, r1
 8000ba2:	fbe0 0662 	umaal	r0, r6, r0, r2
 8000ba6:	fbe1 0602 	umlal	r0, r6, r1, r2
 8000baa:	f04f 0113 	mov.w	r1, #19
 8000bae:	fb06 f101 	mul.w	r1, r6, r1
 8000bb2:	f8de 6000 	ldr.w	r6, [lr]
 8000bb6:	f8d9 c000 	ldr.w	ip, [r9]
 8000bba:	fbe2 6c61 	umaal	r6, ip, r2, r1
 8000bbe:	601e      	str	r6, [r3, #0]
 8000bc0:	f8de 1004 	ldr.w	r1, [lr, #4]
 8000bc4:	f8d9 6004 	ldr.w	r6, [r9, #4]
 8000bc8:	fbe2 6c61 	umaal	r6, ip, r2, r1
 8000bcc:	605e      	str	r6, [r3, #4]
 8000bce:	f8de 1008 	ldr.w	r1, [lr, #8]
 8000bd2:	f8d9 6008 	ldr.w	r6, [r9, #8]
 8000bd6:	fbe2 6c61 	umaal	r6, ip, r2, r1
 8000bda:	609e      	str	r6, [r3, #8]
 8000bdc:	f8de 100c 	ldr.w	r1, [lr, #12]
 8000be0:	f8d9 600c 	ldr.w	r6, [r9, #12]
 8000be4:	fbe2 6c61 	umaal	r6, ip, r2, r1
 8000be8:	60de      	str	r6, [r3, #12]
 8000bea:	f8de 1010 	ldr.w	r1, [lr, #16]
 8000bee:	f8d9 6010 	ldr.w	r6, [r9, #16]
 8000bf2:	fbe2 6c61 	umaal	r6, ip, r2, r1
 8000bf6:	611e      	str	r6, [r3, #16]
 8000bf8:	f8de 1014 	ldr.w	r1, [lr, #20]
 8000bfc:	f8d9 6014 	ldr.w	r6, [r9, #20]
 8000c00:	fbe2 6c61 	umaal	r6, ip, r2, r1
 8000c04:	615e      	str	r6, [r3, #20]
 8000c06:	f8de 1018 	ldr.w	r1, [lr, #24]
 8000c0a:	f8d9 6018 	ldr.w	r6, [r9, #24]
 8000c0e:	fbe2 6c61 	umaal	r6, ip, r2, r1
 8000c12:	619e      	str	r6, [r3, #24]
 8000c14:	eb0c 0c50 	add.w	ip, ip, r0, lsr #1
 8000c18:	f8c3 c01c 	str.w	ip, [r3, #28]
 8000c1c:	466b      	mov	r3, sp
 8000c1e:	aa08      	add	r2, sp, #32
 8000c20:	4621      	mov	r1, r4
 8000c22:	4699      	mov	r9, r3
 8000c24:	f8d9 601c 	ldr.w	r6, [r9, #28]
 8000c28:	69d0      	ldr	r0, [r2, #28]
 8000c2a:	4684      	mov	ip, r0
 8000c2c:	fbe6 6c61 	umaal	r6, ip, r6, r1
 8000c30:	fbe0 6c01 	umlal	r6, ip, r0, r1
 8000c34:	f04f 0013 	mov.w	r0, #19
 8000c38:	fb0c f000 	mul.w	r0, ip, r0
 8000c3c:	f8d9 c000 	ldr.w	ip, [r9]
 8000c40:	f8d2 e000 	ldr.w	lr, [r2]
 8000c44:	fbe1 ce60 	umaal	ip, lr, r1, r0
 8000c48:	f8c3 c000 	str.w	ip, [r3]
 8000c4c:	f8d9 0004 	ldr.w	r0, [r9, #4]
 8000c50:	f8d2 c004 	ldr.w	ip, [r2, #4]
 8000c54:	fbe1 ce60 	umaal	ip, lr, r1, r0
 8000c58:	f8c3 c004 	str.w	ip, [r3, #4]
 8000c5c:	f8d9 0008 	ldr.w	r0, [r9, #8]
 8000c60:	f8d2 c008 	ldr.w	ip, [r2, #8]
 8000c64:	fbe1 ce60 	umaal	ip, lr, r1, r0
 8000c68:	f8c3 c008 	str.w	ip, [r3, #8]
 8000c6c:	f8d9 000c 	ldr.w	r0, [r9, #12]
 8000c70:	f8d2 c00c 	ldr.w	ip, [r2, #12]
 8000c74:	fbe1 ce60 	umaal	ip, lr, r1, r0
 8000c78:	f8c3 c00c 	str.w	ip, [r3, #12]
 8000c7c:	f8d9 0010 	ldr.w	r0, [r9, #16]
 8000c80:	f8d2 c010 	ldr.w	ip, [r2, #16]
 8000c84:	fbe1 ce60 	umaal	ip, lr, r1, r0
 8000c88:	f8c3 c010 	str.w	ip, [r3, #16]
 8000c8c:	f8d9 0014 	ldr.w	r0, [r9, #20]
 8000c90:	f8d2 c014 	ldr.w	ip, [r2, #20]
 8000c94:	fbe1 ce60 	umaal	ip, lr, r1, r0
 8000c98:	f8c3 c014 	str.w	ip, [r3, #20]
 8000c9c:	f8d9 0018 	ldr.w	r0, [r9, #24]
 8000ca0:	f8d2 c018 	ldr.w	ip, [r2, #24]
 8000ca4:	fbe1 ce60 	umaal	ip, lr, r1, r0
 8000ca8:	f8c3 c018 	str.w	ip, [r3, #24]
 8000cac:	eb0e 0e56 	add.w	lr, lr, r6, lsr #1
 8000cb0:	f8c3 e01c 	str.w	lr, [r3, #28]
 8000cb4:	68a9      	ldr	r1, [r5, #8]
 8000cb6:	a808      	add	r0, sp, #32
 8000cb8:	f7ff fb6e 	bl	8000398 <fe25519_square_asm>
 8000cbc:	a908      	add	r1, sp, #32
 8000cbe:	68aa      	ldr	r2, [r5, #8]
 8000cc0:	4608      	mov	r0, r1
 8000cc2:	f7ff fc37 	bl	8000534 <fe25519_mul_asm>
 8000cc6:	466b      	mov	r3, sp
 8000cc8:	aa08      	add	r2, sp, #32
 8000cca:	4621      	mov	r1, r4
 8000ccc:	4699      	mov	r9, r3
 8000cce:	f8d9 601c 	ldr.w	r6, [r9, #28]
 8000cd2:	69d0      	ldr	r0, [r2, #28]
 8000cd4:	4684      	mov	ip, r0
 8000cd6:	fbe6 6c61 	umaal	r6, ip, r6, r1
 8000cda:	fbe0 6c01 	umlal	r6, ip, r0, r1
 8000cde:	f04f 0013 	mov.w	r0, #19
 8000ce2:	fb0c f000 	mul.w	r0, ip, r0
 8000ce6:	f8d9 c000 	ldr.w	ip, [r9]
 8000cea:	f8d2 e000 	ldr.w	lr, [r2]
 8000cee:	fbe1 ce60 	umaal	ip, lr, r1, r0
 8000cf2:	f8c3 c000 	str.w	ip, [r3]
 8000cf6:	f8d9 0004 	ldr.w	r0, [r9, #4]
 8000cfa:	f8d2 c004 	ldr.w	ip, [r2, #4]
 8000cfe:	fbe1 ce60 	umaal	ip, lr, r1, r0
 8000d02:	f8c3 c004 	str.w	ip, [r3, #4]
 8000d06:	f8d9 0008 	ldr.w	r0, [r9, #8]
 8000d0a:	f8d2 c008 	ldr.w	ip, [r2, #8]
 8000d0e:	fbe1 ce60 	umaal	ip, lr, r1, r0
 8000d12:	f8c3 c008 	str.w	ip, [r3, #8]
 8000d16:	f8d9 000c 	ldr.w	r0, [r9, #12]
 8000d1a:	f8d2 c00c 	ldr.w	ip, [r2, #12]
 8000d1e:	fbe1 ce60 	umaal	ip, lr, r1, r0
 8000d22:	f8c3 c00c 	str.w	ip, [r3, #12]
 8000d26:	f8d9 0010 	ldr.w	r0, [r9, #16]
 8000d2a:	f8d2 c010 	ldr.w	ip, [r2, #16]
 8000d2e:	fbe1 ce60 	umaal	ip, lr, r1, r0
 8000d32:	f8c3 c010 	str.w	ip, [r3, #16]
 8000d36:	f8d9 0014 	ldr.w	r0, [r9, #20]
 8000d3a:	f8d2 c014 	ldr.w	ip, [r2, #20]
 8000d3e:	fbe1 ce60 	umaal	ip, lr, r1, r0
 8000d42:	f8c3 c014 	str.w	ip, [r3, #20]
 8000d46:	f8d9 0018 	ldr.w	r0, [r9, #24]
 8000d4a:	f8d2 c018 	ldr.w	ip, [r2, #24]
 8000d4e:	fbe1 ce60 	umaal	ip, lr, r1, r0
 8000d52:	f8c3 c018 	str.w	ip, [r3, #24]
 8000d56:	eb0e 0e56 	add.w	lr, lr, r6, lsr #1
 8000d5a:	f8c3 e01c 	str.w	lr, [r3, #28]
 8000d5e:	4669      	mov	r1, sp
 8000d60:	a808      	add	r0, sp, #32
 8000d62:	f7ff fb19 	bl	8000398 <fe25519_square_asm>
 8000d66:	a928      	add	r1, sp, #160	@ 0xa0
 8000d68:	aa08      	add	r2, sp, #32
 8000d6a:	4608      	mov	r0, r1
 8000d6c:	f7ff fbe2 	bl	8000534 <fe25519_mul_asm>
 8000d70:	68a9      	ldr	r1, [r5, #8]
 8000d72:	a810      	add	r0, sp, #64	@ 0x40
 8000d74:	f7ff fb10 	bl	8000398 <fe25519_square_asm>
 8000d78:	a910      	add	r1, sp, #64	@ 0x40
 8000d7a:	a818      	add	r0, sp, #96	@ 0x60
 8000d7c:	f7ff fb0c 	bl	8000398 <fe25519_square_asm>
 8000d80:	a918      	add	r1, sp, #96	@ 0x60
 8000d82:	68aa      	ldr	r2, [r5, #8]
 8000d84:	4608      	mov	r0, r1
 8000d86:	f7ff fbd5 	bl	8000534 <fe25519_mul_asm>
 8000d8a:	6869      	ldr	r1, [r5, #4]
 8000d8c:	a810      	add	r0, sp, #64	@ 0x40
 8000d8e:	f7ff fb03 	bl	8000398 <fe25519_square_asm>
 8000d92:	a918      	add	r1, sp, #96	@ 0x60
 8000d94:	aa10      	add	r2, sp, #64	@ 0x40
 8000d96:	4608      	mov	r0, r1
 8000d98:	f7ff fbcc 	bl	8000534 <fe25519_mul_asm>
 8000d9c:	a918      	add	r1, sp, #96	@ 0x60
 8000d9e:	686a      	ldr	r2, [r5, #4]
 8000da0:	4608      	mov	r0, r1
 8000da2:	f7ff fbc7 	bl	8000534 <fe25519_mul_asm>
 8000da6:	ab18      	add	r3, sp, #96	@ 0x60
 8000da8:	4622      	mov	r2, r4
 8000daa:	469e      	mov	lr, r3
 8000dac:	4699      	mov	r9, r3
 8000dae:	f8de 001c 	ldr.w	r0, [lr, #28]
 8000db2:	f8d9 101c 	ldr.w	r1, [r9, #28]
 8000db6:	460e      	mov	r6, r1
 8000db8:	fbe0 0662 	umaal	r0, r6, r0, r2
 8000dbc:	fbe1 0602 	umlal	r0, r6, r1, r2
 8000dc0:	f04f 0113 	mov.w	r1, #19
 8000dc4:	fb06 f101 	mul.w	r1, r6, r1
 8000dc8:	f8de 6000 	ldr.w	r6, [lr]
 8000dcc:	f8d9 c000 	ldr.w	ip, [r9]
 8000dd0:	fbe2 6c61 	umaal	r6, ip, r2, r1
 8000dd4:	601e      	str	r6, [r3, #0]
 8000dd6:	f8de 1004 	ldr.w	r1, [lr, #4]
 8000dda:	f8d9 6004 	ldr.w	r6, [r9, #4]
 8000dde:	fbe2 6c61 	umaal	r6, ip, r2, r1
 8000de2:	605e      	str	r6, [r3, #4]
 8000de4:	f8de 1008 	ldr.w	r1, [lr, #8]
 8000de8:	f8d9 6008 	ldr.w	r6, [r9, #8]
 8000dec:	fbe2 6c61 	umaal	r6, ip, r2, r1
 8000df0:	609e      	str	r6, [r3, #8]
 8000df2:	f8de 100c 	ldr.w	r1, [lr, #12]
 8000df6:	f8d9 600c 	ldr.w	r6, [r9, #12]
 8000dfa:	fbe2 6c61 	umaal	r6, ip, r2, r1
 8000dfe:	60de      	str	r6, [r3, #12]
 8000e00:	f8de 1010 	ldr.w	r1, [lr, #16]
 8000e04:	f8d9 6010 	ldr.w	r6, [r9, #16]
 8000e08:	fbe2 6c61 	umaal	r6, ip, r2, r1
 8000e0c:	611e      	str	r6, [r3, #16]
 8000e0e:	f8de 1014 	ldr.w	r1, [lr, #20]
 8000e12:	f8d9 6014 	ldr.w	r6, [r9, #20]
 8000e16:	fbe2 6c61 	umaal	r6, ip, r2, r1
 8000e1a:	615e      	str	r6, [r3, #20]
 8000e1c:	f8de 1018 	ldr.w	r1, [lr, #24]
 8000e20:	f8d9 6018 	ldr.w	r6, [r9, #24]
 8000e24:	fbe2 6c61 	umaal	r6, ip, r2, r1
 8000e28:	619e      	str	r6, [r3, #24]
 8000e2a:	eb0c 0c50 	add.w	ip, ip, r0, lsr #1
 8000e2e:	f8c3 c01c 	str.w	ip, [r3, #28]
 8000e32:	ab18      	add	r3, sp, #96	@ 0x60
 8000e34:	4622      	mov	r2, r4
 8000e36:	469e      	mov	lr, r3
 8000e38:	4699      	mov	r9, r3
 8000e3a:	f8de 001c 	ldr.w	r0, [lr, #28]
 8000e3e:	f8d9 101c 	ldr.w	r1, [r9, #28]
 8000e42:	460e      	mov	r6, r1
 8000e44:	fbe0 0662 	umaal	r0, r6, r0, r2
 8000e48:	fbe1 0602 	umlal	r0, r6, r1, r2
 8000e4c:	f04f 0113 	mov.w	r1, #19
 8000e50:	fb06 f101 	mul.w	r1, r6, r1
 8000e54:	f8de 6000 	ldr.w	r6, [lr]
 8000e58:	f8d9 c000 	ldr.w	ip, [r9]
 8000e5c:	fbe2 6c61 	umaal	r6, ip, r2, r1
 8000e60:	601e      	str	r6, [r3, #0]
 8000e62:	f8de 1004 	ldr.w	r1, [lr, #4]
 8000e66:	f8d9 6004 	ldr.w	r6, [r9, #4]
 8000e6a:	fbe2 6c61 	umaal	r6, ip, r2, r1
 8000e6e:	605e      	str	r6, [r3, #4]
 8000e70:	f8de 1008 	ldr.w	r1, [lr, #8]
 8000e74:	f8d9 6008 	ldr.w	r6, [r9, #8]
 8000e78:	fbe2 6c61 	umaal	r6, ip, r2, r1
 8000e7c:	609e      	str	r6, [r3, #8]
 8000e7e:	f8de 100c 	ldr.w	r1, [lr, #12]
 8000e82:	f8d9 600c 	ldr.w	r6, [r9, #12]
 8000e86:	fbe2 6c61 	umaal	r6, ip, r2, r1
 8000e8a:	60de      	str	r6, [r3, #12]
 8000e8c:	f8de 1010 	ldr.w	r1, [lr, #16]
 8000e90:	f8d9 6010 	ldr.w	r6, [r9, #16]
 8000e94:	fbe2 6c61 	umaal	r6, ip, r2, r1
 8000e98:	611e      	str	r6, [r3, #16]
 8000e9a:	f8de 1014 	ldr.w	r1, [lr, #20]
 8000e9e:	f8d9 6014 	ldr.w	r6, [r9, #20]
 8000ea2:	fbe2 6c61 	umaal	r6, ip, r2, r1
 8000ea6:	615e      	str	r6, [r3, #20]
 8000ea8:	f8de 1018 	ldr.w	r1, [lr, #24]
 8000eac:	f8d9 6018 	ldr.w	r6, [r9, #24]
 8000eb0:	fbe2 6c61 	umaal	r6, ip, r2, r1
 8000eb4:	619e      	str	r6, [r3, #24]
 8000eb6:	eb0c 0c50 	add.w	ip, ip, r0, lsr #1
 8000eba:	f8c3 c01c 	str.w	ip, [r3, #28]
 8000ebe:	ab18      	add	r3, sp, #96	@ 0x60
 8000ec0:	4622      	mov	r2, r4
 8000ec2:	469e      	mov	lr, r3
 8000ec4:	4699      	mov	r9, r3
 8000ec6:	f8de 001c 	ldr.w	r0, [lr, #28]
 8000eca:	f8d9 101c 	ldr.w	r1, [r9, #28]
 8000ece:	460e      	mov	r6, r1
 8000ed0:	fbe0 0662 	umaal	r0, r6, r0, r2
 8000ed4:	fbe1 0602 	umlal	r0, r6, r1, r2
 8000ed8:	f04f 0113 	mov.w	r1, #19
 8000edc:	fb06 f101 	mul.w	r1, r6, r1
 8000ee0:	f8de 6000 	ldr.w	r6, [lr]
 8000ee4:	f8d9 c000 	ldr.w	ip, [r9]
 8000ee8:	fbe2 6c61 	umaal	r6, ip, r2, r1
 8000eec:	601e      	str	r6, [r3, #0]
 8000eee:	f8de 1004 	ldr.w	r1, [lr, #4]
 8000ef2:	f8d9 6004 	ldr.w	r6, [r9, #4]
 8000ef6:	fbe2 6c61 	umaal	r6, ip, r2, r1
 8000efa:	605e      	str	r6, [r3, #4]
 8000efc:	f8de 1008 	ldr.w	r1, [lr, #8]
 8000f00:	f8d9 6008 	ldr.w	r6, [r9, #8]
 8000f04:	fbe2 6c61 	umaal	r6, ip, r2, r1
 8000f08:	609e      	str	r6, [r3, #8]
 8000f0a:	f8de 100c 	ldr.w	r1, [lr, #12]
 8000f0e:	f8d9 600c 	ldr.w	r6, [r9, #12]
 8000f12:	fbe2 6c61 	umaal	r6, ip, r2, r1
 8000f16:	60de      	str	r6, [r3, #12]
 8000f18:	f8de 1010 	ldr.w	r1, [lr, #16]
 8000f1c:	f8d9 6010 	ldr.w	r6, [r9, #16]
 8000f20:	fbe2 6c61 	umaal	r6, ip, r2, r1
 8000f24:	611e      	str	r6, [r3, #16]
 8000f26:	f8de 1014 	ldr.w	r1, [lr, #20]
 8000f2a:	f8d9 6014 	ldr.w	r6, [r9, #20]
 8000f2e:	fbe2 6c61 	umaal	r6, ip, r2, r1
 8000f32:	615e      	str	r6, [r3, #20]
 8000f34:	f8de 1018 	ldr.w	r1, [lr, #24]
 8000f38:	f8d9 6018 	ldr.w	r6, [r9, #24]
 8000f3c:	fbe2 6c61 	umaal	r6, ip, r2, r1
 8000f40:	619e      	str	r6, [r3, #24]
 8000f42:	eb0c 0c50 	add.w	ip, ip, r0, lsr #1
 8000f46:	f8c3 c01c 	str.w	ip, [r3, #28]
 8000f4a:	68aa      	ldr	r2, [r5, #8]
 8000f4c:	a918      	add	r1, sp, #96	@ 0x60
 8000f4e:	a820      	add	r0, sp, #128	@ 0x80
 8000f50:	f7ff faf0 	bl	8000534 <fe25519_mul_asm>
 8000f54:	a920      	add	r1, sp, #128	@ 0x80
 8000f56:	4642      	mov	r2, r8
 8000f58:	4608      	mov	r0, r1
 8000f5a:	f7ff faeb 	bl	8000534 <fe25519_mul_asm>
 8000f5e:	2600      	movs	r6, #0
 8000f60:	ab28      	add	r3, sp, #160	@ 0xa0
 8000f62:	4631      	mov	r1, r6
 8000f64:	aa20      	add	r2, sp, #128	@ 0x80
 8000f66:	4699      	mov	r9, r3
 8000f68:	f8d9 001c 	ldr.w	r0, [r9, #28]
 8000f6c:	f8d2 c01c 	ldr.w	ip, [r2, #28]
 8000f70:	ebb0 000c 	subs.w	r0, r0, ip
 8000f74:	eb7c 0c0c 	sbcs.w	ip, ip, ip
 8000f78:	eb10 0e00 	adds.w	lr, r0, r0
 8000f7c:	eb5c 0c0c 	adcs.w	ip, ip, ip
 8000f80:	f040 4000 	orr.w	r0, r0, #2147483648	@ 0x80000000
 8000f84:	61d8      	str	r0, [r3, #28]
 8000f86:	f1ac 0001 	sub.w	r0, ip, #1
 8000f8a:	f06f 0c12 	mvn.w	ip, #18
 8000f8e:	fb00 f00c 	mul.w	r0, r0, ip
 8000f92:	f8d2 c000 	ldr.w	ip, [r2]
 8000f96:	f8d9 e000 	ldr.w	lr, [r9]
 8000f9a:	fbe1 c061 	umaal	ip, r0, r1, r1
 8000f9e:	ebbe 0e0c 	subs.w	lr, lr, ip
 8000fa2:	f8c3 e000 	str.w	lr, [r3]
 8000fa6:	f8d2 c004 	ldr.w	ip, [r2, #4]
 8000faa:	f8d9 e004 	ldr.w	lr, [r9, #4]
 8000fae:	fbe1 c061 	umaal	ip, r0, r1, r1
 8000fb2:	eb7e 0e0c 	sbcs.w	lr, lr, ip
 8000fb6:	f8c3 e004 	str.w	lr, [r3, #4]
 8000fba:	f8d2 c008 	ldr.w	ip, [r2, #8]
 8000fbe:	f8d9 e008 	ldr.w	lr, [r9, #8]
 8000fc2:	fbe1 c061 	umaal	ip, r0, r1, r1
 8000fc6:	eb7e 0e0c 	sbcs.w	lr, lr, ip
 8000fca:	f8c3 e008 	str.w	lr, [r3, #8]
 8000fce:	f8d2 c00c 	ldr.w	ip, [r2, #12]
 8000fd2:	f8d9 e00c 	ldr.w	lr, [r9, #12]
 8000fd6:	fbe1 c061 	umaal	ip, r0, r1, r1
 8000fda:	eb7e 0e0c 	sbcs.w	lr, lr, ip
 8000fde:	f8c3 e00c 	str.w	lr, [r3, #12]
 8000fe2:	f8d2 c010 	ldr.w	ip, [r2, #16]
 8000fe6:	f8d9 e010 	ldr.w	lr, [r9, #16]
 8000fea:	fbe1 c061 	umaal	ip, r0, r1, r1
 8000fee:	eb7e 0e0c 	sbcs.w	lr, lr, ip
 8000ff2:	f8c3 e010 	str.w	lr, [r3, #16]
 8000ff6:	f8d2 c014 	ldr.w	ip, [r2, #20]
 8000ffa:	f8d9 e014 	ldr.w	lr, [r9, #20]
 8000ffe:	fbe1 c061 	umaal	ip, r0, r1, r1
 8001002:	eb7e 0e0c 	sbcs.w	lr, lr, ip
 8001006:	f8c3 e014 	str.w	lr, [r3, #20]
 800100a:	f8d2 c018 	ldr.w	ip, [r2, #24]
 800100e:	f8d9 e018 	ldr.w	lr, [r9, #24]
 8001012:	fbe1 c061 	umaal	ip, r0, r1, r1
 8001016:	eb7e 0e0c 	sbcs.w	lr, lr, ip
 800101a:	f8c3 e018 	str.w	lr, [r3, #24]
 800101e:	f8d3 e01c 	ldr.w	lr, [r3, #28]
 8001022:	eb7e 0e00 	sbcs.w	lr, lr, r0
 8001026:	f8c3 e01c 	str.w	lr, [r3, #28]
 800102a:	682a      	ldr	r2, [r5, #0]
 800102c:	a918      	add	r1, sp, #96	@ 0x60
 800102e:	a820      	add	r0, sp, #128	@ 0x80
 8001030:	f7ff fa80 	bl	8000534 <fe25519_mul_asm>
 8001034:	68a9      	ldr	r1, [r5, #8]
 8001036:	a830      	add	r0, sp, #192	@ 0xc0
 8001038:	f7ff f9ae 	bl	8000398 <fe25519_square_asm>
 800103c:	a930      	add	r1, sp, #192	@ 0xc0
 800103e:	68aa      	ldr	r2, [r5, #8]
 8001040:	4608      	mov	r0, r1
 8001042:	f7ff fa77 	bl	8000534 <fe25519_mul_asm>
 8001046:	a910      	add	r1, sp, #64	@ 0x40
 8001048:	aa30      	add	r2, sp, #192	@ 0xc0
 800104a:	4608      	mov	r0, r1
 800104c:	f7ff fa72 	bl	8000534 <fe25519_mul_asm>
 8001050:	ab10      	add	r3, sp, #64	@ 0x40
 8001052:	4622      	mov	r2, r4
 8001054:	4699      	mov	r9, r3
 8001056:	469a      	mov	sl, r3
 8001058:	f8d9 001c 	ldr.w	r0, [r9, #28]
 800105c:	f8da 101c 	ldr.w	r1, [sl, #28]
 8001060:	468c      	mov	ip, r1
 8001062:	fbe0 0c62 	umaal	r0, ip, r0, r2
 8001066:	fbe1 0c02 	umlal	r0, ip, r1, r2
 800106a:	f04f 0113 	mov.w	r1, #19
 800106e:	fb0c f101 	mul.w	r1, ip, r1
 8001072:	f8d9 c000 	ldr.w	ip, [r9]
 8001076:	f8da e000 	ldr.w	lr, [sl]
 800107a:	fbe2 ce61 	umaal	ip, lr, r2, r1
 800107e:	f8c3 c000 	str.w	ip, [r3]
 8001082:	f8d9 1004 	ldr.w	r1, [r9, #4]
 8001086:	f8da c004 	ldr.w	ip, [sl, #4]
 800108a:	fbe2 ce61 	umaal	ip, lr, r2, r1
 800108e:	f8c3 c004 	str.w	ip, [r3, #4]
 8001092:	f8d9 1008 	ldr.w	r1, [r9, #8]
 8001096:	f8da c008 	ldr.w	ip, [sl, #8]
 800109a:	fbe2 ce61 	umaal	ip, lr, r2, r1
 800109e:	f8c3 c008 	str.w	ip, [r3, #8]
 80010a2:	f8d9 100c 	ldr.w	r1, [r9, #12]
 80010a6:	f8da c00c 	ldr.w	ip, [sl, #12]
 80010aa:	fbe2 ce61 	umaal	ip, lr, r2, r1
 80010ae:	f8c3 c00c 	str.w	ip, [r3, #12]
 80010b2:	f8d9 1010 	ldr.w	r1, [r9, #16]
 80010b6:	f8da c010 	ldr.w	ip, [sl, #16]
 80010ba:	fbe2 ce61 	umaal	ip, lr, r2, r1
 80010be:	f8c3 c010 	str.w	ip, [r3, #16]
 80010c2:	f8d9 1014 	ldr.w	r1, [r9, #20]
 80010c6:	f8da c014 	ldr.w	ip, [sl, #20]
 80010ca:	fbe2 ce61 	umaal	ip, lr, r2, r1
 80010ce:	f8c3 c014 	str.w	ip, [r3, #20]
 80010d2:	f8d9 1018 	ldr.w	r1, [r9, #24]
 80010d6:	f8da c018 	ldr.w	ip, [sl, #24]
 80010da:	fbe2 ce61 	umaal	ip, lr, r2, r1
 80010de:	f8c3 c018 	str.w	ip, [r3, #24]
 80010e2:	eb0e 0e50 	add.w	lr, lr, r0, lsr #1
 80010e6:	f8c3 e01c 	str.w	lr, [r3, #28]
 80010ea:	ab10      	add	r3, sp, #64	@ 0x40
 80010ec:	4622      	mov	r2, r4
 80010ee:	4699      	mov	r9, r3
 80010f0:	469a      	mov	sl, r3
 80010f2:	f8d9 001c 	ldr.w	r0, [r9, #28]
 80010f6:	f8da 101c 	ldr.w	r1, [sl, #28]
 80010fa:	468c      	mov	ip, r1
 80010fc:	fbe0 0c62 	umaal	r0, ip, r0, r2
 8001100:	fbe1 0c02 	umlal	r0, ip, r1, r2
 8001104:	f04f 0113 	mov.w	r1, #19
 8001108:	fb0c f101 	mul.w	r1, ip, r1
 800110c:	f8d9 c000 	ldr.w	ip, [r9]
 8001110:	f8da e000 	ldr.w	lr, [sl]
 8001114:	fbe2 ce61 	umaal	ip, lr, r2, r1
 8001118:	f8c3 c000 	str.w	ip, [r3]
 800111c:	f8d9 1004 	ldr.w	r1, [r9, #4]
 8001120:	f8da c004 	ldr.w	ip, [sl, #4]
 8001124:	fbe2 ce61 	umaal	ip, lr, r2, r1
 8001128:	f8c3 c004 	str.w	ip, [r3, #4]
 800112c:	f8d9 1008 	ldr.w	r1, [r9, #8]
 8001130:	f8da c008 	ldr.w	ip, [sl, #8]
 8001134:	fbe2 ce61 	umaal	ip, lr, r2, r1
 8001138:	f8c3 c008 	str.w	ip, [r3, #8]
 800113c:	f8d9 100c 	ldr.w	r1, [r9, #12]
 8001140:	f8da c00c 	ldr.w	ip, [sl, #12]
 8001144:	fbe2 ce61 	umaal	ip, lr, r2, r1
 8001148:	f8c3 c00c 	str.w	ip, [r3, #12]
 800114c:	f8d9 1010 	ldr.w	r1, [r9, #16]
 8001150:	f8da c010 	ldr.w	ip, [sl, #16]
 8001154:	fbe2 ce61 	umaal	ip, lr, r2, r1
 8001158:	f8c3 c010 	str.w	ip, [r3, #16]
 800115c:	f8d9 1014 	ldr.w	r1, [r9, #20]
 8001160:	f8da c014 	ldr.w	ip, [sl, #20]
 8001164:	fbe2 ce61 	umaal	ip, lr, r2, r1
 8001168:	f8c3 c014 	str.w	ip, [r3, #20]
 800116c:	f8d9 1018 	ldr.w	r1, [r9, #24]
 8001170:	f8da c018 	ldr.w	ip, [sl, #24]
 8001174:	fbe2 ce61 	umaal	ip, lr, r2, r1
 8001178:	f8c3 c018 	str.w	ip, [r3, #24]
 800117c:	eb0e 0e50 	add.w	lr, lr, r0, lsr #1
 8001180:	f8c3 e01c 	str.w	lr, [r3, #28]
 8001184:	68aa      	ldr	r2, [r5, #8]
 8001186:	4641      	mov	r1, r8
 8001188:	a830      	add	r0, sp, #192	@ 0xc0
 800118a:	f7ff f9d3 	bl	8000534 <fe25519_mul_asm>
 800118e:	ab30      	add	r3, sp, #192	@ 0xc0
 8001190:	682a      	ldr	r2, [r5, #0]
 8001192:	4621      	mov	r1, r4
 8001194:	4699      	mov	r9, r3
 8001196:	f8d9 c01c 	ldr.w	ip, [r9, #28]
 800119a:	69d0      	ldr	r0, [r2, #28]
 800119c:	4686      	mov	lr, r0
 800119e:	fbec ce61 	umaal	ip, lr, ip, r1
 80011a2:	fbe0 ce01 	umlal	ip, lr, r0, r1
 80011a6:	f04f 0013 	mov.w	r0, #19
 80011aa:	fb0e f000 	mul.w	r0, lr, r0
 80011ae:	f8d9 e000 	ldr.w	lr, [r9]
 80011b2:	f8d2 8000 	ldr.w	r8, [r2]
 80011b6:	fbe1 e860 	umaal	lr, r8, r1, r0
 80011ba:	f8c3 e000 	str.w	lr, [r3]
 80011be:	f8d9 0004 	ldr.w	r0, [r9, #4]
 80011c2:	f8d2 e004 	ldr.w	lr, [r2, #4]
 80011c6:	fbe1 e860 	umaal	lr, r8, r1, r0
 80011ca:	f8c3 e004 	str.w	lr, [r3, #4]
 80011ce:	f8d9 0008 	ldr.w	r0, [r9, #8]
 80011d2:	f8d2 e008 	ldr.w	lr, [r2, #8]
 80011d6:	fbe1 e860 	umaal	lr, r8, r1, r0
 80011da:	f8c3 e008 	str.w	lr, [r3, #8]
 80011de:	f8d9 000c 	ldr.w	r0, [r9, #12]
 80011e2:	f8d2 e00c 	ldr.w	lr, [r2, #12]
 80011e6:	fbe1 e860 	umaal	lr, r8, r1, r0
 80011ea:	f8c3 e00c 	str.w	lr, [r3, #12]
 80011ee:	f8d9 0010 	ldr.w	r0, [r9, #16]
 80011f2:	f8d2 e010 	ldr.w	lr, [r2, #16]
 80011f6:	fbe1 e860 	umaal	lr, r8, r1, r0
 80011fa:	f8c3 e010 	str.w	lr, [r3, #16]
 80011fe:	f8d9 0014 	ldr.w	r0, [r9, #20]
 8001202:	f8d2 e014 	ldr.w	lr, [r2, #20]
 8001206:	fbe1 e860 	umaal	lr, r8, r1, r0
 800120a:	f8c3 e014 	str.w	lr, [r3, #20]
 800120e:	f8d9 0018 	ldr.w	r0, [r9, #24]
 8001212:	f8d2 e018 	ldr.w	lr, [r2, #24]
 8001216:	fbe1 e860 	umaal	lr, r8, r1, r0
 800121a:	f8c3 e018 	str.w	lr, [r3, #24]
 800121e:	eb08 085c 	add.w	r8, r8, ip, lsr #1
 8001222:	f8c3 801c 	str.w	r8, [r3, #28]
 8001226:	ab30      	add	r3, sp, #192	@ 0xc0
 8001228:	682a      	ldr	r2, [r5, #0]
 800122a:	4621      	mov	r1, r4
 800122c:	4699      	mov	r9, r3
 800122e:	f8d9 c01c 	ldr.w	ip, [r9, #28]
 8001232:	69d0      	ldr	r0, [r2, #28]
 8001234:	4686      	mov	lr, r0
 8001236:	fbec ce61 	umaal	ip, lr, ip, r1
 800123a:	fbe0 ce01 	umlal	ip, lr, r0, r1
 800123e:	f04f 0013 	mov.w	r0, #19
 8001242:	fb0e f000 	mul.w	r0, lr, r0
 8001246:	f8d9 e000 	ldr.w	lr, [r9]
 800124a:	f8d2 8000 	ldr.w	r8, [r2]
 800124e:	fbe1 e860 	umaal	lr, r8, r1, r0
 8001252:	f8c3 e000 	str.w	lr, [r3]
 8001256:	f8d9 0004 	ldr.w	r0, [r9, #4]
 800125a:	f8d2 e004 	ldr.w	lr, [r2, #4]
 800125e:	fbe1 e860 	umaal	lr, r8, r1, r0
 8001262:	f8c3 e004 	str.w	lr, [r3, #4]
 8001266:	f8d9 0008 	ldr.w	r0, [r9, #8]
 800126a:	f8d2 e008 	ldr.w	lr, [r2, #8]
 800126e:	fbe1 e860 	umaal	lr, r8, r1, r0
 8001272:	f8c3 e008 	str.w	lr, [r3, #8]
 8001276:	f8d9 000c 	ldr.w	r0, [r9, #12]
 800127a:	f8d2 e00c 	ldr.w	lr, [r2, #12]
 800127e:	fbe1 e860 	umaal	lr, r8, r1, r0
 8001282:	f8c3 e00c 	str.w	lr, [r3, #12]
 8001286:	f8d9 0010 	ldr.w	r0, [r9, #16]
 800128a:	f8d2 e010 	ldr.w	lr, [r2, #16]
 800128e:	fbe1 e860 	umaal	lr, r8, r1, r0
 8001292:	f8c3 e010 	str.w	lr, [r3, #16]
 8001296:	f8d9 0014 	ldr.w	r0, [r9, #20]
 800129a:	f8d2 e014 	ldr.w	lr, [r2, #20]
 800129e:	fbe1 e860 	umaal	lr, r8, r1, r0
 80012a2:	f8c3 e014 	str.w	lr, [r3, #20]
 80012a6:	f8d9 0018 	ldr.w	r0, [r9, #24]
 80012aa:	f8d2 e018 	ldr.w	lr, [r2, #24]
 80012ae:	fbe1 e860 	umaal	lr, r8, r1, r0
 80012b2:	f8c3 e018 	str.w	lr, [r3, #24]
 80012b6:	eb08 085c 	add.w	r8, r8, ip, lsr #1
 80012ba:	f8c3 801c 	str.w	r8, [r3, #28]
 80012be:	ab30      	add	r3, sp, #192	@ 0xc0
 80012c0:	682a      	ldr	r2, [r5, #0]
 80012c2:	4621      	mov	r1, r4
 80012c4:	4699      	mov	r9, r3
 80012c6:	f8d9 c01c 	ldr.w	ip, [r9, #28]
 80012ca:	69d0      	ldr	r0, [r2, #28]
 80012cc:	4686      	mov	lr, r0
 80012ce:	fbec ce61 	umaal	ip, lr, ip, r1
 80012d2:	fbe0 ce01 	umlal	ip, lr, r0, r1
 80012d6:	f04f 0013 	mov.w	r0, #19
 80012da:	fb0e f000 	mul.w	r0, lr, r0
 80012de:	f8d9 e000 	ldr.w	lr, [r9]
 80012e2:	f8d2 8000 	ldr.w	r8, [r2]
 80012e6:	fbe1 e860 	umaal	lr, r8, r1, r0
 80012ea:	f8c3 e000 	str.w	lr, [r3]
 80012ee:	f8d9 0004 	ldr.w	r0, [r9, #4]
 80012f2:	f8d2 e004 	ldr.w	lr, [r2, #4]
 80012f6:	fbe1 e860 	umaal	lr, r8, r1, r0
 80012fa:	f8c3 e004 	str.w	lr, [r3, #4]
 80012fe:	f8d9 0008 	ldr.w	r0, [r9, #8]
 8001302:	f8d2 e008 	ldr.w	lr, [r2, #8]
 8001306:	fbe1 e860 	umaal	lr, r8, r1, r0
 800130a:	f8c3 e008 	str.w	lr, [r3, #8]
 800130e:	f8d9 000c 	ldr.w	r0, [r9, #12]
 8001312:	f8d2 e00c 	ldr.w	lr, [r2, #12]
 8001316:	fbe1 e860 	umaal	lr, r8, r1, r0
 800131a:	f8c3 e00c 	str.w	lr, [r3, #12]
 800131e:	f8d9 0010 	ldr.w	r0, [r9, #16]
 8001322:	f8d2 e010 	ldr.w	lr, [r2, #16]
 8001326:	fbe1 e860 	umaal	lr, r8, r1, r0
 800132a:	f8c3 e010 	str.w	lr, [r3, #16]
 800132e:	f8d9 0014 	ldr.w	r0, [r9, #20]
 8001332:	f8d2 e014 	ldr.w	lr, [r2, #20]
 8001336:	fbe1 e860 	umaal	lr, r8, r1, r0
 800133a:	f8c3 e014 	str.w	lr, [r3, #20]
 800133e:	f8d9 0018 	ldr.w	r0, [r9, #24]
 8001342:	f8d2 e018 	ldr.w	lr, [r2, #24]
 8001346:	fbe1 e860 	umaal	lr, r8, r1, r0
 800134a:	f8c3 e018 	str.w	lr, [r3, #24]
 800134e:	eb08 085c 	add.w	r8, r8, ip, lsr #1
 8001352:	f8c3 801c 	str.w	r8, [r3, #28]
 8001356:	a930      	add	r1, sp, #192	@ 0xc0
 8001358:	aa10      	add	r2, sp, #64	@ 0x40
 800135a:	4608      	mov	r0, r1
 800135c:	f7ff f8ea 	bl	8000534 <fe25519_mul_asm>
 8001360:	ab20      	add	r3, sp, #128	@ 0x80
 8001362:	469e      	mov	lr, r3
 8001364:	4698      	mov	r8, r3
 8001366:	f8de 101c 	ldr.w	r1, [lr, #28]
 800136a:	f8d8 201c 	ldr.w	r2, [r8, #28]
 800136e:	4610      	mov	r0, r2
 8001370:	fbe1 1064 	umaal	r1, r0, r1, r4
 8001374:	fbe2 1004 	umlal	r1, r0, r2, r4
 8001378:	f04f 0213 	mov.w	r2, #19
 800137c:	fb00 f202 	mul.w	r2, r0, r2
 8001380:	f8de 0000 	ldr.w	r0, [lr]
 8001384:	f8d8 c000 	ldr.w	ip, [r8]
 8001388:	fbe4 0c62 	umaal	r0, ip, r4, r2
 800138c:	6018      	str	r0, [r3, #0]
 800138e:	f8de 2004 	ldr.w	r2, [lr, #4]
 8001392:	f8d8 0004 	ldr.w	r0, [r8, #4]
 8001396:	fbe4 0c62 	umaal	r0, ip, r4, r2
 800139a:	6058      	str	r0, [r3, #4]
 800139c:	f8de 2008 	ldr.w	r2, [lr, #8]
 80013a0:	f8d8 0008 	ldr.w	r0, [r8, #8]
 80013a4:	fbe4 0c62 	umaal	r0, ip, r4, r2
 80013a8:	6098      	str	r0, [r3, #8]
 80013aa:	f8de 200c 	ldr.w	r2, [lr, #12]
 80013ae:	f8d8 000c 	ldr.w	r0, [r8, #12]
 80013b2:	fbe4 0c62 	umaal	r0, ip, r4, r2
 80013b6:	60d8      	str	r0, [r3, #12]
 80013b8:	f8de 2010 	ldr.w	r2, [lr, #16]
 80013bc:	f8d8 0010 	ldr.w	r0, [r8, #16]
 80013c0:	fbe4 0c62 	umaal	r0, ip, r4, r2
 80013c4:	6118      	str	r0, [r3, #16]
 80013c6:	f8de 2014 	ldr.w	r2, [lr, #20]
 80013ca:	f8d8 0014 	ldr.w	r0, [r8, #20]
 80013ce:	fbe4 0c62 	umaal	r0, ip, r4, r2
 80013d2:	6158      	str	r0, [r3, #20]
 80013d4:	f8de 2018 	ldr.w	r2, [lr, #24]
 80013d8:	f8d8 0018 	ldr.w	r0, [r8, #24]
 80013dc:	fbe4 0c62 	umaal	r0, ip, r4, r2
 80013e0:	6198      	str	r0, [r3, #24]
 80013e2:	eb0c 0c51 	add.w	ip, ip, r1, lsr #1
 80013e6:	f8c3 c01c 	str.w	ip, [r3, #28]
 80013ea:	683a      	ldr	r2, [r7, #0]
 80013ec:	ab28      	add	r3, sp, #160	@ 0xa0
 80013ee:	a920      	add	r1, sp, #128	@ 0x80
 80013f0:	4630      	mov	r0, r6
 80013f2:	69dc      	ldr	r4, [r3, #28]
 80013f4:	f8d1 c01c 	ldr.w	ip, [r1, #28]
 80013f8:	ebb4 040c 	subs.w	r4, r4, ip
 80013fc:	eb7c 0c0c 	sbcs.w	ip, ip, ip
 8001400:	eb14 0e04 	adds.w	lr, r4, r4
 8001404:	eb5c 0c0c 	adcs.w	ip, ip, ip
 8001408:	f044 4400 	orr.w	r4, r4, #2147483648	@ 0x80000000
 800140c:	61d4      	str	r4, [r2, #28]
 800140e:	f1ac 0401 	sub.w	r4, ip, #1
 8001412:	f06f 0c12 	mvn.w	ip, #18
 8001416:	fb04 f40c 	mul.w	r4, r4, ip
 800141a:	f8d1 c000 	ldr.w	ip, [r1]
 800141e:	f8d3 e000 	ldr.w	lr, [r3]
 8001422:	fbe0 c460 	umaal	ip, r4, r0, r0
 8001426:	ebbe 0e0c 	subs.w	lr, lr, ip
 800142a:	f8c2 e000 	str.w	lr, [r2]
 800142e:	f8d1 c004 	ldr.w	ip, [r1, #4]
 8001432:	f8d3 e004 	ldr.w	lr, [r3, #4]
 8001436:	fbe0 c460 	umaal	ip, r4, r0, r0
 800143a:	eb7e 0e0c 	sbcs.w	lr, lr, ip
 800143e:	f8c2 e004 	str.w	lr, [r2, #4]
 8001442:	f8d1 c008 	ldr.w	ip, [r1, #8]
 8001446:	f8d3 e008 	ldr.w	lr, [r3, #8]
 800144a:	fbe0 c460 	umaal	ip, r4, r0, r0
 800144e:	eb7e 0e0c 	sbcs.w	lr, lr, ip
 8001452:	f8c2 e008 	str.w	lr, [r2, #8]
 8001456:	f8d1 c00c 	ldr.w	ip, [r1, #12]
 800145a:	f8d3 e00c 	ldr.w	lr, [r3, #12]
 800145e:	fbe0 c460 	umaal	ip, r4, r0, r0
 8001462:	eb7e 0e0c 	sbcs.w	lr, lr, ip
 8001466:	f8c2 e00c 	str.w	lr, [r2, #12]
 800146a:	f8d1 c010 	ldr.w	ip, [r1, #16]
 800146e:	f8d3 e010 	ldr.w	lr, [r3, #16]
 8001472:	fbe0 c460 	umaal	ip, r4, r0, r0
 8001476:	eb7e 0e0c 	sbcs.w	lr, lr, ip
 800147a:	f8c2 e010 	str.w	lr, [r2, #16]
 800147e:	f8d1 c014 	ldr.w	ip, [r1, #20]
 8001482:	f8d3 e014 	ldr.w	lr, [r3, #20]
 8001486:	fbe0 c460 	umaal	ip, r4, r0, r0
 800148a:	eb7e 0e0c 	sbcs.w	lr, lr, ip
 800148e:	f8c2 e014 	str.w	lr, [r2, #20]
 8001492:	f8d1 c018 	ldr.w	ip, [r1, #24]
 8001496:	f8d3 e018 	ldr.w	lr, [r3, #24]
 800149a:	fbe0 c460 	umaal	ip, r4, r0, r0
 800149e:	eb7e 0e0c 	sbcs.w	lr, lr, ip
 80014a2:	f8c2 e018 	str.w	lr, [r2, #24]
 80014a6:	f8d2 e01c 	ldr.w	lr, [r2, #28]
 80014aa:	eb7e 0e04 	sbcs.w	lr, lr, r4
 80014ae:	f8c2 e01c 	str.w	lr, [r2, #28]
 80014b2:	a930      	add	r1, sp, #192	@ 0xc0
 80014b4:	466a      	mov	r2, sp
 80014b6:	4608      	mov	r0, r1
 80014b8:	f7ff f83c 	bl	8000534 <fe25519_mul_asm>
 80014bc:	a908      	add	r1, sp, #32
 80014be:	466a      	mov	r2, sp
 80014c0:	4608      	mov	r0, r1
 80014c2:	f7ff f837 	bl	8000534 <fe25519_mul_asm>
 80014c6:	aa30      	add	r2, sp, #192	@ 0xc0
 80014c8:	ab08      	add	r3, sp, #32
 80014ca:	4631      	mov	r1, r6
 80014cc:	4696      	mov	lr, r2
 80014ce:	f8de 001c 	ldr.w	r0, [lr, #28]
 80014d2:	69dc      	ldr	r4, [r3, #28]
 80014d4:	1b00      	subs	r0, r0, r4
 80014d6:	41a4      	sbcs	r4, r4
 80014d8:	eb10 0c00 	adds.w	ip, r0, r0
 80014dc:	4164      	adcs	r4, r4
 80014de:	f040 4000 	orr.w	r0, r0, #2147483648	@ 0x80000000
 80014e2:	61d0      	str	r0, [r2, #28]
 80014e4:	f1a4 0001 	sub.w	r0, r4, #1
 80014e8:	f06f 0412 	mvn.w	r4, #18
 80014ec:	fb00 f004 	mul.w	r0, r0, r4
 80014f0:	681c      	ldr	r4, [r3, #0]
 80014f2:	f8de c000 	ldr.w	ip, [lr]
 80014f6:	fbe1 4061 	umaal	r4, r0, r1, r1
 80014fa:	ebbc 0c04 	subs.w	ip, ip, r4
 80014fe:	f8c2 c000 	str.w	ip, [r2]
 8001502:	685c      	ldr	r4, [r3, #4]
 8001504:	f8de c004 	ldr.w	ip, [lr, #4]
 8001508:	fbe1 4061 	umaal	r4, r0, r1, r1
 800150c:	eb7c 0c04 	sbcs.w	ip, ip, r4
 8001510:	f8c2 c004 	str.w	ip, [r2, #4]
 8001514:	689c      	ldr	r4, [r3, #8]
 8001516:	f8de c008 	ldr.w	ip, [lr, #8]
 800151a:	fbe1 4061 	umaal	r4, r0, r1, r1
 800151e:	eb7c 0c04 	sbcs.w	ip, ip, r4
 8001522:	f8c2 c008 	str.w	ip, [r2, #8]
 8001526:	68dc      	ldr	r4, [r3, #12]
 8001528:	f8de c00c 	ldr.w	ip, [lr, #12]
 800152c:	fbe1 4061 	umaal	r4, r0, r1, r1
 8001530:	eb7c 0c04 	sbcs.w	ip, ip, r4
 8001534:	f8c2 c00c 	str.w	ip, [r2, #12]
 8001538:	691c      	ldr	r4, [r3, #16]
 800153a:	f8de c010 	ldr.w	ip, [lr, #16]
 800153e:	fbe1 4061 	umaal	r4, r0, r1, r1
 8001542:	eb7c 0c04 	sbcs.w	ip, ip, r4
 8001546:	f8c2 c010 	str.w	ip, [r2, #16]
 800154a:	695c      	ldr	r4, [r3, #20]
 800154c:	f8de c014 	ldr.w	ip, [lr, #20]
 8001550:	fbe1 4061 	umaal	r4, r0, r1, r1
 8001554:	eb7c 0c04 	sbcs.w	ip, ip, r4
 8001558:	f8c2 c014 	str.w	ip, [r2, #20]
 800155c:	699c      	ldr	r4, [r3, #24]
 800155e:	f8de c018 	ldr.w	ip, [lr, #24]
 8001562:	fbe1 4061 	umaal	r4, r0, r1, r1
 8001566:	eb7c 0c04 	sbcs.w	ip, ip, r4
 800156a:	f8c2 c018 	str.w	ip, [r2, #24]
 800156e:	f8d2 c01c 	ldr.w	ip, [r2, #28]
 8001572:	eb7c 0c00 	sbcs.w	ip, ip, r0
 8001576:	f8c2 c01c 	str.w	ip, [r2, #28]
 800157a:	686a      	ldr	r2, [r5, #4]
 800157c:	a918      	add	r1, sp, #96	@ 0x60
 800157e:	a820      	add	r0, sp, #128	@ 0x80
 8001580:	f7fe ffd8 	bl	8000534 <fe25519_mul_asm>
 8001584:	6879      	ldr	r1, [r7, #4]
 8001586:	ab30      	add	r3, sp, #192	@ 0xc0
 8001588:	aa20      	add	r2, sp, #128	@ 0x80
 800158a:	69d8      	ldr	r0, [r3, #28]
 800158c:	69d4      	ldr	r4, [r2, #28]
 800158e:	1b00      	subs	r0, r0, r4
 8001590:	41a4      	sbcs	r4, r4
 8001592:	eb10 0c00 	adds.w	ip, r0, r0
 8001596:	4164      	adcs	r4, r4
 8001598:	f040 4000 	orr.w	r0, r0, #2147483648	@ 0x80000000
 800159c:	61c8      	str	r0, [r1, #28]
 800159e:	f1a4 0001 	sub.w	r0, r4, #1
 80015a2:	f06f 0412 	mvn.w	r4, #18
 80015a6:	fb00 f004 	mul.w	r0, r0, r4
 80015aa:	6814      	ldr	r4, [r2, #0]
 80015ac:	f8d3 c000 	ldr.w	ip, [r3]
 80015b0:	fbe6 4066 	umaal	r4, r0, r6, r6
 80015b4:	ebbc 0c04 	subs.w	ip, ip, r4
 80015b8:	f8c1 c000 	str.w	ip, [r1]
 80015bc:	6854      	ldr	r4, [r2, #4]
 80015be:	f8d3 c004 	ldr.w	ip, [r3, #4]
 80015c2:	fbe6 4066 	umaal	r4, r0, r6, r6
 80015c6:	eb7c 0c04 	sbcs.w	ip, ip, r4
 80015ca:	f8c1 c004 	str.w	ip, [r1, #4]
 80015ce:	6894      	ldr	r4, [r2, #8]
 80015d0:	f8d3 c008 	ldr.w	ip, [r3, #8]
 80015d4:	fbe6 4066 	umaal	r4, r0, r6, r6
 80015d8:	eb7c 0c04 	sbcs.w	ip, ip, r4
 80015dc:	f8c1 c008 	str.w	ip, [r1, #8]
 80015e0:	68d4      	ldr	r4, [r2, #12]
 80015e2:	f8d3 c00c 	ldr.w	ip, [r3, #12]
 80015e6:	fbe6 4066 	umaal	r4, r0, r6, r6
 80015ea:	eb7c 0c04 	sbcs.w	ip, ip, r4
 80015ee:	f8c1 c00c 	str.w	ip, [r1, #12]
 80015f2:	6914      	ldr	r4, [r2, #16]
 80015f4:	f8d3 c010 	ldr.w	ip, [r3, #16]
 80015f8:	fbe6 4066 	umaal	r4, r0, r6, r6
 80015fc:	eb7c 0c04 	sbcs.w	ip, ip, r4
 8001600:	f8c1 c010 	str.w	ip, [r1, #16]
 8001604:	6954      	ldr	r4, [r2, #20]
 8001606:	f8d3 c014 	ldr.w	ip, [r3, #20]
 800160a:	fbe6 4066 	umaal	r4, r0, r6, r6
 800160e:	eb7c 0c04 	sbcs.w	ip, ip, r4
 8001612:	f8c1 c014 	str.w	ip, [r1, #20]
 8001616:	6994      	ldr	r4, [r2, #24]
 8001618:	f8d3 c018 	ldr.w	ip, [r3, #24]
 800161c:	fbe6 4066 	umaal	r4, r0, r6, r6
 8001620:	eb7c 0c04 	sbcs.w	ip, ip, r4
 8001624:	f8c1 c018 	str.w	ip, [r1, #24]
 8001628:	f8d1 c01c 	ldr.w	ip, [r1, #28]
 800162c:	eb7c 0c00 	sbcs.w	ip, ip, r0
 8001630:	f8c1 c01c 	str.w	ip, [r1, #28]
 8001634:	68aa      	ldr	r2, [r5, #8]
 8001636:	68b8      	ldr	r0, [r7, #8]
 8001638:	a918      	add	r1, sp, #96	@ 0x60
 800163a:	f7fe ff7b 	bl	8000534 <fe25519_mul_asm>
 800163e:	b038      	add	sp, #224	@ 0xe0
 8001640:	e8bd 87f0 	ldmia.w	sp!, {r4, r5, r6, r7, r8, r9, sl, pc}
 8001644:	08003f40 	.word	0x08003f40

08001648 <curve25519_addPoint>:
 8001648:	e92d 41f0 	stmdb	sp!, {r4, r5, r6, r7, r8, lr}
 800164c:	4616      	mov	r6, r2
 800164e:	b0e0      	sub	sp, #384	@ 0x180
 8001650:	460d      	mov	r5, r1
 8001652:	688a      	ldr	r2, [r1, #8]
 8001654:	6871      	ldr	r1, [r6, #4]
 8001656:	4604      	mov	r4, r0
 8001658:	4668      	mov	r0, sp
 800165a:	f7fe ff6b 	bl	8000534 <fe25519_mul_asm>
 800165e:	68b2      	ldr	r2, [r6, #8]
 8001660:	6869      	ldr	r1, [r5, #4]
 8001662:	a808      	add	r0, sp, #32
 8001664:	f7fe ff66 	bl	8000534 <fe25519_mul_asm>
 8001668:	68b2      	ldr	r2, [r6, #8]
 800166a:	68a9      	ldr	r1, [r5, #8]
 800166c:	a810      	add	r0, sp, #64	@ 0x40
 800166e:	f7fe ff61 	bl	8000534 <fe25519_mul_asm>
 8001672:	68aa      	ldr	r2, [r5, #8]
 8001674:	6831      	ldr	r1, [r6, #0]
 8001676:	a818      	add	r0, sp, #96	@ 0x60
 8001678:	f7fe ff5c 	bl	8000534 <fe25519_mul_asm>
 800167c:	68b2      	ldr	r2, [r6, #8]
 800167e:	6829      	ldr	r1, [r5, #0]
 8001680:	a820      	add	r0, sp, #128	@ 0x80
 8001682:	2500      	movs	r5, #0
 8001684:	f7fe ff56 	bl	8000534 <fe25519_mul_asm>
 8001688:	466b      	mov	r3, sp
 800168a:	aa28      	add	r2, sp, #160	@ 0xa0
 800168c:	a908      	add	r1, sp, #32
 800168e:	4628      	mov	r0, r5
 8001690:	69de      	ldr	r6, [r3, #28]
 8001692:	69cf      	ldr	r7, [r1, #28]
 8001694:	1bf6      	subs	r6, r6, r7
 8001696:	41bf      	sbcs	r7, r7
 8001698:	eb16 0c06 	adds.w	ip, r6, r6
 800169c:	417f      	adcs	r7, r7
 800169e:	f046 4600 	orr.w	r6, r6, #2147483648	@ 0x80000000
 80016a2:	61d6      	str	r6, [r2, #28]
 80016a4:	f1a7 0601 	sub.w	r6, r7, #1
 80016a8:	f06f 0712 	mvn.w	r7, #18
 80016ac:	fb06 f607 	mul.w	r6, r6, r7
 80016b0:	680f      	ldr	r7, [r1, #0]
 80016b2:	f8d3 c000 	ldr.w	ip, [r3]
 80016b6:	fbe0 7660 	umaal	r7, r6, r0, r0
 80016ba:	ebbc 0c07 	subs.w	ip, ip, r7
 80016be:	f8c2 c000 	str.w	ip, [r2]
 80016c2:	684f      	ldr	r7, [r1, #4]
 80016c4:	f8d3 c004 	ldr.w	ip, [r3, #4]
 80016c8:	fbe0 7660 	umaal	r7, r6, r0, r0
 80016cc:	eb7c 0c07 	sbcs.w	ip, ip, r7
 80016d0:	f8c2 c004 	str.w	ip, [r2, #4]
 80016d4:	688f      	ldr	r7, [r1, #8]
 80016d6:	f8d3 c008 	ldr.w	ip, [r3, #8]
 80016da:	fbe0 7660 	umaal	r7, r6, r0, r0
 80016de:	eb7c 0c07 	sbcs.w	ip, ip, r7
 80016e2:	f8c2 c008 	str.w	ip, [r2, #8]
 80016e6:	68cf      	ldr	r7, [r1, #12]
 80016e8:	f8d3 c00c 	ldr.w	ip, [r3, #12]
 80016ec:	fbe0 7660 	umaal	r7, r6, r0, r0
 80016f0:	eb7c 0c07 	sbcs.w	ip, ip, r7
 80016f4:	f8c2 c00c 	str.w	ip, [r2, #12]
 80016f8:	690f      	ldr	r7, [r1, #16]
 80016fa:	f8d3 c010 	ldr.w	ip, [r3, #16]
 80016fe:	fbe0 7660 	umaal	r7, r6, r0, r0
 8001702:	eb7c 0c07 	sbcs.w	ip, ip, r7
 8001706:	f8c2 c010 	str.w	ip, [r2, #16]
 800170a:	694f      	ldr	r7, [r1, #20]
 800170c:	f8d3 c014 	ldr.w	ip, [r3, #20]
 8001710:	fbe0 7660 	umaal	r7, r6, r0, r0
 8001714:	eb7c 0c07 	sbcs.w	ip, ip, r7
 8001718:	f8c2 c014 	str.w	ip, [r2, #20]
 800171c:	698f      	ldr	r7, [r1, #24]
 800171e:	f8d3 c018 	ldr.w	ip, [r3, #24]
 8001722:	fbe0 7660 	umaal	r7, r6, r0, r0
 8001726:	eb7c 0c07 	sbcs.w	ip, ip, r7
 800172a:	f8c2 c018 	str.w	ip, [r2, #24]
 800172e:	f8d2 c01c 	ldr.w	ip, [r2, #28]
 8001732:	eb7c 0c06 	sbcs.w	ip, ip, r6
 8001736:	f8c2 c01c 	str.w	ip, [r2, #28]
 800173a:	ab30      	add	r3, sp, #192	@ 0xc0
 800173c:	aa18      	add	r2, sp, #96	@ 0x60
 800173e:	a920      	add	r1, sp, #128	@ 0x80
 8001740:	4628      	mov	r0, r5
 8001742:	69d6      	ldr	r6, [r2, #28]
 8001744:	69cf      	ldr	r7, [r1, #28]
 8001746:	1bf6      	subs	r6, r6, r7
 8001748:	41bf      	sbcs	r7, r7
 800174a:	eb16 0c06 	adds.w	ip, r6, r6
 800174e:	417f      	adcs	r7, r7
 8001750:	f046 4600 	orr.w	r6, r6, #2147483648	@ 0x80000000
 8001754:	61de      	str	r6, [r3, #28]
 8001756:	f1a7 0601 	sub.w	r6, r7, #1
 800175a:	f06f 0712 	mvn.w	r7, #18
 800175e:	fb06 f607 	mul.w	r6, r6, r7
 8001762:	680f      	ldr	r7, [r1, #0]
 8001764:	f8d2 c000 	ldr.w	ip, [r2]
 8001768:	fbe0 7660 	umaal	r7, r6, r0, r0
 800176c:	ebbc 0c07 	subs.w	ip, ip, r7
 8001770:	f8c3 c000 	str.w	ip, [r3]
 8001774:	684f      	ldr	r7, [r1, #4]
 8001776:	f8d2 c004 	ldr.w	ip, [r2, #4]
 800177a:	fbe0 7660 	umaal	r7, r6, r0, r0
 800177e:	eb7c 0c07 	sbcs.w	ip, ip, r7
 8001782:	f8c3 c004 	str.w	ip, [r3, #4]
 8001786:	688f      	ldr	r7, [r1, #8]
 8001788:	f8d2 c008 	ldr.w	ip, [r2, #8]
 800178c:	fbe0 7660 	umaal	r7, r6, r0, r0
 8001790:	eb7c 0c07 	sbcs.w	ip, ip, r7
 8001794:	f8c3 c008 	str.w	ip, [r3, #8]
 8001798:	68cf      	ldr	r7, [r1, #12]
 800179a:	f8d2 c00c 	ldr.w	ip, [r2, #12]
 800179e:	fbe0 7660 	umaal	r7, r6, r0, r0
 80017a2:	eb7c 0c07 	sbcs.w	ip, ip, r7
 80017a6:	f8c3 c00c 	str.w	ip, [r3, #12]
 80017aa:	690f      	ldr	r7, [r1, #16]
 80017ac:	f8d2 c010 	ldr.w	ip, [r2, #16]
 80017b0:	fbe0 7660 	umaal	r7, r6, r0, r0
 80017b4:	eb7c 0c07 	sbcs.w	ip, ip, r7
 80017b8:	f8c3 c010 	str.w	ip, [r3, #16]
 80017bc:	694f      	ldr	r7, [r1, #20]
 80017be:	f8d2 c014 	ldr.w	ip, [r2, #20]
 80017c2:	fbe0 7660 	umaal	r7, r6, r0, r0
 80017c6:	eb7c 0c07 	sbcs.w	ip, ip, r7
 80017ca:	f8c3 c014 	str.w	ip, [r3, #20]
 80017ce:	698f      	ldr	r7, [r1, #24]
 80017d0:	f8d2 c018 	ldr.w	ip, [r2, #24]
 80017d4:	fbe0 7660 	umaal	r7, r6, r0, r0
 80017d8:	eb7c 0c07 	sbcs.w	ip, ip, r7
 80017dc:	f8c3 c018 	str.w	ip, [r3, #24]
 80017e0:	f8d3 c01c 	ldr.w	ip, [r3, #28]
 80017e4:	eb7c 0c06 	sbcs.w	ip, ip, r6
 80017e8:	f8c3 c01c 	str.w	ip, [r3, #28]
 80017ec:	2601      	movs	r6, #1
 80017ee:	ab38      	add	r3, sp, #224	@ 0xe0
 80017f0:	aa20      	add	r2, sp, #128	@ 0x80
 80017f2:	a918      	add	r1, sp, #96	@ 0x60
 80017f4:	4630      	mov	r0, r6
 80017f6:	f8d2 c01c 	ldr.w	ip, [r2, #28]
 80017fa:	69cf      	ldr	r7, [r1, #28]
 80017fc:	46be      	mov	lr, r7
 80017fe:	fbec ce60 	umaal	ip, lr, ip, r0
 8001802:	fbe7 ce00 	umlal	ip, lr, r7, r0
 8001806:	f04f 0713 	mov.w	r7, #19
 800180a:	fb0e f707 	mul.w	r7, lr, r7
 800180e:	f8d2 e000 	ldr.w	lr, [r2]
 8001812:	f8d1 8000 	ldr.w	r8, [r1]
 8001816:	fbe0 e867 	umaal	lr, r8, r0, r7
 800181a:	f8c3 e000 	str.w	lr, [r3]
 800181e:	6857      	ldr	r7, [r2, #4]
 8001820:	f8d1 e004 	ldr.w	lr, [r1, #4]
 8001824:	fbe0 e867 	umaal	lr, r8, r0, r7
 8001828:	f8c3 e004 	str.w	lr, [r3, #4]
 800182c:	6897      	ldr	r7, [r2, #8]
 800182e:	f8d1 e008 	ldr.w	lr, [r1, #8]
 8001832:	fbe0 e867 	umaal	lr, r8, r0, r7
 8001836:	f8c3 e008 	str.w	lr, [r3, #8]
 800183a:	68d7      	ldr	r7, [r2, #12]
 800183c:	f8d1 e00c 	ldr.w	lr, [r1, #12]
 8001840:	fbe0 e867 	umaal	lr, r8, r0, r7
 8001844:	f8c3 e00c 	str.w	lr, [r3, #12]
 8001848:	6917      	ldr	r7, [r2, #16]
 800184a:	f8d1 e010 	ldr.w	lr, [r1, #16]
 800184e:	fbe0 e867 	umaal	lr, r8, r0, r7
 8001852:	f8c3 e010 	str.w	lr, [r3, #16]
 8001856:	6957      	ldr	r7, [r2, #20]
 8001858:	f8d1 e014 	ldr.w	lr, [r1, #20]
 800185c:	fbe0 e867 	umaal	lr, r8, r0, r7
 8001860:	f8c3 e014 	str.w	lr, [r3, #20]
 8001864:	6997      	ldr	r7, [r2, #24]
 8001866:	f8d1 e018 	ldr.w	lr, [r1, #24]
 800186a:	fbe0 e867 	umaal	lr, r8, r0, r7
 800186e:	f8c3 e018 	str.w	lr, [r3, #24]
 8001872:	eb08 085c 	add.w	r8, r8, ip, lsr #1
 8001876:	f8c3 801c 	str.w	r8, [r3, #28]
 800187a:	a928      	add	r1, sp, #160	@ 0xa0
 800187c:	a840      	add	r0, sp, #256	@ 0x100
 800187e:	f7fe fd8b 	bl	8000398 <fe25519_square_asm>
 8001882:	a940      	add	r1, sp, #256	@ 0x100
 8001884:	aa30      	add	r2, sp, #192	@ 0xc0
 8001886:	4608      	mov	r0, r1
 8001888:	f7fe fe54 	bl	8000534 <fe25519_mul_asm>
 800188c:	a940      	add	r1, sp, #256	@ 0x100
 800188e:	aa10      	add	r2, sp, #64	@ 0x40
 8001890:	4608      	mov	r0, r1
 8001892:	f7fe fe4f 	bl	8000534 <fe25519_mul_asm>
 8001896:	aa10      	add	r2, sp, #64	@ 0x40
 8001898:	a848      	add	r0, sp, #288	@ 0x120
 800189a:	49da      	ldr	r1, [pc, #872]	@ (8001c04 <curve25519_addPoint+0x5bc>)
 800189c:	f7fe fe4a 	bl	8000534 <fe25519_mul_asm>
 80018a0:	ab38      	add	r3, sp, #224	@ 0xe0
 80018a2:	aa50      	add	r2, sp, #320	@ 0x140
 80018a4:	a920      	add	r1, sp, #128	@ 0x80
 80018a6:	4630      	mov	r0, r6
 80018a8:	f8d3 c01c 	ldr.w	ip, [r3, #28]
 80018ac:	69cf      	ldr	r7, [r1, #28]
 80018ae:	46be      	mov	lr, r7
 80018b0:	fbec ce60 	umaal	ip, lr, ip, r0
 80018b4:	fbe7 ce00 	umlal	ip, lr, r7, r0
 80018b8:	f04f 0713 	mov.w	r7, #19
 80018bc:	fb0e f707 	mul.w	r7, lr, r7
 80018c0:	f8d3 e000 	ldr.w	lr, [r3]
 80018c4:	f8d1 8000 	ldr.w	r8, [r1]
 80018c8:	fbe0 e867 	umaal	lr, r8, r0, r7
 80018cc:	f8c2 e000 	str.w	lr, [r2]
 80018d0:	685f      	ldr	r7, [r3, #4]
 80018d2:	f8d1 e004 	ldr.w	lr, [r1, #4]
 80018d6:	fbe0 e867 	umaal	lr, r8, r0, r7
 80018da:	f8c2 e004 	str.w	lr, [r2, #4]
 80018de:	689f      	ldr	r7, [r3, #8]
 80018e0:	f8d1 e008 	ldr.w	lr, [r1, #8]
 80018e4:	fbe0 e867 	umaal	lr, r8, r0, r7
 80018e8:	f8c2 e008 	str.w	lr, [r2, #8]
 80018ec:	68df      	ldr	r7, [r3, #12]
 80018ee:	f8d1 e00c 	ldr.w	lr, [r1, #12]
 80018f2:	fbe0 e867 	umaal	lr, r8, r0, r7
 80018f6:	f8c2 e00c 	str.w	lr, [r2, #12]
 80018fa:	691f      	ldr	r7, [r3, #16]
 80018fc:	f8d1 e010 	ldr.w	lr, [r1, #16]
 8001900:	fbe0 e867 	umaal	lr, r8, r0, r7
 8001904:	f8c2 e010 	str.w	lr, [r2, #16]
 8001908:	695f      	ldr	r7, [r3, #20]
 800190a:	f8d1 e014 	ldr.w	lr, [r1, #20]
 800190e:	fbe0 e867 	umaal	lr, r8, r0, r7
 8001912:	f8c2 e014 	str.w	lr, [r2, #20]
 8001916:	699f      	ldr	r7, [r3, #24]
 8001918:	f8d1 e018 	ldr.w	lr, [r1, #24]
 800191c:	fbe0 e867 	umaal	lr, r8, r0, r7
 8001920:	f8c2 e018 	str.w	lr, [r2, #24]
 8001924:	eb08 085c 	add.w	r8, r8, ip, lsr #1
 8001928:	f8c2 801c 	str.w	r8, [r2, #28]
 800192c:	ab50      	add	r3, sp, #320	@ 0x140
 800192e:	aa48      	add	r2, sp, #288	@ 0x120
 8001930:	4631      	mov	r1, r6
 8001932:	4698      	mov	r8, r3
 8001934:	f8d8 701c 	ldr.w	r7, [r8, #28]
 8001938:	69d0      	ldr	r0, [r2, #28]
 800193a:	4684      	mov	ip, r0
 800193c:	fbe7 7c61 	umaal	r7, ip, r7, r1
 8001940:	fbe0 7c01 	umlal	r7, ip, r0, r1
 8001944:	f04f 0013 	mov.w	r0, #19
 8001948:	fb0c f000 	mul.w	r0, ip, r0
 800194c:	f8d8 c000 	ldr.w	ip, [r8]
 8001950:	f8d2 e000 	ldr.w	lr, [r2]
 8001954:	fbe1 ce60 	umaal	ip, lr, r1, r0
 8001958:	f8c3 c000 	str.w	ip, [r3]
 800195c:	f8d8 0004 	ldr.w	r0, [r8, #4]
 8001960:	f8d2 c004 	ldr.w	ip, [r2, #4]
 8001964:	fbe1 ce60 	umaal	ip, lr, r1, r0
 8001968:	f8c3 c004 	str.w	ip, [r3, #4]
 800196c:	f8d8 0008 	ldr.w	r0, [r8, #8]
 8001970:	f8d2 c008 	ldr.w	ip, [r2, #8]
 8001974:	fbe1 ce60 	umaal	ip, lr, r1, r0
 8001978:	f8c3 c008 	str.w	ip, [r3, #8]
 800197c:	f8d8 000c 	ldr.w	r0, [r8, #12]
 8001980:	f8d2 c00c 	ldr.w	ip, [r2, #12]
 8001984:	fbe1 ce60 	umaal	ip, lr, r1, r0
 8001988:	f8c3 c00c 	str.w	ip, [r3, #12]
 800198c:	f8d8 0010 	ldr.w	r0, [r8, #16]
 8001990:	f8d2 c010 	ldr.w	ip, [r2, #16]
 8001994:	fbe1 ce60 	umaal	ip, lr, r1, r0
 8001998:	f8c3 c010 	str.w	ip, [r3, #16]
 800199c:	f8d8 0014 	ldr.w	r0, [r8, #20]
 80019a0:	f8d2 c014 	ldr.w	ip, [r2, #20]
 80019a4:	fbe1 ce60 	umaal	ip, lr, r1, r0
 80019a8:	f8c3 c014 	str.w	ip, [r3, #20]
 80019ac:	f8d8 0018 	ldr.w	r0, [r8, #24]
 80019b0:	f8d2 c018 	ldr.w	ip, [r2, #24]
 80019b4:	fbe1 ce60 	umaal	ip, lr, r1, r0
 80019b8:	f8c3 c018 	str.w	ip, [r3, #24]
 80019bc:	eb0e 0e57 	add.w	lr, lr, r7, lsr #1
 80019c0:	f8c3 e01c 	str.w	lr, [r3, #28]
 80019c4:	a930      	add	r1, sp, #192	@ 0xc0
 80019c6:	a858      	add	r0, sp, #352	@ 0x160
 80019c8:	f7fe fce6 	bl	8000398 <fe25519_square_asm>
 80019cc:	aa30      	add	r2, sp, #192	@ 0xc0
 80019ce:	a958      	add	r1, sp, #352	@ 0x160
 80019d0:	4610      	mov	r0, r2
 80019d2:	f7fe fdaf 	bl	8000534 <fe25519_mul_asm>
 80019d6:	a958      	add	r1, sp, #352	@ 0x160
 80019d8:	aa28      	add	r2, sp, #160	@ 0xa0
 80019da:	4608      	mov	r0, r1
 80019dc:	f7fe fdaa 	bl	8000534 <fe25519_mul_asm>
 80019e0:	a958      	add	r1, sp, #352	@ 0x160
 80019e2:	aa50      	add	r2, sp, #320	@ 0x140
 80019e4:	4608      	mov	r0, r1
 80019e6:	f7fe fda5 	bl	8000534 <fe25519_mul_asm>
 80019ea:	ab48      	add	r3, sp, #288	@ 0x120
 80019ec:	aa18      	add	r2, sp, #96	@ 0x60
 80019ee:	4631      	mov	r1, r6
 80019f0:	4698      	mov	r8, r3
 80019f2:	f8d8 701c 	ldr.w	r7, [r8, #28]
 80019f6:	69d0      	ldr	r0, [r2, #28]
 80019f8:	4684      	mov	ip, r0
 80019fa:	fbe7 7c61 	umaal	r7, ip, r7, r1
 80019fe:	fbe0 7c01 	umlal	r7, ip, r0, r1
 8001a02:	f04f 0013 	mov.w	r0, #19
 8001a06:	fb0c f000 	mul.w	r0, ip, r0
 8001a0a:	f8d8 c000 	ldr.w	ip, [r8]
 8001a0e:	f8d2 e000 	ldr.w	lr, [r2]
 8001a12:	fbe1 ce60 	umaal	ip, lr, r1, r0
 8001a16:	f8c3 c000 	str.w	ip, [r3]
 8001a1a:	f8d8 0004 	ldr.w	r0, [r8, #4]
 8001a1e:	f8d2 c004 	ldr.w	ip, [r2, #4]
 8001a22:	fbe1 ce60 	umaal	ip, lr, r1, r0
 8001a26:	f8c3 c004 	str.w	ip, [r3, #4]
 8001a2a:	f8d8 0008 	ldr.w	r0, [r8, #8]
 8001a2e:	f8d2 c008 	ldr.w	ip, [r2, #8]
 8001a32:	fbe1 ce60 	umaal	ip, lr, r1, r0
 8001a36:	f8c3 c008 	str.w	ip, [r3, #8]
 8001a3a:	f8d8 000c 	ldr.w	r0, [r8, #12]
 8001a3e:	f8d2 c00c 	ldr.w	ip, [r2, #12]
 8001a42:	fbe1 ce60 	umaal	ip, lr, r1, r0
 8001a46:	f8c3 c00c 	str.w	ip, [r3, #12]
 8001a4a:	f8d8 0010 	ldr.w	r0, [r8, #16]
 8001a4e:	f8d2 c010 	ldr.w	ip, [r2, #16]
 8001a52:	fbe1 ce60 	umaal	ip, lr, r1, r0
 8001a56:	f8c3 c010 	str.w	ip, [r3, #16]
 8001a5a:	f8d8 0014 	ldr.w	r0, [r8, #20]
 8001a5e:	f8d2 c014 	ldr.w	ip, [r2, #20]
 8001a62:	fbe1 ce60 	umaal	ip, lr, r1, r0
 8001a66:	f8c3 c014 	str.w	ip, [r3, #20]
 8001a6a:	f8d8 0018 	ldr.w	r0, [r8, #24]
 8001a6e:	f8d2 c018 	ldr.w	ip, [r2, #24]
 8001a72:	fbe1 ce60 	umaal	ip, lr, r1, r0
 8001a76:	f8c3 c018 	str.w	ip, [r3, #24]
 8001a7a:	eb0e 0e57 	add.w	lr, lr, r7, lsr #1
 8001a7e:	f8c3 e01c 	str.w	lr, [r3, #28]
 8001a82:	ab48      	add	r3, sp, #288	@ 0x120
 8001a84:	aa20      	add	r2, sp, #128	@ 0x80
 8001a86:	4631      	mov	r1, r6
 8001a88:	461f      	mov	r7, r3
 8001a8a:	69fe      	ldr	r6, [r7, #28]
 8001a8c:	69d0      	ldr	r0, [r2, #28]
 8001a8e:	4684      	mov	ip, r0
 8001a90:	fbe6 6c61 	umaal	r6, ip, r6, r1
 8001a94:	fbe0 6c01 	umlal	r6, ip, r0, r1
 8001a98:	f04f 0013 	mov.w	r0, #19
 8001a9c:	fb0c f000 	mul.w	r0, ip, r0
 8001aa0:	f8d7 c000 	ldr.w	ip, [r7]
 8001aa4:	f8d2 e000 	ldr.w	lr, [r2]
 8001aa8:	fbe1 ce60 	umaal	ip, lr, r1, r0
 8001aac:	f8c3 c000 	str.w	ip, [r3]
 8001ab0:	6878      	ldr	r0, [r7, #4]
 8001ab2:	f8d2 c004 	ldr.w	ip, [r2, #4]
 8001ab6:	fbe1 ce60 	umaal	ip, lr, r1, r0
 8001aba:	f8c3 c004 	str.w	ip, [r3, #4]
 8001abe:	68b8      	ldr	r0, [r7, #8]
 8001ac0:	f8d2 c008 	ldr.w	ip, [r2, #8]
 8001ac4:	fbe1 ce60 	umaal	ip, lr, r1, r0
 8001ac8:	f8c3 c008 	str.w	ip, [r3, #8]
 8001acc:	68f8      	ldr	r0, [r7, #12]
 8001ace:	f8d2 c00c 	ldr.w	ip, [r2, #12]
 8001ad2:	fbe1 ce60 	umaal	ip, lr, r1, r0
 8001ad6:	f8c3 c00c 	str.w	ip, [r3, #12]
 8001ada:	6938      	ldr	r0, [r7, #16]
 8001adc:	f8d2 c010 	ldr.w	ip, [r2, #16]
 8001ae0:	fbe1 ce60 	umaal	ip, lr, r1, r0
 8001ae4:	f8c3 c010 	str.w	ip, [r3, #16]
 8001ae8:	6978      	ldr	r0, [r7, #20]
 8001aea:	f8d2 c014 	ldr.w	ip, [r2, #20]
 8001aee:	fbe1 ce60 	umaal	ip, lr, r1, r0
 8001af2:	f8c3 c014 	str.w	ip, [r3, #20]
 8001af6:	69b8      	ldr	r0, [r7, #24]
 8001af8:	f8d2 c018 	ldr.w	ip, [r2, #24]
 8001afc:	fbe1 ce60 	umaal	ip, lr, r1, r0
 8001b00:	f8c3 c018 	str.w	ip, [r3, #24]
 8001b04:	eb0e 0e56 	add.w	lr, lr, r6, lsr #1
 8001b08:	f8c3 e01c 	str.w	lr, [r3, #28]
 8001b0c:	a948      	add	r1, sp, #288	@ 0x120
 8001b0e:	aa30      	add	r2, sp, #192	@ 0xc0
 8001b10:	4608      	mov	r0, r1
 8001b12:	f7fe fd0f 	bl	8000534 <fe25519_mul_asm>
 8001b16:	6822      	ldr	r2, [r4, #0]
 8001b18:	ab48      	add	r3, sp, #288	@ 0x120
 8001b1a:	a940      	add	r1, sp, #256	@ 0x100
 8001b1c:	4628      	mov	r0, r5
 8001b1e:	69ce      	ldr	r6, [r1, #28]
 8001b20:	f8d3 c01c 	ldr.w	ip, [r3, #28]
 8001b24:	ebb6 060c 	subs.w	r6, r6, ip
 8001b28:	eb7c 0c0c 	sbcs.w	ip, ip, ip
 8001b2c:	eb16 0e06 	adds.w	lr, r6, r6
 8001b30:	eb5c 0c0c 	adcs.w	ip, ip, ip
 8001b34:	f046 4600 	orr.w	r6, r6, #2147483648	@ 0x80000000
 8001b38:	61d6      	str	r6, [r2, #28]
 8001b3a:	f1ac 0601 	sub.w	r6, ip, #1
 8001b3e:	f06f 0c12 	mvn.w	ip, #18
 8001b42:	fb06 f60c 	mul.w	r6, r6, ip
 8001b46:	f8d3 c000 	ldr.w	ip, [r3]
 8001b4a:	f8d1 e000 	ldr.w	lr, [r1]
 8001b4e:	fbe0 c660 	umaal	ip, r6, r0, r0
 8001b52:	ebbe 0e0c 	subs.w	lr, lr, ip
 8001b56:	f8c2 e000 	str.w	lr, [r2]
 8001b5a:	f8d3 c004 	ldr.w	ip, [r3, #4]
 8001b5e:	f8d1 e004 	ldr.w	lr, [r1, #4]
 8001b62:	fbe0 c660 	umaal	ip, r6, r0, r0
 8001b66:	eb7e 0e0c 	sbcs.w	lr, lr, ip
 8001b6a:	f8c2 e004 	str.w	lr, [r2, #4]
 8001b6e:	f8d3 c008 	ldr.w	ip, [r3, #8]
 8001b72:	f8d1 e008 	ldr.w	lr, [r1, #8]
 8001b76:	fbe0 c660 	umaal	ip, r6, r0, r0
 8001b7a:	eb7e 0e0c 	sbcs.w	lr, lr, ip
 8001b7e:	f8c2 e008 	str.w	lr, [r2, #8]
 8001b82:	f8d3 c00c 	ldr.w	ip, [r3, #12]
 8001b86:	f8d1 e00c 	ldr.w	lr, [r1, #12]
 8001b8a:	fbe0 c660 	umaal	ip, r6, r0, r0
 8001b8e:	eb7e 0e0c 	sbcs.w	lr, lr, ip
 8001b92:	f8c2 e00c 	str.w	lr, [r2, #12]
 8001b96:	f8d3 c010 	ldr.w	ip, [r3, #16]
 8001b9a:	f8d1 e010 	ldr.w	lr, [r1, #16]
 8001b9e:	fbe0 c660 	umaal	ip, r6, r0, r0
 8001ba2:	eb7e 0e0c 	sbcs.w	lr, lr, ip
 8001ba6:	f8c2 e010 	str.w	lr, [r2, #16]
 8001baa:	f8d3 c014 	ldr.w	ip, [r3, #20]
 8001bae:	f8d1 e014 	ldr.w	lr, [r1, #20]
 8001bb2:	fbe0 c660 	umaal	ip, r6, r0, r0
 8001bb6:	eb7e 0e0c 	sbcs.w	lr, lr, ip
 8001bba:	f8c2 e014 	str.w	lr, [r2, #20]
 8001bbe:	f8d3 c018 	ldr.w	ip, [r3, #24]
 8001bc2:	f8d1 e018 	ldr.w	lr, [r1, #24]
 8001bc6:	fbe0 c660 	umaal	ip, r6, r0, r0
 8001bca:	eb7e 0e0c 	sbcs.w	lr, lr, ip
 8001bce:	f8c2 e018 	str.w	lr, [r2, #24]
 8001bd2:	f8d2 e01c 	ldr.w	lr, [r2, #28]
 8001bd6:	eb7e 0e06 	sbcs.w	lr, lr, r6
 8001bda:	f8c2 e01c 	str.w	lr, [r2, #28]
 8001bde:	a928      	add	r1, sp, #160	@ 0xa0
 8001be0:	a840      	add	r0, sp, #256	@ 0x100
 8001be2:	f7fe fbd9 	bl	8000398 <fe25519_square_asm>
 8001be6:	a940      	add	r1, sp, #256	@ 0x100
 8001be8:	aa28      	add	r2, sp, #160	@ 0xa0
 8001bea:	4608      	mov	r0, r1
 8001bec:	f7fe fca2 	bl	8000534 <fe25519_mul_asm>
 8001bf0:	a940      	add	r1, sp, #256	@ 0x100
 8001bf2:	aa10      	add	r2, sp, #64	@ 0x40
 8001bf4:	4608      	mov	r0, r1
 8001bf6:	f7fe fc9d 	bl	8000534 <fe25519_mul_asm>
 8001bfa:	6862      	ldr	r2, [r4, #4]
 8001bfc:	ab58      	add	r3, sp, #352	@ 0x160
 8001bfe:	a940      	add	r1, sp, #256	@ 0x100
 8001c00:	4628      	mov	r0, r5
 8001c02:	e001      	b.n	8001c08 <curve25519_addPoint+0x5c0>
 8001c04:	08003f40 	.word	0x08003f40
 8001c08:	69de      	ldr	r6, [r3, #28]
 8001c0a:	f8d1 c01c 	ldr.w	ip, [r1, #28]
 8001c0e:	ebb6 060c 	subs.w	r6, r6, ip
 8001c12:	eb7c 0c0c 	sbcs.w	ip, ip, ip
 8001c16:	eb16 0e06 	adds.w	lr, r6, r6
 8001c1a:	eb5c 0c0c 	adcs.w	ip, ip, ip
 8001c1e:	f046 4600 	orr.w	r6, r6, #2147483648	@ 0x80000000
 8001c22:	61d6      	str	r6, [r2, #28]
 8001c24:	f1ac 0601 	sub.w	r6, ip, #1
 8001c28:	f06f 0c12 	mvn.w	ip, #18
 8001c2c:	fb06 f60c 	mul.w	r6, r6, ip
 8001c30:	f8d1 c000 	ldr.w	ip, [r1]
 8001c34:	f8d3 e000 	ldr.w	lr, [r3]
 8001c38:	fbe0 c660 	umaal	ip, r6, r0, r0
 8001c3c:	ebbe 0e0c 	subs.w	lr, lr, ip
 8001c40:	f8c2 e000 	str.w	lr, [r2]
 8001c44:	f8d1 c004 	ldr.w	ip, [r1, #4]
 8001c48:	f8d3 e004 	ldr.w	lr, [r3, #4]
 8001c4c:	fbe0 c660 	umaal	ip, r6, r0, r0
 8001c50:	eb7e 0e0c 	sbcs.w	lr, lr, ip
 8001c54:	f8c2 e004 	str.w	lr, [r2, #4]
 8001c58:	f8d1 c008 	ldr.w	ip, [r1, #8]
 8001c5c:	f8d3 e008 	ldr.w	lr, [r3, #8]
 8001c60:	fbe0 c660 	umaal	ip, r6, r0, r0
 8001c64:	eb7e 0e0c 	sbcs.w	lr, lr, ip
 8001c68:	f8c2 e008 	str.w	lr, [r2, #8]
 8001c6c:	f8d1 c00c 	ldr.w	ip, [r1, #12]
 8001c70:	f8d3 e00c 	ldr.w	lr, [r3, #12]
 8001c74:	fbe0 c660 	umaal	ip, r6, r0, r0
 8001c78:	eb7e 0e0c 	sbcs.w	lr, lr, ip
 8001c7c:	f8c2 e00c 	str.w	lr, [r2, #12]
 8001c80:	f8d1 c010 	ldr.w	ip, [r1, #16]
 8001c84:	f8d3 e010 	ldr.w	lr, [r3, #16]
 8001c88:	fbe0 c660 	umaal	ip, r6, r0, r0
 8001c8c:	eb7e 0e0c 	sbcs.w	lr, lr, ip
 8001c90:	f8c2 e010 	str.w	lr, [r2, #16]
 8001c94:	f8d1 c014 	ldr.w	ip, [r1, #20]
 8001c98:	f8d3 e014 	ldr.w	lr, [r3, #20]
 8001c9c:	fbe0 c660 	umaal	ip, r6, r0, r0
 8001ca0:	eb7e 0e0c 	sbcs.w	lr, lr, ip
 8001ca4:	f8c2 e014 	str.w	lr, [r2, #20]
 8001ca8:	f8d1 c018 	ldr.w	ip, [r1, #24]
 8001cac:	f8d3 e018 	ldr.w	lr, [r3, #24]
 8001cb0:	fbe0 c660 	umaal	ip, r6, r0, r0
 8001cb4:	eb7e 0e0c 	sbcs.w	lr, lr, ip
 8001cb8:	f8c2 e018 	str.w	lr, [r2, #24]
 8001cbc:	f8d2 e01c 	ldr.w	lr, [r2, #28]
 8001cc0:	eb7e 0e06 	sbcs.w	lr, lr, r6
 8001cc4:	f8c2 e01c 	str.w	lr, [r2, #28]
 8001cc8:	aa30      	add	r2, sp, #192	@ 0xc0
 8001cca:	a908      	add	r1, sp, #32
 8001ccc:	a840      	add	r0, sp, #256	@ 0x100
 8001cce:	f7fe fc31 	bl	8000534 <fe25519_mul_asm>
 8001cd2:	6862      	ldr	r2, [r4, #4]
 8001cd4:	ab40      	add	r3, sp, #256	@ 0x100
 8001cd6:	4617      	mov	r7, r2
 8001cd8:	69f9      	ldr	r1, [r7, #28]
 8001cda:	69d8      	ldr	r0, [r3, #28]
 8001cdc:	1a09      	subs	r1, r1, r0
 8001cde:	4180      	sbcs	r0, r0
 8001ce0:	184e      	adds	r6, r1, r1
 8001ce2:	4140      	adcs	r0, r0
 8001ce4:	f041 4100 	orr.w	r1, r1, #2147483648	@ 0x80000000
 8001ce8:	61d1      	str	r1, [r2, #28]
 8001cea:	f1a0 0101 	sub.w	r1, r0, #1
 8001cee:	f06f 0012 	mvn.w	r0, #18
 8001cf2:	fb01 f100 	mul.w	r1, r1, r0
 8001cf6:	6818      	ldr	r0, [r3, #0]
 8001cf8:	683e      	ldr	r6, [r7, #0]
 8001cfa:	fbe5 0165 	umaal	r0, r1, r5, r5
 8001cfe:	1a36      	subs	r6, r6, r0
 8001d00:	6016      	str	r6, [r2, #0]
 8001d02:	6858      	ldr	r0, [r3, #4]
 8001d04:	687e      	ldr	r6, [r7, #4]
 8001d06:	fbe5 0165 	umaal	r0, r1, r5, r5
 8001d0a:	4186      	sbcs	r6, r0
 8001d0c:	6056      	str	r6, [r2, #4]
 8001d0e:	6898      	ldr	r0, [r3, #8]
 8001d10:	68be      	ldr	r6, [r7, #8]
 8001d12:	fbe5 0165 	umaal	r0, r1, r5, r5
 8001d16:	4186      	sbcs	r6, r0
 8001d18:	6096      	str	r6, [r2, #8]
 8001d1a:	68d8      	ldr	r0, [r3, #12]
 8001d1c:	68fe      	ldr	r6, [r7, #12]
 8001d1e:	fbe5 0165 	umaal	r0, r1, r5, r5
 8001d22:	4186      	sbcs	r6, r0
 8001d24:	60d6      	str	r6, [r2, #12]
 8001d26:	6918      	ldr	r0, [r3, #16]
 8001d28:	693e      	ldr	r6, [r7, #16]
 8001d2a:	fbe5 0165 	umaal	r0, r1, r5, r5
 8001d2e:	4186      	sbcs	r6, r0
 8001d30:	6116      	str	r6, [r2, #16]
 8001d32:	6958      	ldr	r0, [r3, #20]
 8001d34:	697e      	ldr	r6, [r7, #20]
 8001d36:	fbe5 0165 	umaal	r0, r1, r5, r5
 8001d3a:	4186      	sbcs	r6, r0
 8001d3c:	6156      	str	r6, [r2, #20]
 8001d3e:	6998      	ldr	r0, [r3, #24]
 8001d40:	69be      	ldr	r6, [r7, #24]
 8001d42:	fbe5 0165 	umaal	r0, r1, r5, r5
 8001d46:	4186      	sbcs	r6, r0
 8001d48:	6196      	str	r6, [r2, #24]
 8001d4a:	69d6      	ldr	r6, [r2, #28]
 8001d4c:	418e      	sbcs	r6, r1
 8001d4e:	61d6      	str	r6, [r2, #28]
 8001d50:	68a0      	ldr	r0, [r4, #8]
 8001d52:	aa30      	add	r2, sp, #192	@ 0xc0
 8001d54:	a910      	add	r1, sp, #64	@ 0x40
 8001d56:	f7fe fbed 	bl	8000534 <fe25519_mul_asm>
 8001d5a:	b060      	add	sp, #384	@ 0x180
 8001d5c:	e8bd 81f0 	ldmia.w	sp!, {r4, r5, r6, r7, r8, pc}

08001d60 <curve25519_ladderstep>:
 8001d60:	e92d 4ff0 	stmdb	sp!, {r4, r5, r6, r7, r8, r9, sl, fp, lr}
 8001d64:	f100 0520 	add.w	r5, r0, #32
 8001d68:	b091      	sub	sp, #68	@ 0x44
 8001d6a:	f100 0640 	add.w	r6, r0, #64	@ 0x40
 8001d6e:	4607      	mov	r7, r0
 8001d70:	f100 0960 	add.w	r9, r0, #96	@ 0x60
 8001d74:	f100 0880 	add.w	r8, r0, #128	@ 0x80
 8001d78:	466b      	mov	r3, sp
 8001d7a:	462a      	mov	r2, r5
 8001d7c:	4631      	mov	r1, r6
 8001d7e:	2001      	movs	r0, #1
 8001d80:	f8d2 c01c 	ldr.w	ip, [r2, #28]
 8001d84:	69cc      	ldr	r4, [r1, #28]
 8001d86:	46a6      	mov	lr, r4
 8001d88:	fbec ce60 	umaal	ip, lr, ip, r0
 8001d8c:	fbe4 ce00 	umlal	ip, lr, r4, r0
 8001d90:	f04f 0413 	mov.w	r4, #19
 8001d94:	fb0e f404 	mul.w	r4, lr, r4
 8001d98:	f8d2 e000 	ldr.w	lr, [r2]
 8001d9c:	f8d1 a000 	ldr.w	sl, [r1]
 8001da0:	fbe0 ea64 	umaal	lr, sl, r0, r4
 8001da4:	f8c3 e000 	str.w	lr, [r3]
 8001da8:	6854      	ldr	r4, [r2, #4]
 8001daa:	f8d1 e004 	ldr.w	lr, [r1, #4]
 8001dae:	fbe0 ea64 	umaal	lr, sl, r0, r4
 8001db2:	f8c3 e004 	str.w	lr, [r3, #4]
 8001db6:	6894      	ldr	r4, [r2, #8]
 8001db8:	f8d1 e008 	ldr.w	lr, [r1, #8]
 8001dbc:	fbe0 ea64 	umaal	lr, sl, r0, r4
 8001dc0:	f8c3 e008 	str.w	lr, [r3, #8]
 8001dc4:	68d4      	ldr	r4, [r2, #12]
 8001dc6:	f8d1 e00c 	ldr.w	lr, [r1, #12]
 8001dca:	fbe0 ea64 	umaal	lr, sl, r0, r4
 8001dce:	f8c3 e00c 	str.w	lr, [r3, #12]
 8001dd2:	6914      	ldr	r4, [r2, #16]
 8001dd4:	f8d1 e010 	ldr.w	lr, [r1, #16]
 8001dd8:	fbe0 ea64 	umaal	lr, sl, r0, r4
 8001ddc:	f8c3 e010 	str.w	lr, [r3, #16]
 8001de0:	6954      	ldr	r4, [r2, #20]
 8001de2:	f8d1 e014 	ldr.w	lr, [r1, #20]
 8001de6:	fbe0 ea64 	umaal	lr, sl, r0, r4
 8001dea:	f8c3 e014 	str.w	lr, [r3, #20]
 8001dee:	6994      	ldr	r4, [r2, #24]
 8001df0:	f8d1 e018 	ldr.w	lr, [r1, #24]
 8001df4:	fbe0 ea64 	umaal	lr, sl, r0, r4
 8001df8:	f8c3 e018 	str.w	lr, [r3, #24]
 8001dfc:	eb0a 0a5c 	add.w	sl, sl, ip, lsr #1
 8001e00:	f8c3 a01c 	str.w	sl, [r3, #28]
 8001e04:	2400      	movs	r4, #0
 8001e06:	ab08      	add	r3, sp, #32
 8001e08:	462a      	mov	r2, r5
 8001e0a:	4631      	mov	r1, r6
 8001e0c:	4620      	mov	r0, r4
 8001e0e:	f8d2 c01c 	ldr.w	ip, [r2, #28]
 8001e12:	f8d1 e01c 	ldr.w	lr, [r1, #28]
 8001e16:	ebbc 0c0e 	subs.w	ip, ip, lr
 8001e1a:	eb7e 0e0e 	sbcs.w	lr, lr, lr
 8001e1e:	eb1c 0a0c 	adds.w	sl, ip, ip
 8001e22:	eb5e 0e0e 	adcs.w	lr, lr, lr
 8001e26:	f04c 4c00 	orr.w	ip, ip, #2147483648	@ 0x80000000
 8001e2a:	f8c3 c01c 	str.w	ip, [r3, #28]
 8001e2e:	f1ae 0c01 	sub.w	ip, lr, #1
 8001e32:	f06f 0e12 	mvn.w	lr, #18
 8001e36:	fb0c fc0e 	mul.w	ip, ip, lr
 8001e3a:	f8d1 e000 	ldr.w	lr, [r1]
 8001e3e:	f8d2 a000 	ldr.w	sl, [r2]
 8001e42:	fbe0 ec60 	umaal	lr, ip, r0, r0
 8001e46:	ebba 0a0e 	subs.w	sl, sl, lr
 8001e4a:	f8c3 a000 	str.w	sl, [r3]
 8001e4e:	f8d1 e004 	ldr.w	lr, [r1, #4]
 8001e52:	f8d2 a004 	ldr.w	sl, [r2, #4]
 8001e56:	fbe0 ec60 	umaal	lr, ip, r0, r0
 8001e5a:	eb7a 0a0e 	sbcs.w	sl, sl, lr
 8001e5e:	f8c3 a004 	str.w	sl, [r3, #4]
 8001e62:	f8d1 e008 	ldr.w	lr, [r1, #8]
 8001e66:	f8d2 a008 	ldr.w	sl, [r2, #8]
 8001e6a:	fbe0 ec60 	umaal	lr, ip, r0, r0
 8001e6e:	eb7a 0a0e 	sbcs.w	sl, sl, lr
 8001e72:	f8c3 a008 	str.w	sl, [r3, #8]
 8001e76:	f8d1 e00c 	ldr.w	lr, [r1, #12]
 8001e7a:	f8d2 a00c 	ldr.w	sl, [r2, #12]
 8001e7e:	fbe0 ec60 	umaal	lr, ip, r0, r0
 8001e82:	eb7a 0a0e 	sbcs.w	sl, sl, lr
 8001e86:	f8c3 a00c 	str.w	sl, [r3, #12]
 8001e8a:	f8d1 e010 	ldr.w	lr, [r1, #16]
 8001e8e:	f8d2 a010 	ldr.w	sl, [r2, #16]
 8001e92:	fbe0 ec60 	umaal	lr, ip, r0, r0
 8001e96:	eb7a 0a0e 	sbcs.w	sl, sl, lr
 8001e9a:	f8c3 a010 	str.w	sl, [r3, #16]
 8001e9e:	f8d1 e014 	ldr.w	lr, [r1, #20]
 8001ea2:	f8d2 a014 	ldr.w	sl, [r2, #20]
 8001ea6:	fbe0 ec60 	umaal	lr, ip, r0, r0
 8001eaa:	eb7a 0a0e 	sbcs.w	sl, sl, lr
 8001eae:	f8c3 a014 	str.w	sl, [r3, #20]
 8001eb2:	f8d1 e018 	ldr.w	lr, [r1, #24]
 8001eb6:	f8d2 a018 	ldr.w	sl, [r2, #24]
 8001eba:	fbe0 ec60 	umaal	lr, ip, r0, r0
 8001ebe:	eb7a 0a0e 	sbcs.w	sl, sl, lr
 8001ec2:	f8c3 a018 	str.w	sl, [r3, #24]
 8001ec6:	f8d3 a01c 	ldr.w	sl, [r3, #28]
 8001eca:	eb7a 0a0c 	sbcs.w	sl, sl, ip
 8001ece:	f8c3 a01c 	str.w	sl, [r3, #28]
 8001ed2:	2201      	movs	r2, #1
 8001ed4:	462b      	mov	r3, r5
 8001ed6:	4649      	mov	r1, r9
 8001ed8:	46c4      	mov	ip, r8
 8001eda:	f8d1 e01c 	ldr.w	lr, [r1, #28]
 8001ede:	f8dc 001c 	ldr.w	r0, [ip, #28]
 8001ee2:	4682      	mov	sl, r0
 8001ee4:	fbee ea62 	umaal	lr, sl, lr, r2
 8001ee8:	fbe0 ea02 	umlal	lr, sl, r0, r2
 8001eec:	f04f 0013 	mov.w	r0, #19
 8001ef0:	fb0a f000 	mul.w	r0, sl, r0
 8001ef4:	f8d1 a000 	ldr.w	sl, [r1]
 8001ef8:	f8dc b000 	ldr.w	fp, [ip]
 8001efc:	fbe2 ab60 	umaal	sl, fp, r2, r0
 8001f00:	f8c3 a000 	str.w	sl, [r3]
 8001f04:	6848      	ldr	r0, [r1, #4]
 8001f06:	f8dc a004 	ldr.w	sl, [ip, #4]
 8001f0a:	fbe2 ab60 	umaal	sl, fp, r2, r0
 8001f0e:	f8c3 a004 	str.w	sl, [r3, #4]
 8001f12:	6888      	ldr	r0, [r1, #8]
 8001f14:	f8dc a008 	ldr.w	sl, [ip, #8]
 8001f18:	fbe2 ab60 	umaal	sl, fp, r2, r0
 8001f1c:	f8c3 a008 	str.w	sl, [r3, #8]
 8001f20:	68c8      	ldr	r0, [r1, #12]
 8001f22:	f8dc a00c 	ldr.w	sl, [ip, #12]
 8001f26:	fbe2 ab60 	umaal	sl, fp, r2, r0
 8001f2a:	f8c3 a00c 	str.w	sl, [r3, #12]
 8001f2e:	6908      	ldr	r0, [r1, #16]
 8001f30:	f8dc a010 	ldr.w	sl, [ip, #16]
 8001f34:	fbe2 ab60 	umaal	sl, fp, r2, r0
 8001f38:	f8c3 a010 	str.w	sl, [r3, #16]
 8001f3c:	6948      	ldr	r0, [r1, #20]
 8001f3e:	f8dc a014 	ldr.w	sl, [ip, #20]
 8001f42:	fbe2 ab60 	umaal	sl, fp, r2, r0
 8001f46:	f8c3 a014 	str.w	sl, [r3, #20]
 8001f4a:	6988      	ldr	r0, [r1, #24]
 8001f4c:	f8dc a018 	ldr.w	sl, [ip, #24]
 8001f50:	fbe2 ab60 	umaal	sl, fp, r2, r0
 8001f54:	f8c3 a018 	str.w	sl, [r3, #24]
 8001f58:	eb0b 0b5e 	add.w	fp, fp, lr, lsr #1
 8001f5c:	f8c3 b01c 	str.w	fp, [r3, #28]
 8001f60:	4633      	mov	r3, r6
 8001f62:	464a      	mov	r2, r9
 8001f64:	4641      	mov	r1, r8
 8001f66:	4620      	mov	r0, r4
 8001f68:	f8d2 c01c 	ldr.w	ip, [r2, #28]
 8001f6c:	f8d1 e01c 	ldr.w	lr, [r1, #28]
 8001f70:	ebbc 0c0e 	subs.w	ip, ip, lr
 8001f74:	eb7e 0e0e 	sbcs.w	lr, lr, lr
 8001f78:	eb1c 0a0c 	adds.w	sl, ip, ip
 8001f7c:	eb5e 0e0e 	adcs.w	lr, lr, lr
 8001f80:	f04c 4c00 	orr.w	ip, ip, #2147483648	@ 0x80000000
 8001f84:	f8c3 c01c 	str.w	ip, [r3, #28]
 8001f88:	f1ae 0c01 	sub.w	ip, lr, #1
 8001f8c:	f06f 0e12 	mvn.w	lr, #18
 8001f90:	fb0c fc0e 	mul.w	ip, ip, lr
 8001f94:	f8d1 e000 	ldr.w	lr, [r1]
 8001f98:	f8d2 a000 	ldr.w	sl, [r2]
 8001f9c:	fbe0 ec60 	umaal	lr, ip, r0, r0
 8001fa0:	ebba 0a0e 	subs.w	sl, sl, lr
 8001fa4:	f8c3 a000 	str.w	sl, [r3]
 8001fa8:	f8d1 e004 	ldr.w	lr, [r1, #4]
 8001fac:	f8d2 a004 	ldr.w	sl, [r2, #4]
 8001fb0:	fbe0 ec60 	umaal	lr, ip, r0, r0
 8001fb4:	eb7a 0a0e 	sbcs.w	sl, sl, lr
 8001fb8:	f8c3 a004 	str.w	sl, [r3, #4]
 8001fbc:	f8d1 e008 	ldr.w	lr, [r1, #8]
 8001fc0:	f8d2 a008 	ldr.w	sl, [r2, #8]
 8001fc4:	fbe0 ec60 	umaal	lr, ip, r0, r0
 8001fc8:	eb7a 0a0e 	sbcs.w	sl, sl, lr
 8001fcc:	f8c3 a008 	str.w	sl, [r3, #8]
 8001fd0:	f8d1 e00c 	ldr.w	lr, [r1, #12]
 8001fd4:	f8d2 a00c 	ldr.w	sl, [r2, #12]
 8001fd8:	fbe0 ec60 	umaal	lr, ip, r0, r0
 8001fdc:	eb7a 0a0e 	sbcs.w	sl, sl, lr
 8001fe0:	f8c3 a00c 	str.w	sl, [r3, #12]
 8001fe4:	f8d1 e010 	ldr.w	lr, [r1, #16]
 8001fe8:	f8d2 a010 	ldr.w	sl, [r2, #16]
 8001fec:	fbe0 ec60 	umaal	lr, ip, r0, r0
 8001ff0:	eb7a 0a0e 	sbcs.w	sl, sl, lr
 8001ff4:	f8c3 a010 	str.w	sl, [r3, #16]
 8001ff8:	f8d1 e014 	ldr.w	lr, [r1, #20]
 8001ffc:	f8d2 a014 	ldr.w	sl, [r2, #20]
 8002000:	fbe0 ec60 	umaal	lr, ip, r0, r0
 8002004:	eb7a 0a0e 	sbcs.w	sl, sl, lr
 8002008:	f8c3 a014 	str.w	sl, [r3, #20]
 800200c:	f8d1 e018 	ldr.w	lr, [r1, #24]
 8002010:	f8d2 a018 	ldr.w	sl, [r2, #24]
 8002014:	fbe0 ec60 	umaal	lr, ip, r0, r0
 8002018:	eb7a 0a0e 	sbcs.w	sl, sl, lr
 800201c:	f8c3 a018 	str.w	sl, [r3, #24]
 8002020:	f8d3 a01c 	ldr.w	sl, [r3, #28]
 8002024:	eb7a 0a0c 	sbcs.w	sl, sl, ip
 8002028:	f8c3 a01c 	str.w	sl, [r3, #28]
 800202c:	466a      	mov	r2, sp
 800202e:	4631      	mov	r1, r6
 8002030:	4648      	mov	r0, r9
 8002032:	f7fe fa7f 	bl	8000534 <fe25519_mul_asm>
 8002036:	aa08      	add	r2, sp, #32
 8002038:	4629      	mov	r1, r5
 800203a:	4630      	mov	r0, r6
 800203c:	f7fe fa7a 	bl	8000534 <fe25519_mul_asm>
 8002040:	2301      	movs	r3, #1
 8002042:	462a      	mov	r2, r5
 8002044:	4631      	mov	r1, r6
 8002046:	4648      	mov	r0, r9
 8002048:	f8d1 e01c 	ldr.w	lr, [r1, #28]
 800204c:	f8d0 c01c 	ldr.w	ip, [r0, #28]
 8002050:	46e2      	mov	sl, ip
 8002052:	fbee ea63 	umaal	lr, sl, lr, r3
 8002056:	fbec ea03 	umlal	lr, sl, ip, r3
 800205a:	f04f 0c13 	mov.w	ip, #19
 800205e:	fb0a fc0c 	mul.w	ip, sl, ip
 8002062:	f8d1 a000 	ldr.w	sl, [r1]
 8002066:	f8d0 b000 	ldr.w	fp, [r0]
 800206a:	fbe3 ab6c 	umaal	sl, fp, r3, ip
 800206e:	f8c2 a000 	str.w	sl, [r2]
 8002072:	f8d1 c004 	ldr.w	ip, [r1, #4]
 8002076:	f8d0 a004 	ldr.w	sl, [r0, #4]
 800207a:	fbe3 ab6c 	umaal	sl, fp, r3, ip
 800207e:	f8c2 a004 	str.w	sl, [r2, #4]
 8002082:	f8d1 c008 	ldr.w	ip, [r1, #8]
 8002086:	f8d0 a008 	ldr.w	sl, [r0, #8]
 800208a:	fbe3 ab6c 	umaal	sl, fp, r3, ip
 800208e:	f8c2 a008 	str.w	sl, [r2, #8]
 8002092:	f8d1 c00c 	ldr.w	ip, [r1, #12]
 8002096:	f8d0 a00c 	ldr.w	sl, [r0, #12]
 800209a:	fbe3 ab6c 	umaal	sl, fp, r3, ip
 800209e:	f8c2 a00c 	str.w	sl, [r2, #12]
 80020a2:	f8d1 c010 	ldr.w	ip, [r1, #16]
 80020a6:	f8d0 a010 	ldr.w	sl, [r0, #16]
 80020aa:	fbe3 ab6c 	umaal	sl, fp, r3, ip
 80020ae:	f8c2 a010 	str.w	sl, [r2, #16]
 80020b2:	f8d1 c014 	ldr.w	ip, [r1, #20]
 80020b6:	f8d0 a014 	ldr.w	sl, [r0, #20]
 80020ba:	fbe3 ab6c 	umaal	sl, fp, r3, ip
 80020be:	f8c2 a014 	str.w	sl, [r2, #20]
 80020c2:	f8d1 c018 	ldr.w	ip, [r1, #24]
 80020c6:	f8d0 a018 	ldr.w	sl, [r0, #24]
 80020ca:	fbe3 ab6c 	umaal	sl, fp, r3, ip
 80020ce:	f8c2 a018 	str.w	sl, [r2, #24]
 80020d2:	eb0b 0b5e 	add.w	fp, fp, lr, lsr #1
 80020d6:	f8c2 b01c 	str.w	fp, [r2, #28]
 80020da:	4643      	mov	r3, r8
 80020dc:	464a      	mov	r2, r9
 80020de:	4631      	mov	r1, r6
 80020e0:	4620      	mov	r0, r4
 80020e2:	f8d2 c01c 	ldr.w	ip, [r2, #28]
 80020e6:	f8d1 e01c 	ldr.w	lr, [r1, #28]
 80020ea:	ebbc 0c0e 	subs.w	ip, ip, lr
 80020ee:	eb7e 0e0e 	sbcs.w	lr, lr, lr
 80020f2:	eb1c 0a0c 	adds.w	sl, ip, ip
 80020f6:	eb5e 0e0e 	adcs.w	lr, lr, lr
 80020fa:	f04c 4c00 	orr.w	ip, ip, #2147483648	@ 0x80000000
 80020fe:	f8c3 c01c 	str.w	ip, [r3, #28]
 8002102:	f1ae 0c01 	sub.w	ip, lr, #1
 8002106:	f06f 0e12 	mvn.w	lr, #18
 800210a:	fb0c fc0e 	mul.w	ip, ip, lr
 800210e:	f8d1 e000 	ldr.w	lr, [r1]
 8002112:	f8d2 a000 	ldr.w	sl, [r2]
 8002116:	fbe0 ec60 	umaal	lr, ip, r0, r0
 800211a:	ebba 0a0e 	subs.w	sl, sl, lr
 800211e:	f8c3 a000 	str.w	sl, [r3]
 8002122:	f8d1 e004 	ldr.w	lr, [r1, #4]
 8002126:	f8d2 a004 	ldr.w	sl, [r2, #4]
 800212a:	fbe0 ec60 	umaal	lr, ip, r0, r0
 800212e:	eb7a 0a0e 	sbcs.w	sl, sl, lr
 8002132:	f8c3 a004 	str.w	sl, [r3, #4]
 8002136:	f8d1 e008 	ldr.w	lr, [r1, #8]
 800213a:	f8d2 a008 	ldr.w	sl, [r2, #8]
 800213e:	fbe0 ec60 	umaal	lr, ip, r0, r0
 8002142:	eb7a 0a0e 	sbcs.w	sl, sl, lr
 8002146:	f8c3 a008 	str.w	sl, [r3, #8]
 800214a:	f8d1 e00c 	ldr.w	lr, [r1, #12]
 800214e:	f8d2 a00c 	ldr.w	sl, [r2, #12]
 8002152:	fbe0 ec60 	umaal	lr, ip, r0, r0
 8002156:	eb7a 0a0e 	sbcs.w	sl, sl, lr
 800215a:	f8c3 a00c 	str.w	sl, [r3, #12]
 800215e:	f8d1 e010 	ldr.w	lr, [r1, #16]
 8002162:	f8d2 a010 	ldr.w	sl, [r2, #16]
 8002166:	fbe0 ec60 	umaal	lr, ip, r0, r0
 800216a:	eb7a 0a0e 	sbcs.w	sl, sl, lr
 800216e:	f8c3 a010 	str.w	sl, [r3, #16]
 8002172:	f8d1 e014 	ldr.w	lr, [r1, #20]
 8002176:	f8d2 a014 	ldr.w	sl, [r2, #20]
 800217a:	fbe0 ec60 	umaal	lr, ip, r0, r0
 800217e:	eb7a 0a0e 	sbcs.w	sl, sl, lr
 8002182:	f8c3 a014 	str.w	sl, [r3, #20]
 8002186:	f8d1 e018 	ldr.w	lr, [r1, #24]
 800218a:	f8d2 a018 	ldr.w	sl, [r2, #24]
 800218e:	fbe0 ec60 	umaal	lr, ip, r0, r0
 8002192:	eb7a 0a0e 	sbcs.w	sl, sl, lr
 8002196:	f8c3 a018 	str.w	sl, [r3, #24]
 800219a:	f8d3 a01c 	ldr.w	sl, [r3, #28]
 800219e:	eb7a 0a0c 	sbcs.w	sl, sl, ip
 80021a2:	f8c3 a01c 	str.w	sl, [r3, #28]
 80021a6:	4648      	mov	r0, r9
 80021a8:	4629      	mov	r1, r5
 80021aa:	f7fe f8f5 	bl	8000398 <fe25519_square_asm>
 80021ae:	4641      	mov	r1, r8
 80021b0:	4628      	mov	r0, r5
 80021b2:	f7fe f8f1 	bl	8000398 <fe25519_square_asm>
 80021b6:	463a      	mov	r2, r7
 80021b8:	4629      	mov	r1, r5
 80021ba:	4640      	mov	r0, r8
 80021bc:	f7fe f9ba 	bl	8000534 <fe25519_mul_asm>
 80021c0:	4669      	mov	r1, sp
 80021c2:	4628      	mov	r0, r5
 80021c4:	f7fe f8e8 	bl	8000398 <fe25519_square_asm>
 80021c8:	a908      	add	r1, sp, #32
 80021ca:	4668      	mov	r0, sp
 80021cc:	f7fe f8e4 	bl	8000398 <fe25519_square_asm>
 80021d0:	4633      	mov	r3, r6
 80021d2:	462a      	mov	r2, r5
 80021d4:	4669      	mov	r1, sp
 80021d6:	69d0      	ldr	r0, [r2, #28]
 80021d8:	69cf      	ldr	r7, [r1, #28]
 80021da:	1bc0      	subs	r0, r0, r7
 80021dc:	41bf      	sbcs	r7, r7
 80021de:	eb10 0c00 	adds.w	ip, r0, r0
 80021e2:	417f      	adcs	r7, r7
 80021e4:	f040 4000 	orr.w	r0, r0, #2147483648	@ 0x80000000
 80021e8:	61d8      	str	r0, [r3, #28]
 80021ea:	f1a7 0001 	sub.w	r0, r7, #1
 80021ee:	f06f 0712 	mvn.w	r7, #18
 80021f2:	fb00 f007 	mul.w	r0, r0, r7
 80021f6:	680f      	ldr	r7, [r1, #0]
 80021f8:	f8d2 c000 	ldr.w	ip, [r2]
 80021fc:	fbe4 7064 	umaal	r7, r0, r4, r4
 8002200:	ebbc 0c07 	subs.w	ip, ip, r7
 8002204:	f8c3 c000 	str.w	ip, [r3]
 8002208:	684f      	ldr	r7, [r1, #4]
 800220a:	f8d2 c004 	ldr.w	ip, [r2, #4]
 800220e:	fbe4 7064 	umaal	r7, r0, r4, r4
 8002212:	eb7c 0c07 	sbcs.w	ip, ip, r7
 8002216:	f8c3 c004 	str.w	ip, [r3, #4]
 800221a:	688f      	ldr	r7, [r1, #8]
 800221c:	f8d2 c008 	ldr.w	ip, [r2, #8]
 8002220:	fbe4 7064 	umaal	r7, r0, r4, r4
 8002224:	eb7c 0c07 	sbcs.w	ip, ip, r7
 8002228:	f8c3 c008 	str.w	ip, [r3, #8]
 800222c:	68cf      	ldr	r7, [r1, #12]
 800222e:	f8d2 c00c 	ldr.w	ip, [r2, #12]
 8002232:	fbe4 7064 	umaal	r7, r0, r4, r4
 8002236:	eb7c 0c07 	sbcs.w	ip, ip, r7
 800223a:	f8c3 c00c 	str.w	ip, [r3, #12]
 800223e:	690f      	ldr	r7, [r1, #16]
 8002240:	f8d2 c010 	ldr.w	ip, [r2, #16]
 8002244:	fbe4 7064 	umaal	r7, r0, r4, r4
 8002248:	eb7c 0c07 	sbcs.w	ip, ip, r7
 800224c:	f8c3 c010 	str.w	ip, [r3, #16]
 8002250:	694f      	ldr	r7, [r1, #20]
 8002252:	f8d2 c014 	ldr.w	ip, [r2, #20]
 8002256:	fbe4 7064 	umaal	r7, r0, r4, r4
 800225a:	eb7c 0c07 	sbcs.w	ip, ip, r7
 800225e:	f8c3 c014 	str.w	ip, [r3, #20]
 8002262:	698f      	ldr	r7, [r1, #24]
 8002264:	f8d2 c018 	ldr.w	ip, [r2, #24]
 8002268:	fbe4 7064 	umaal	r7, r0, r4, r4
 800226c:	eb7c 0c07 	sbcs.w	ip, ip, r7
 8002270:	f8c3 c018 	str.w	ip, [r3, #24]
 8002274:	f8d3 c01c 	ldr.w	ip, [r3, #28]
 8002278:	eb7c 0c00 	sbcs.w	ip, ip, r0
 800227c:	f8c3 c01c 	str.w	ip, [r3, #28]
 8002280:	462a      	mov	r2, r5
 8002282:	4628      	mov	r0, r5
 8002284:	4669      	mov	r1, sp
 8002286:	f7fe f955 	bl	8000534 <fe25519_mul_asm>
 800228a:	4a22      	ldr	r2, [pc, #136]	@ (8002314 <curve25519_ladderstep+0x5b4>)
 800228c:	a908      	add	r1, sp, #32
 800228e:	466b      	mov	r3, sp
 8002290:	4630      	mov	r0, r6
 8002292:	69dc      	ldr	r4, [r3, #28]
 8002294:	69c7      	ldr	r7, [r0, #28]
 8002296:	eb02 0c02 	add.w	ip, r2, r2
 800229a:	4625      	mov	r5, r4
 800229c:	fbec 4567 	umaal	r4, r5, ip, r7
 80022a0:	f04f 0713 	mov.w	r7, #19
 80022a4:	fb07 f505 	mul.w	r5, r7, r5
 80022a8:	f8d0 c000 	ldr.w	ip, [r0]
 80022ac:	681f      	ldr	r7, [r3, #0]
 80022ae:	fbe2 756c 	umaal	r7, r5, r2, ip
 80022b2:	600f      	str	r7, [r1, #0]
 80022b4:	f8d0 c004 	ldr.w	ip, [r0, #4]
 80022b8:	685f      	ldr	r7, [r3, #4]
 80022ba:	fbe2 756c 	umaal	r7, r5, r2, ip
 80022be:	604f      	str	r7, [r1, #4]
 80022c0:	f8d0 c008 	ldr.w	ip, [r0, #8]
 80022c4:	689f      	ldr	r7, [r3, #8]
 80022c6:	fbe2 756c 	umaal	r7, r5, r2, ip
 80022ca:	608f      	str	r7, [r1, #8]
 80022cc:	f8d0 c00c 	ldr.w	ip, [r0, #12]
 80022d0:	68df      	ldr	r7, [r3, #12]
 80022d2:	fbe2 756c 	umaal	r7, r5, r2, ip
 80022d6:	60cf      	str	r7, [r1, #12]
 80022d8:	f8d0 c010 	ldr.w	ip, [r0, #16]
 80022dc:	691f      	ldr	r7, [r3, #16]
 80022de:	fbe2 756c 	umaal	r7, r5, r2, ip
 80022e2:	610f      	str	r7, [r1, #16]
 80022e4:	f8d0 c014 	ldr.w	ip, [r0, #20]
 80022e8:	695f      	ldr	r7, [r3, #20]
 80022ea:	fbe2 756c 	umaal	r7, r5, r2, ip
 80022ee:	614f      	str	r7, [r1, #20]
 80022f0:	f8d0 c018 	ldr.w	ip, [r0, #24]
 80022f4:	699f      	ldr	r7, [r3, #24]
 80022f6:	fbe2 756c 	umaal	r7, r5, r2, ip
 80022fa:	618f      	str	r7, [r1, #24]
 80022fc:	eb05 0454 	add.w	r4, r5, r4, lsr #1
 8002300:	61cc      	str	r4, [r1, #28]
 8002302:	4632      	mov	r2, r6
 8002304:	a908      	add	r1, sp, #32
 8002306:	4630      	mov	r0, r6
 8002308:	f7fe f914 	bl	8000534 <fe25519_mul_asm>
 800230c:	b011      	add	sp, #68	@ 0x44
 800230e:	e8bd 8ff0 	ldmia.w	sp!, {r4, r5, r6, r7, r8, r9, sl, fp, pc}
 8002312:	bf00      	nop
 8002314:	0001db42 	.word	0x0001db42

08002318 <computeY_curve25519_projective>:
 8002318:	e92d 4ff0 	stmdb	sp!, {r4, r5, r6, r7, r8, r9, sl, fp, lr}
 800231c:	b0a1      	sub	sp, #132	@ 0x84
 800231e:	4688      	mov	r8, r1
 8002320:	f8dd 90ac 	ldr.w	r9, [sp, #172]	@ 0xac
 8002324:	4605      	mov	r5, r0
 8002326:	4649      	mov	r1, r9
 8002328:	4668      	mov	r0, sp
 800232a:	2401      	movs	r4, #1
 800232c:	4617      	mov	r7, r2
 800232e:	469a      	mov	sl, r3
 8002330:	f7fe f900 	bl	8000534 <fe25519_mul_asm>
 8002334:	4620      	mov	r0, r4
 8002336:	a908      	add	r1, sp, #32
 8002338:	4643      	mov	r3, r8
 800233a:	466a      	mov	r2, sp
 800233c:	f8d3 c01c 	ldr.w	ip, [r3, #28]
 8002340:	69d6      	ldr	r6, [r2, #28]
 8002342:	46b6      	mov	lr, r6
 8002344:	fbec ce60 	umaal	ip, lr, ip, r0
 8002348:	fbe6 ce00 	umlal	ip, lr, r6, r0
 800234c:	f04f 0613 	mov.w	r6, #19
 8002350:	fb0e f606 	mul.w	r6, lr, r6
 8002354:	f8d3 e000 	ldr.w	lr, [r3]
 8002358:	f8d2 b000 	ldr.w	fp, [r2]
 800235c:	fbe0 eb66 	umaal	lr, fp, r0, r6
 8002360:	f8c1 e000 	str.w	lr, [r1]
 8002364:	685e      	ldr	r6, [r3, #4]
 8002366:	f8d2 e004 	ldr.w	lr, [r2, #4]
 800236a:	fbe0 eb66 	umaal	lr, fp, r0, r6
 800236e:	f8c1 e004 	str.w	lr, [r1, #4]
 8002372:	689e      	ldr	r6, [r3, #8]
 8002374:	f8d2 e008 	ldr.w	lr, [r2, #8]
 8002378:	fbe0 eb66 	umaal	lr, fp, r0, r6
 800237c:	f8c1 e008 	str.w	lr, [r1, #8]
 8002380:	68de      	ldr	r6, [r3, #12]
 8002382:	f8d2 e00c 	ldr.w	lr, [r2, #12]
 8002386:	fbe0 eb66 	umaal	lr, fp, r0, r6
 800238a:	f8c1 e00c 	str.w	lr, [r1, #12]
 800238e:	691e      	ldr	r6, [r3, #16]
 8002390:	f8d2 e010 	ldr.w	lr, [r2, #16]
 8002394:	fbe0 eb66 	umaal	lr, fp, r0, r6
 8002398:	f8c1 e010 	str.w	lr, [r1, #16]
 800239c:	695e      	ldr	r6, [r3, #20]
 800239e:	f8d2 e014 	ldr.w	lr, [r2, #20]
 80023a2:	fbe0 eb66 	umaal	lr, fp, r0, r6
 80023a6:	f8c1 e014 	str.w	lr, [r1, #20]
 80023aa:	699e      	ldr	r6, [r3, #24]
 80023ac:	f8d2 e018 	ldr.w	lr, [r2, #24]
 80023b0:	fbe0 eb66 	umaal	lr, fp, r0, r6
 80023b4:	f8c1 e018 	str.w	lr, [r1, #24]
 80023b8:	eb0b 0b5c 	add.w	fp, fp, ip, lsr #1
 80023bc:	f8c1 b01c 	str.w	fp, [r1, #28]
 80023c0:	2600      	movs	r6, #0
 80023c2:	ab10      	add	r3, sp, #64	@ 0x40
 80023c4:	4642      	mov	r2, r8
 80023c6:	4669      	mov	r1, sp
 80023c8:	4630      	mov	r0, r6
 80023ca:	f8d2 c01c 	ldr.w	ip, [r2, #28]
 80023ce:	f8d1 e01c 	ldr.w	lr, [r1, #28]
 80023d2:	ebbc 0c0e 	subs.w	ip, ip, lr
 80023d6:	eb7e 0e0e 	sbcs.w	lr, lr, lr
 80023da:	eb1c 0b0c 	adds.w	fp, ip, ip
 80023de:	eb5e 0e0e 	adcs.w	lr, lr, lr
 80023e2:	f04c 4c00 	orr.w	ip, ip, #2147483648	@ 0x80000000
 80023e6:	f8c3 c01c 	str.w	ip, [r3, #28]
 80023ea:	f1ae 0c01 	sub.w	ip, lr, #1
 80023ee:	f06f 0e12 	mvn.w	lr, #18
 80023f2:	fb0c fc0e 	mul.w	ip, ip, lr
 80023f6:	f8d1 e000 	ldr.w	lr, [r1]
 80023fa:	f8d2 b000 	ldr.w	fp, [r2]
 80023fe:	fbe0 ec60 	umaal	lr, ip, r0, r0
 8002402:	ebbb 0b0e 	subs.w	fp, fp, lr
 8002406:	f8c3 b000 	str.w	fp, [r3]
 800240a:	f8d1 e004 	ldr.w	lr, [r1, #4]
 800240e:	f8d2 b004 	ldr.w	fp, [r2, #4]
 8002412:	fbe0 ec60 	umaal	lr, ip, r0, r0
 8002416:	eb7b 0b0e 	sbcs.w	fp, fp, lr
 800241a:	f8c3 b004 	str.w	fp, [r3, #4]
 800241e:	f8d1 e008 	ldr.w	lr, [r1, #8]
 8002422:	f8d2 b008 	ldr.w	fp, [r2, #8]
 8002426:	fbe0 ec60 	umaal	lr, ip, r0, r0
 800242a:	eb7b 0b0e 	sbcs.w	fp, fp, lr
 800242e:	f8c3 b008 	str.w	fp, [r3, #8]
 8002432:	f8d1 e00c 	ldr.w	lr, [r1, #12]
 8002436:	f8d2 b00c 	ldr.w	fp, [r2, #12]
 800243a:	fbe0 ec60 	umaal	lr, ip, r0, r0
 800243e:	eb7b 0b0e 	sbcs.w	fp, fp, lr
 8002442:	f8c3 b00c 	str.w	fp, [r3, #12]
 8002446:	f8d1 e010 	ldr.w	lr, [r1, #16]
 800244a:	f8d2 b010 	ldr.w	fp, [r2, #16]
 800244e:	fbe0 ec60 	umaal	lr, ip, r0, r0
 8002452:	eb7b 0b0e 	sbcs.w	fp, fp, lr
 8002456:	f8c3 b010 	str.w	fp, [r3, #16]
 800245a:	f8d1 e014 	ldr.w	lr, [r1, #20]
 800245e:	f8d2 b014 	ldr.w	fp, [r2, #20]
 8002462:	fbe0 ec60 	umaal	lr, ip, r0, r0
 8002466:	eb7b 0b0e 	sbcs.w	fp, fp, lr
 800246a:	f8c3 b014 	str.w	fp, [r3, #20]
 800246e:	f8d1 e018 	ldr.w	lr, [r1, #24]
 8002472:	f8d2 b018 	ldr.w	fp, [r2, #24]
 8002476:	fbe0 ec60 	umaal	lr, ip, r0, r0
 800247a:	eb7b 0b0e 	sbcs.w	fp, fp, lr
 800247e:	f8c3 b018 	str.w	fp, [r3, #24]
 8002482:	f8d3 b01c 	ldr.w	fp, [r3, #28]
 8002486:	eb7b 0b0c 	sbcs.w	fp, fp, ip
 800248a:	f8c3 b01c 	str.w	fp, [r3, #28]
 800248e:	a910      	add	r1, sp, #64	@ 0x40
 8002490:	4608      	mov	r0, r1
 8002492:	f7fd ff81 	bl	8000398 <fe25519_square_asm>
 8002496:	a910      	add	r1, sp, #64	@ 0x40
 8002498:	4652      	mov	r2, sl
 800249a:	4608      	mov	r0, r1
 800249c:	f7fe f84a 	bl	8000534 <fe25519_mul_asm>
 80024a0:	4bdb      	ldr	r3, [pc, #876]	@ (8002810 <computeY_curve25519_projective+0x4f8>)
 80024a2:	466a      	mov	r2, sp
 80024a4:	4621      	mov	r1, r4
 80024a6:	469b      	mov	fp, r3
 80024a8:	f8d3 c01c 	ldr.w	ip, [r3, #28]
 80024ac:	f8db 001c 	ldr.w	r0, [fp, #28]
 80024b0:	4686      	mov	lr, r0
 80024b2:	fbec ce61 	umaal	ip, lr, ip, r1
 80024b6:	fbe0 ce01 	umlal	ip, lr, r0, r1
 80024ba:	f04f 0013 	mov.w	r0, #19
 80024be:	fb0e f000 	mul.w	r0, lr, r0
 80024c2:	f8d3 e000 	ldr.w	lr, [r3]
 80024c6:	f8db a000 	ldr.w	sl, [fp]
 80024ca:	fbe1 ea60 	umaal	lr, sl, r1, r0
 80024ce:	f8c2 e000 	str.w	lr, [r2]
 80024d2:	6858      	ldr	r0, [r3, #4]
 80024d4:	f8db e004 	ldr.w	lr, [fp, #4]
 80024d8:	fbe1 ea60 	umaal	lr, sl, r1, r0
 80024dc:	f8c2 e004 	str.w	lr, [r2, #4]
 80024e0:	6898      	ldr	r0, [r3, #8]
 80024e2:	f8db e008 	ldr.w	lr, [fp, #8]
 80024e6:	fbe1 ea60 	umaal	lr, sl, r1, r0
 80024ea:	f8c2 e008 	str.w	lr, [r2, #8]
 80024ee:	68d8      	ldr	r0, [r3, #12]
 80024f0:	f8db e00c 	ldr.w	lr, [fp, #12]
 80024f4:	fbe1 ea60 	umaal	lr, sl, r1, r0
 80024f8:	f8c2 e00c 	str.w	lr, [r2, #12]
 80024fc:	6918      	ldr	r0, [r3, #16]
 80024fe:	f8db e010 	ldr.w	lr, [fp, #16]
 8002502:	fbe1 ea60 	umaal	lr, sl, r1, r0
 8002506:	f8c2 e010 	str.w	lr, [r2, #16]
 800250a:	6958      	ldr	r0, [r3, #20]
 800250c:	f8db e014 	ldr.w	lr, [fp, #20]
 8002510:	fbe1 ea60 	umaal	lr, sl, r1, r0
 8002514:	f8c2 e014 	str.w	lr, [r2, #20]
 8002518:	6998      	ldr	r0, [r3, #24]
 800251a:	f8db e018 	ldr.w	lr, [fp, #24]
 800251e:	fbe1 ea60 	umaal	lr, sl, r1, r0
 8002522:	f8c2 e018 	str.w	lr, [r2, #24]
 8002526:	eb0a 0a5c 	add.w	sl, sl, ip, lsr #1
 800252a:	f8c2 a01c 	str.w	sl, [r2, #28]
 800252e:	463a      	mov	r2, r7
 8002530:	4669      	mov	r1, sp
 8002532:	4668      	mov	r0, sp
 8002534:	f7fd fffe 	bl	8000534 <fe25519_mul_asm>
 8002538:	ab08      	add	r3, sp, #32
 800253a:	466a      	mov	r2, sp
 800253c:	4621      	mov	r1, r4
 800253e:	469b      	mov	fp, r3
 8002540:	f8db c01c 	ldr.w	ip, [fp, #28]
 8002544:	69d0      	ldr	r0, [r2, #28]
 8002546:	4686      	mov	lr, r0
 8002548:	fbec ce61 	umaal	ip, lr, ip, r1
 800254c:	fbe0 ce01 	umlal	ip, lr, r0, r1
 8002550:	f04f 0013 	mov.w	r0, #19
 8002554:	fb0e f000 	mul.w	r0, lr, r0
 8002558:	f8db e000 	ldr.w	lr, [fp]
 800255c:	f8d2 a000 	ldr.w	sl, [r2]
 8002560:	fbe1 ea60 	umaal	lr, sl, r1, r0
 8002564:	f8c3 e000 	str.w	lr, [r3]
 8002568:	f8db 0004 	ldr.w	r0, [fp, #4]
 800256c:	f8d2 e004 	ldr.w	lr, [r2, #4]
 8002570:	fbe1 ea60 	umaal	lr, sl, r1, r0
 8002574:	f8c3 e004 	str.w	lr, [r3, #4]
 8002578:	f8db 0008 	ldr.w	r0, [fp, #8]
 800257c:	f8d2 e008 	ldr.w	lr, [r2, #8]
 8002580:	fbe1 ea60 	umaal	lr, sl, r1, r0
 8002584:	f8c3 e008 	str.w	lr, [r3, #8]
 8002588:	f8db 000c 	ldr.w	r0, [fp, #12]
 800258c:	f8d2 e00c 	ldr.w	lr, [r2, #12]
 8002590:	fbe1 ea60 	umaal	lr, sl, r1, r0
 8002594:	f8c3 e00c 	str.w	lr, [r3, #12]
 8002598:	f8db 0010 	ldr.w	r0, [fp, #16]
 800259c:	f8d2 e010 	ldr.w	lr, [r2, #16]
 80025a0:	fbe1 ea60 	umaal	lr, sl, r1, r0
 80025a4:	f8c3 e010 	str.w	lr, [r3, #16]
 80025a8:	f8db 0014 	ldr.w	r0, [fp, #20]
 80025ac:	f8d2 e014 	ldr.w	lr, [r2, #20]
 80025b0:	fbe1 ea60 	umaal	lr, sl, r1, r0
 80025b4:	f8c3 e014 	str.w	lr, [r3, #20]
 80025b8:	f8db 0018 	ldr.w	r0, [fp, #24]
 80025bc:	f8d2 e018 	ldr.w	lr, [r2, #24]
 80025c0:	fbe1 ea60 	umaal	lr, sl, r1, r0
 80025c4:	f8c3 e018 	str.w	lr, [r3, #24]
 80025c8:	eb0a 0a5c 	add.w	sl, sl, ip, lsr #1
 80025cc:	f8c3 a01c 	str.w	sl, [r3, #28]
 80025d0:	4649      	mov	r1, r9
 80025d2:	4642      	mov	r2, r8
 80025d4:	a818      	add	r0, sp, #96	@ 0x60
 80025d6:	f7fd ffad 	bl	8000534 <fe25519_mul_asm>
 80025da:	ab18      	add	r3, sp, #96	@ 0x60
 80025dc:	463a      	mov	r2, r7
 80025de:	4621      	mov	r1, r4
 80025e0:	469a      	mov	sl, r3
 80025e2:	f8da c01c 	ldr.w	ip, [sl, #28]
 80025e6:	69d0      	ldr	r0, [r2, #28]
 80025e8:	4686      	mov	lr, r0
 80025ea:	fbec ce61 	umaal	ip, lr, ip, r1
 80025ee:	fbe0 ce01 	umlal	ip, lr, r0, r1
 80025f2:	f04f 0013 	mov.w	r0, #19
 80025f6:	fb0e f000 	mul.w	r0, lr, r0
 80025fa:	f8da e000 	ldr.w	lr, [sl]
 80025fe:	f8d2 9000 	ldr.w	r9, [r2]
 8002602:	fbe1 e960 	umaal	lr, r9, r1, r0
 8002606:	f8c3 e000 	str.w	lr, [r3]
 800260a:	f8da 0004 	ldr.w	r0, [sl, #4]
 800260e:	f8d2 e004 	ldr.w	lr, [r2, #4]
 8002612:	fbe1 e960 	umaal	lr, r9, r1, r0
 8002616:	f8c3 e004 	str.w	lr, [r3, #4]
 800261a:	f8da 0008 	ldr.w	r0, [sl, #8]
 800261e:	f8d2 e008 	ldr.w	lr, [r2, #8]
 8002622:	fbe1 e960 	umaal	lr, r9, r1, r0
 8002626:	f8c3 e008 	str.w	lr, [r3, #8]
 800262a:	f8da 000c 	ldr.w	r0, [sl, #12]
 800262e:	f8d2 e00c 	ldr.w	lr, [r2, #12]
 8002632:	fbe1 e960 	umaal	lr, r9, r1, r0
 8002636:	f8c3 e00c 	str.w	lr, [r3, #12]
 800263a:	f8da 0010 	ldr.w	r0, [sl, #16]
 800263e:	f8d2 e010 	ldr.w	lr, [r2, #16]
 8002642:	fbe1 e960 	umaal	lr, r9, r1, r0
 8002646:	f8c3 e010 	str.w	lr, [r3, #16]
 800264a:	f8da 0014 	ldr.w	r0, [sl, #20]
 800264e:	f8d2 e014 	ldr.w	lr, [r2, #20]
 8002652:	fbe1 e960 	umaal	lr, r9, r1, r0
 8002656:	f8c3 e014 	str.w	lr, [r3, #20]
 800265a:	f8da 0018 	ldr.w	r0, [sl, #24]
 800265e:	f8d2 e018 	ldr.w	lr, [r2, #24]
 8002662:	fbe1 e960 	umaal	lr, r9, r1, r0
 8002666:	f8c3 e018 	str.w	lr, [r3, #24]
 800266a:	eb09 095c 	add.w	r9, r9, ip, lsr #1
 800266e:	f8c3 901c 	str.w	r9, [r3, #28]
 8002672:	a908      	add	r1, sp, #32
 8002674:	aa18      	add	r2, sp, #96	@ 0x60
 8002676:	4608      	mov	r0, r1
 8002678:	f7fd ff5c 	bl	8000534 <fe25519_mul_asm>
 800267c:	463a      	mov	r2, r7
 800267e:	4669      	mov	r1, sp
 8002680:	4668      	mov	r0, sp
 8002682:	f7fd ff57 	bl	8000534 <fe25519_mul_asm>
 8002686:	ab08      	add	r3, sp, #32
 8002688:	466a      	mov	r2, sp
 800268a:	4631      	mov	r1, r6
 800268c:	4699      	mov	r9, r3
 800268e:	f8d9 001c 	ldr.w	r0, [r9, #28]
 8002692:	f8d2 c01c 	ldr.w	ip, [r2, #28]
 8002696:	ebb0 000c 	subs.w	r0, r0, ip
 800269a:	eb7c 0c0c 	sbcs.w	ip, ip, ip
 800269e:	eb10 0e00 	adds.w	lr, r0, r0
 80026a2:	eb5c 0c0c 	adcs.w	ip, ip, ip
 80026a6:	f040 4000 	orr.w	r0, r0, #2147483648	@ 0x80000000
 80026aa:	61d8      	str	r0, [r3, #28]
 80026ac:	f1ac 0001 	sub.w	r0, ip, #1
 80026b0:	f06f 0c12 	mvn.w	ip, #18
 80026b4:	fb00 f00c 	mul.w	r0, r0, ip
 80026b8:	f8d2 c000 	ldr.w	ip, [r2]
 80026bc:	f8d9 e000 	ldr.w	lr, [r9]
 80026c0:	fbe1 c061 	umaal	ip, r0, r1, r1
 80026c4:	ebbe 0e0c 	subs.w	lr, lr, ip
 80026c8:	f8c3 e000 	str.w	lr, [r3]
 80026cc:	f8d2 c004 	ldr.w	ip, [r2, #4]
 80026d0:	f8d9 e004 	ldr.w	lr, [r9, #4]
 80026d4:	fbe1 c061 	umaal	ip, r0, r1, r1
 80026d8:	eb7e 0e0c 	sbcs.w	lr, lr, ip
 80026dc:	f8c3 e004 	str.w	lr, [r3, #4]
 80026e0:	f8d2 c008 	ldr.w	ip, [r2, #8]
 80026e4:	f8d9 e008 	ldr.w	lr, [r9, #8]
 80026e8:	fbe1 c061 	umaal	ip, r0, r1, r1
 80026ec:	eb7e 0e0c 	sbcs.w	lr, lr, ip
 80026f0:	f8c3 e008 	str.w	lr, [r3, #8]
 80026f4:	f8d2 c00c 	ldr.w	ip, [r2, #12]
 80026f8:	f8d9 e00c 	ldr.w	lr, [r9, #12]
 80026fc:	fbe1 c061 	umaal	ip, r0, r1, r1
 8002700:	eb7e 0e0c 	sbcs.w	lr, lr, ip
 8002704:	f8c3 e00c 	str.w	lr, [r3, #12]
 8002708:	f8d2 c010 	ldr.w	ip, [r2, #16]
 800270c:	f8d9 e010 	ldr.w	lr, [r9, #16]
 8002710:	fbe1 c061 	umaal	ip, r0, r1, r1
 8002714:	eb7e 0e0c 	sbcs.w	lr, lr, ip
 8002718:	f8c3 e010 	str.w	lr, [r3, #16]
 800271c:	f8d2 c014 	ldr.w	ip, [r2, #20]
 8002720:	f8d9 e014 	ldr.w	lr, [r9, #20]
 8002724:	fbe1 c061 	umaal	ip, r0, r1, r1
 8002728:	eb7e 0e0c 	sbcs.w	lr, lr, ip
 800272c:	f8c3 e014 	str.w	lr, [r3, #20]
 8002730:	f8d2 c018 	ldr.w	ip, [r2, #24]
 8002734:	f8d9 e018 	ldr.w	lr, [r9, #24]
 8002738:	fbe1 c061 	umaal	ip, r0, r1, r1
 800273c:	eb7e 0e0c 	sbcs.w	lr, lr, ip
 8002740:	f8c3 e018 	str.w	lr, [r3, #24]
 8002744:	f8d3 e01c 	ldr.w	lr, [r3, #28]
 8002748:	eb7e 0e00 	sbcs.w	lr, lr, r0
 800274c:	f8c3 e01c 	str.w	lr, [r3, #28]
 8002750:	a908      	add	r1, sp, #32
 8002752:	9a2a      	ldr	r2, [sp, #168]	@ 0xa8
 8002754:	4608      	mov	r0, r1
 8002756:	f7fd feed 	bl	8000534 <fe25519_mul_asm>
 800275a:	ab08      	add	r3, sp, #32
 800275c:	aa10      	add	r2, sp, #64	@ 0x40
 800275e:	69d9      	ldr	r1, [r3, #28]
 8002760:	69d0      	ldr	r0, [r2, #28]
 8002762:	1a09      	subs	r1, r1, r0
 8002764:	4180      	sbcs	r0, r0
 8002766:	eb11 0c01 	adds.w	ip, r1, r1
 800276a:	4140      	adcs	r0, r0
 800276c:	f041 4100 	orr.w	r1, r1, #2147483648	@ 0x80000000
 8002770:	61e9      	str	r1, [r5, #28]
 8002772:	f1a0 0101 	sub.w	r1, r0, #1
 8002776:	f06f 0012 	mvn.w	r0, #18
 800277a:	fb01 f100 	mul.w	r1, r1, r0
 800277e:	6810      	ldr	r0, [r2, #0]
 8002780:	f8d3 c000 	ldr.w	ip, [r3]
 8002784:	fbe6 0166 	umaal	r0, r1, r6, r6
 8002788:	ebbc 0c00 	subs.w	ip, ip, r0
 800278c:	f8c5 c000 	str.w	ip, [r5]
 8002790:	6850      	ldr	r0, [r2, #4]
 8002792:	f8d3 c004 	ldr.w	ip, [r3, #4]
 8002796:	fbe6 0166 	umaal	r0, r1, r6, r6
 800279a:	eb7c 0c00 	sbcs.w	ip, ip, r0
 800279e:	f8c5 c004 	str.w	ip, [r5, #4]
 80027a2:	6890      	ldr	r0, [r2, #8]
 80027a4:	f8d3 c008 	ldr.w	ip, [r3, #8]
 80027a8:	fbe6 0166 	umaal	r0, r1, r6, r6
 80027ac:	eb7c 0c00 	sbcs.w	ip, ip, r0
 80027b0:	f8c5 c008 	str.w	ip, [r5, #8]
 80027b4:	68d0      	ldr	r0, [r2, #12]
 80027b6:	f8d3 c00c 	ldr.w	ip, [r3, #12]
 80027ba:	fbe6 0166 	umaal	r0, r1, r6, r6
 80027be:	eb7c 0c00 	sbcs.w	ip, ip, r0
 80027c2:	f8c5 c00c 	str.w	ip, [r5, #12]
 80027c6:	6910      	ldr	r0, [r2, #16]
 80027c8:	f8d3 c010 	ldr.w	ip, [r3, #16]
 80027cc:	fbe6 0166 	umaal	r0, r1, r6, r6
 80027d0:	eb7c 0c00 	sbcs.w	ip, ip, r0
 80027d4:	f8c5 c010 	str.w	ip, [r5, #16]
 80027d8:	6950      	ldr	r0, [r2, #20]
 80027da:	f8d3 c014 	ldr.w	ip, [r3, #20]
 80027de:	fbe6 0166 	umaal	r0, r1, r6, r6
 80027e2:	eb7c 0c00 	sbcs.w	ip, ip, r0
 80027e6:	f8c5 c014 	str.w	ip, [r5, #20]
 80027ea:	6990      	ldr	r0, [r2, #24]
 80027ec:	f8d3 c018 	ldr.w	ip, [r3, #24]
 80027f0:	fbe6 0166 	umaal	r0, r1, r6, r6
 80027f4:	eb7c 0c00 	sbcs.w	ip, ip, r0
 80027f8:	f8c5 c018 	str.w	ip, [r5, #24]
 80027fc:	f8d5 c01c 	ldr.w	ip, [r5, #28]
 8002800:	eb7c 0c01 	sbcs.w	ip, ip, r1
 8002804:	f8c5 c01c 	str.w	ip, [r5, #28]
 8002808:	9b2c      	ldr	r3, [sp, #176]	@ 0xb0
 800280a:	466a      	mov	r2, sp
 800280c:	469c      	mov	ip, r3
 800280e:	e001      	b.n	8002814 <computeY_curve25519_projective+0x4fc>
 8002810:	08003f40 	.word	0x08003f40
 8002814:	69d8      	ldr	r0, [r3, #28]
 8002816:	f8dc 101c 	ldr.w	r1, [ip, #28]
 800281a:	460d      	mov	r5, r1
 800281c:	fbe0 0564 	umaal	r0, r5, r0, r4
 8002820:	fbe1 0504 	umlal	r0, r5, r1, r4
 8002824:	f04f 0113 	mov.w	r1, #19
 8002828:	fb05 f101 	mul.w	r1, r5, r1
 800282c:	681d      	ldr	r5, [r3, #0]
 800282e:	f8dc 6000 	ldr.w	r6, [ip]
 8002832:	fbe4 5661 	umaal	r5, r6, r4, r1
 8002836:	6015      	str	r5, [r2, #0]
 8002838:	6859      	ldr	r1, [r3, #4]
 800283a:	f8dc 5004 	ldr.w	r5, [ip, #4]
 800283e:	fbe4 5661 	umaal	r5, r6, r4, r1
 8002842:	6055      	str	r5, [r2, #4]
 8002844:	6899      	ldr	r1, [r3, #8]
 8002846:	f8dc 5008 	ldr.w	r5, [ip, #8]
 800284a:	fbe4 5661 	umaal	r5, r6, r4, r1
 800284e:	6095      	str	r5, [r2, #8]
 8002850:	68d9      	ldr	r1, [r3, #12]
 8002852:	f8dc 500c 	ldr.w	r5, [ip, #12]
 8002856:	fbe4 5661 	umaal	r5, r6, r4, r1
 800285a:	60d5      	str	r5, [r2, #12]
 800285c:	6919      	ldr	r1, [r3, #16]
 800285e:	f8dc 5010 	ldr.w	r5, [ip, #16]
 8002862:	fbe4 5661 	umaal	r5, r6, r4, r1
 8002866:	6115      	str	r5, [r2, #16]
 8002868:	6959      	ldr	r1, [r3, #20]
 800286a:	f8dc 5014 	ldr.w	r5, [ip, #20]
 800286e:	fbe4 5661 	umaal	r5, r6, r4, r1
 8002872:	6155      	str	r5, [r2, #20]
 8002874:	6999      	ldr	r1, [r3, #24]
 8002876:	f8dc 5018 	ldr.w	r5, [ip, #24]
 800287a:	fbe4 5661 	umaal	r5, r6, r4, r1
 800287e:	6195      	str	r5, [r2, #24]
 8002880:	eb06 0650 	add.w	r6, r6, r0, lsr #1
 8002884:	61d6      	str	r6, [r2, #28]
 8002886:	463a      	mov	r2, r7
 8002888:	4669      	mov	r1, sp
 800288a:	4668      	mov	r0, sp
 800288c:	f7fd fe52 	bl	8000534 <fe25519_mul_asm>
 8002890:	9a2a      	ldr	r2, [sp, #168]	@ 0xa8
 8002892:	4669      	mov	r1, sp
 8002894:	4668      	mov	r0, sp
 8002896:	f7fd fe4d 	bl	8000534 <fe25519_mul_asm>
 800289a:	4642      	mov	r2, r8
 800289c:	4669      	mov	r1, sp
 800289e:	4640      	mov	r0, r8
 80028a0:	f7fd fe48 	bl	8000534 <fe25519_mul_asm>
 80028a4:	463a      	mov	r2, r7
 80028a6:	4669      	mov	r1, sp
 80028a8:	4638      	mov	r0, r7
 80028aa:	f7fd fe43 	bl	8000534 <fe25519_mul_asm>
 80028ae:	b021      	add	sp, #132	@ 0x84
 80028b0:	e8bd 8ff0 	ldmia.w	sp!, {r4, r5, r6, r7, r8, r9, sl, fp, pc}

080028b4 <maskScalarBitsWithRandomAndCswap>:
 80028b4:	b5f0      	push	{r4, r5, r6, r7, lr}
 80028b6:	2300      	movs	r3, #0
 80028b8:	b083      	sub	sp, #12
 80028ba:	4616      	mov	r6, r2
 80028bc:	2200      	movs	r2, #0
 80028be:	4605      	mov	r5, r0
 80028c0:	e9cd 2300 	strd	r2, r3, [sp]
 80028c4:	4668      	mov	r0, sp
 80028c6:	2208      	movs	r2, #8
 80028c8:	2300      	movs	r3, #0
 80028ca:	460f      	mov	r7, r1
 80028cc:	f7fe f81a 	bl	8000904 <randombytes>
 80028d0:	9c00      	ldr	r4, [sp, #0]
 80028d2:	2301      	movs	r3, #1
 80028d4:	40b3      	lsls	r3, r6
 80028d6:	ea24 0403 	bic.w	r4, r4, r3
 80028da:	407c      	eors	r4, r7
 80028dc:	41f4      	rors	r4, r6
 80028de:	9b01      	ldr	r3, [sp, #4]
 80028e0:	f105 0260 	add.w	r2, r5, #96	@ 0x60
 80028e4:	f105 0120 	add.w	r1, r5, #32
 80028e8:	4620      	mov	r0, r4
 80028ea:	f001 f967 	bl	8003bbc <cSwapAndRandomize_asm>
 80028ee:	9b01      	ldr	r3, [sp, #4]
 80028f0:	f105 0280 	add.w	r2, r5, #128	@ 0x80
 80028f4:	f105 0140 	add.w	r1, r5, #64	@ 0x40
 80028f8:	4620      	mov	r0, r4
 80028fa:	f001 f95f 	bl	8003bbc <cSwapAndRandomize_asm>
 80028fe:	b003      	add	sp, #12
 8002900:	bdf0      	pop	{r4, r5, r6, r7, pc}
 8002902:	bf00      	nop

08002904 <update_static_key_curve25519>:
 8002904:	e92d 4ff0 	stmdb	sp!, {r4, r5, r6, r7, r8, r9, sl, fp, lr}
 8002908:	4947      	ldr	r1, [pc, #284]	@ (8002a28 <update_static_key_curve25519+0x124>)
 800290a:	4a48      	ldr	r2, [pc, #288]	@ (8002a2c <update_static_key_curve25519+0x128>)
 800290c:	f8df b130 	ldr.w	fp, [pc, #304]	@ 8002a40 <update_static_key_curve25519+0x13c>
 8002910:	f8df 9130 	ldr.w	r9, [pc, #304]	@ 8002a44 <update_static_key_curve25519+0x140>
 8002914:	4f46      	ldr	r7, [pc, #280]	@ (8002a30 <update_static_key_curve25519+0x12c>)
 8002916:	4d47      	ldr	r5, [pc, #284]	@ (8002a34 <update_static_key_curve25519+0x130>)
 8002918:	b0ef      	sub	sp, #444	@ 0x1bc
 800291a:	a80e      	add	r0, sp, #56	@ 0x38
 800291c:	ab16      	add	r3, sp, #88	@ 0x58
 800291e:	ac36      	add	r4, sp, #216	@ 0xd8
 8002920:	f10d 0a78 	add.w	sl, sp, #120	@ 0x78
 8002924:	f10d 0898 	add.w	r8, sp, #152	@ 0x98
 8002928:	ae2e      	add	r6, sp, #184	@ 0xb8
 800292a:	e9cd 1202 	strd	r1, r2, [sp, #8]
 800292e:	9008      	str	r0, [sp, #32]
 8002930:	9309      	str	r3, [sp, #36]	@ 0x24
 8002932:	940d      	str	r4, [sp, #52]	@ 0x34
 8002934:	f8cd b010 	str.w	fp, [sp, #16]
 8002938:	f8cd 9014 	str.w	r9, [sp, #20]
 800293c:	9706      	str	r7, [sp, #24]
 800293e:	9507      	str	r5, [sp, #28]
 8002940:	f8cd a028 	str.w	sl, [sp, #40]	@ 0x28
 8002944:	f8cd 802c 	str.w	r8, [sp, #44]	@ 0x2c
 8002948:	960c      	str	r6, [sp, #48]	@ 0x30
 800294a:	f000 fbd3 	bl	80030f4 <fe25519_cpy>
 800294e:	4a37      	ldr	r2, [pc, #220]	@ (8002a2c <update_static_key_curve25519+0x128>)
 8002950:	ab16      	add	r3, sp, #88	@ 0x58
 8002952:	4611      	mov	r1, r2
 8002954:	4618      	mov	r0, r3
 8002956:	f000 fbcd 	bl	80030f4 <fe25519_cpy>
 800295a:	4659      	mov	r1, fp
 800295c:	4650      	mov	r0, sl
 800295e:	f000 fbc9 	bl	80030f4 <fe25519_cpy>
 8002962:	4649      	mov	r1, r9
 8002964:	4640      	mov	r0, r8
 8002966:	f000 fbc5 	bl	80030f4 <fe25519_cpy>
 800296a:	4639      	mov	r1, r7
 800296c:	4630      	mov	r0, r6
 800296e:	f000 fbc1 	bl	80030f4 <fe25519_cpy>
 8002972:	4620      	mov	r0, r4
 8002974:	4629      	mov	r1, r5
 8002976:	f000 fbbd 	bl	80030f4 <fe25519_cpy>
 800297a:	f10d 0007 	add.w	r0, sp, #7
 800297e:	2201      	movs	r2, #1
 8002980:	2300      	movs	r3, #0
 8002982:	f7fd ffbf 	bl	8000904 <randombytes>
 8002986:	2407      	movs	r4, #7
 8002988:	e001      	b.n	800298e <update_static_key_curve25519+0x8a>
 800298a:	3c01      	subs	r4, #1
 800298c:	d318      	bcc.n	80029c0 <update_static_key_curve25519+0xbc>
 800298e:	a902      	add	r1, sp, #8
 8002990:	4608      	mov	r0, r1
 8002992:	f7fd fffd 	bl	8000990 <curve25519_doublePoint>
 8002996:	a905      	add	r1, sp, #20
 8002998:	4608      	mov	r0, r1
 800299a:	f7fd fff9 	bl	8000990 <curve25519_doublePoint>
 800299e:	f89d 3007 	ldrb.w	r3, [sp, #7]
 80029a2:	4123      	asrs	r3, r4
 80029a4:	07db      	lsls	r3, r3, #31
 80029a6:	d5f0      	bpl.n	800298a <update_static_key_curve25519+0x86>
 80029a8:	a902      	add	r1, sp, #8
 80029aa:	4608      	mov	r0, r1
 80029ac:	aa08      	add	r2, sp, #32
 80029ae:	f7fe fe4b 	bl	8001648 <curve25519_addPoint>
 80029b2:	a905      	add	r1, sp, #20
 80029b4:	aa0b      	add	r2, sp, #44	@ 0x2c
 80029b6:	4608      	mov	r0, r1
 80029b8:	f7fe fe46 	bl	8001648 <curve25519_addPoint>
 80029bc:	3c01      	subs	r4, #1
 80029be:	d2e6      	bcs.n	800298e <update_static_key_curve25519+0x8a>
 80029c0:	a83e      	add	r0, sp, #248	@ 0xf8
 80029c2:	f000 fba1 	bl	8003108 <fe25519_setzero>
 80029c6:	2208      	movs	r2, #8
 80029c8:	2300      	movs	r3, #0
 80029ca:	a83e      	add	r0, sp, #248	@ 0xf8
 80029cc:	f7fd ff9a 	bl	8000904 <randombytes>
 80029d0:	e9dd 323e 	ldrd	r3, r2, [sp, #248]	@ 0xf8
 80029d4:	4313      	orrs	r3, r2
 80029d6:	d0f6      	beq.n	80029c6 <update_static_key_curve25519+0xc2>
 80029d8:	2300      	movs	r3, #0
 80029da:	2240      	movs	r2, #64	@ 0x40
 80029dc:	a85e      	add	r0, sp, #376	@ 0x178
 80029de:	f7fd ff91 	bl	8000904 <randombytes>
 80029e2:	a95e      	add	r1, sp, #376	@ 0x178
 80029e4:	a856      	add	r0, sp, #344	@ 0x158
 80029e6:	f7fd fc4b 	bl	8000280 <fe25519_reduceTo256Bits_asm>
 80029ea:	aa56      	add	r2, sp, #344	@ 0x158
 80029ec:	a93e      	add	r1, sp, #248	@ 0xf8
 80029ee:	a84e      	add	r0, sp, #312	@ 0x138
 80029f0:	f000 ff9a 	bl	8003928 <sc25519_mul>
 80029f4:	a94e      	add	r1, sp, #312	@ 0x138
 80029f6:	4608      	mov	r0, r1
 80029f8:	f001 f8ae 	bl	8003b58 <sc25519_inverse>
 80029fc:	aa56      	add	r2, sp, #344	@ 0x158
 80029fe:	a94e      	add	r1, sp, #312	@ 0x138
 8002a00:	a846      	add	r0, sp, #280	@ 0x118
 8002a02:	f000 ff91 	bl	8003928 <sc25519_mul>
 8002a06:	490c      	ldr	r1, [pc, #48]	@ (8002a38 <update_static_key_curve25519+0x134>)
 8002a08:	aa46      	add	r2, sp, #280	@ 0x118
 8002a0a:	4608      	mov	r0, r1
 8002a0c:	f000 ff8c 	bl	8003928 <sc25519_mul>
 8002a10:	4909      	ldr	r1, [pc, #36]	@ (8002a38 <update_static_key_curve25519+0x134>)
 8002a12:	4a0a      	ldr	r2, [pc, #40]	@ (8002a3c <update_static_key_curve25519+0x138>)
 8002a14:	4608      	mov	r0, r1
 8002a16:	f000 ff87 	bl	8003928 <sc25519_mul>
 8002a1a:	4808      	ldr	r0, [pc, #32]	@ (8002a3c <update_static_key_curve25519+0x138>)
 8002a1c:	a93e      	add	r1, sp, #248	@ 0xf8
 8002a1e:	f000 feb7 	bl	8003790 <cpy_256bitvalue>
 8002a22:	b06f      	add	sp, #444	@ 0x1bc
 8002a24:	e8bd 8ff0 	ldmia.w	sp!, {r4, r5, r6, r7, r8, r9, sl, fp, pc}
 8002a28:	200000a0 	.word	0x200000a0
 8002a2c:	20000080 	.word	0x20000080
 8002a30:	20000020 	.word	0x20000020
 8002a34:	20000000 	.word	0x20000000
 8002a38:	200000e0 	.word	0x200000e0
 8002a3c:	200000c0 	.word	0x200000c0
 8002a40:	20000060 	.word	0x20000060
 8002a44:	20000040 	.word	0x20000040

08002a48 <set_static_key_curve25519>:
 8002a48:	e92d 4ff0 	stmdb	sp!, {r4, r5, r6, r7, r8, r9, sl, fp, lr}
 8002a4c:	b087      	sub	sp, #28
 8002a4e:	f100 3eff 	add.w	lr, r0, #4294967295	@ 0xffffffff
 8002a52:	9811      	ldr	r0, [sp, #68]	@ 0x44
 8002a54:	9c10      	ldr	r4, [sp, #64]	@ 0x40
 8002a56:	9003      	str	r0, [sp, #12]
 8002a58:	9812      	ldr	r0, [sp, #72]	@ 0x48
 8002a5a:	9004      	str	r0, [sp, #16]
 8002a5c:	9813      	ldr	r0, [sp, #76]	@ 0x4c
 8002a5e:	9005      	str	r0, [sp, #20]
 8002a60:	3b01      	subs	r3, #1
 8002a62:	4820      	ldr	r0, [pc, #128]	@ (8002ae4 <set_static_key_curve25519+0x9c>)
 8002a64:	f8df a090 	ldr.w	sl, [pc, #144]	@ 8002af8 <set_static_key_curve25519+0xb0>
 8002a68:	f8df 9090 	ldr.w	r9, [pc, #144]	@ 8002afc <set_static_key_curve25519+0xb4>
 8002a6c:	f8df 8090 	ldr.w	r8, [pc, #144]	@ 8002b00 <set_static_key_curve25519+0xb8>
 8002a70:	4f1d      	ldr	r7, [pc, #116]	@ (8002ae8 <set_static_key_curve25519+0xa0>)
 8002a72:	4e1e      	ldr	r6, [pc, #120]	@ (8002aec <set_static_key_curve25519+0xa4>)
 8002a74:	4d1e      	ldr	r5, [pc, #120]	@ (8002af0 <set_static_key_curve25519+0xa8>)
 8002a76:	9001      	str	r0, [sp, #4]
 8002a78:	f104 3cff 	add.w	ip, r4, #4294967295	@ 0xffffffff
 8002a7c:	4c1d      	ldr	r4, [pc, #116]	@ (8002af4 <set_static_key_curve25519+0xac>)
 8002a7e:	9302      	str	r3, [sp, #8]
 8002a80:	3901      	subs	r1, #1
 8002a82:	3a01      	subs	r2, #1
 8002a84:	2000      	movs	r0, #0
 8002a86:	f81e bf01 	ldrb.w	fp, [lr, #1]!
 8002a8a:	f80a bf01 	strb.w	fp, [sl, #1]!
 8002a8e:	f811 bf01 	ldrb.w	fp, [r1, #1]!
 8002a92:	f809 bf01 	strb.w	fp, [r9, #1]!
 8002a96:	f812 bf01 	ldrb.w	fp, [r2, #1]!
 8002a9a:	f808 bf01 	strb.w	fp, [r8, #1]!
 8002a9e:	9b02      	ldr	r3, [sp, #8]
 8002aa0:	f813 bf01 	ldrb.w	fp, [r3, #1]!
 8002aa4:	9302      	str	r3, [sp, #8]
 8002aa6:	9b01      	ldr	r3, [sp, #4]
 8002aa8:	f803 bf01 	strb.w	fp, [r3, #1]!
 8002aac:	f81c bf01 	ldrb.w	fp, [ip, #1]!
 8002ab0:	f807 bf01 	strb.w	fp, [r7, #1]!
 8002ab4:	9301      	str	r3, [sp, #4]
 8002ab6:	9b03      	ldr	r3, [sp, #12]
 8002ab8:	f813 b000 	ldrb.w	fp, [r3, r0]
 8002abc:	f806 bf01 	strb.w	fp, [r6, #1]!
 8002ac0:	9b04      	ldr	r3, [sp, #16]
 8002ac2:	f813 b000 	ldrb.w	fp, [r3, r0]
 8002ac6:	f805 bf01 	strb.w	fp, [r5, #1]!
 8002aca:	9b05      	ldr	r3, [sp, #20]
 8002acc:	f813 b000 	ldrb.w	fp, [r3, r0]
 8002ad0:	f804 bf01 	strb.w	fp, [r4, #1]!
 8002ad4:	3001      	adds	r0, #1
 8002ad6:	2820      	cmp	r0, #32
 8002ad8:	d1d5      	bne.n	8002a86 <set_static_key_curve25519+0x3e>
 8002ada:	b007      	add	sp, #28
 8002adc:	e8bd 4ff0 	ldmia.w	sp!, {r4, r5, r6, r7, r8, r9, sl, fp, lr}
 8002ae0:	f7ff bf10 	b.w	8002904 <update_static_key_curve25519>
 8002ae4:	2000003f 	.word	0x2000003f
 8002ae8:	2000001f 	.word	0x2000001f
 8002aec:	1fffffff 	.word	0x1fffffff
 8002af0:	200000df 	.word	0x200000df
 8002af4:	200000bf 	.word	0x200000bf
 8002af8:	2000009f 	.word	0x2000009f
 8002afc:	2000007f 	.word	0x2000007f
 8002b00:	2000005f 	.word	0x2000005f

08002b04 <crypto_scalarmult_curve25519>:
 8002b04:	e92d 43f0 	stmdb	sp!, {r4, r5, r6, r7, r8, r9, lr}
 8002b08:	f5ad 7d2b 	sub.w	sp, sp, #684	@ 0x2ac
 8002b0c:	f04f 33ff 	mov.w	r3, #4294967295	@ 0xffffffff
 8002b10:	9305      	str	r3, [sp, #20]
 8002b12:	2220      	movs	r2, #32
 8002b14:	2300      	movs	r3, #0
 8002b16:	2600      	movs	r6, #0
 8002b18:	4605      	mov	r5, r0
 8002b1a:	4688      	mov	r8, r1
 8002b1c:	9606      	str	r6, [sp, #24]
 8002b1e:	f7fd fef1 	bl	8000904 <randombytes>
 8002b22:	f7ff feef 	bl	8002904 <update_static_key_curve25519>
 8002b26:	4869      	ldr	r0, [pc, #420]	@ (8002ccc <crypto_scalarmult_curve25519+0x1c8>)
 8002b28:	f20d 247f 	addw	r4, sp, #639	@ 0x27f
 8002b2c:	f100 0720 	add.w	r7, r0, #32
 8002b30:	f810 3f01 	ldrb.w	r3, [r0, #1]!
 8002b34:	f804 3f01 	strb.w	r3, [r4, #1]!
 8002b38:	aa06      	add	r2, sp, #24
 8002b3a:	4633      	mov	r3, r6
 8002b3c:	6813      	ldr	r3, [r2, #0]
 8002b3e:	f103 0309 	add.w	r3, r3, #9
 8002b42:	6013      	str	r3, [r2, #0]
 8002b44:	4287      	cmp	r7, r0
 8002b46:	d1f3      	bne.n	8002b30 <crypto_scalarmult_curve25519+0x2c>
 8002b48:	4641      	mov	r1, r8
 8002b4a:	a870      	add	r0, sp, #448	@ 0x1c0
 8002b4c:	f000 fac2 	bl	80030d4 <fe25519_unpack>
 8002b50:	a888      	add	r0, sp, #544	@ 0x220
 8002b52:	f000 fadd 	bl	8003110 <fe25519_setone>
 8002b56:	a890      	add	r0, sp, #576	@ 0x240
 8002b58:	f000 fad6 	bl	8003108 <fe25519_setzero>
 8002b5c:	a970      	add	r1, sp, #448	@ 0x1c0
 8002b5e:	a878      	add	r0, sp, #480	@ 0x1e0
 8002b60:	f000 fac8 	bl	80030f4 <fe25519_cpy>
 8002b64:	a880      	add	r0, sp, #512	@ 0x200
 8002b66:	f000 fad3 	bl	8003110 <fe25519_setone>
 8002b6a:	ab06      	add	r3, sp, #24
 8002b6c:	681e      	ldr	r6, [r3, #0]
 8002b6e:	f106 0609 	add.w	r6, r6, #9
 8002b72:	601e      	str	r6, [r3, #0]
 8002b74:	ab78      	add	r3, sp, #480	@ 0x1e0
 8002b76:	9307      	str	r3, [sp, #28]
 8002b78:	ab80      	add	r3, sp, #512	@ 0x200
 8002b7a:	9309      	str	r3, [sp, #36]	@ 0x24
 8002b7c:	4b54      	ldr	r3, [pc, #336]	@ (8002cd0 <crypto_scalarmult_curve25519+0x1cc>)
 8002b7e:	930a      	str	r3, [sp, #40]	@ 0x28
 8002b80:	4b54      	ldr	r3, [pc, #336]	@ (8002cd4 <crypto_scalarmult_curve25519+0x1d0>)
 8002b82:	930b      	str	r3, [sp, #44]	@ 0x2c
 8002b84:	4b54      	ldr	r3, [pc, #336]	@ (8002cd8 <crypto_scalarmult_curve25519+0x1d4>)
 8002b86:	930c      	str	r3, [sp, #48]	@ 0x30
 8002b88:	a970      	add	r1, sp, #448	@ 0x1c0
 8002b8a:	ab10      	add	r3, sp, #64	@ 0x40
 8002b8c:	a860      	add	r0, sp, #384	@ 0x180
 8002b8e:	9308      	str	r3, [sp, #32]
 8002b90:	f7fd fc02 	bl	8000398 <fe25519_square_asm>
 8002b94:	aa70      	add	r2, sp, #448	@ 0x1c0
 8002b96:	a960      	add	r1, sp, #384	@ 0x180
 8002b98:	a858      	add	r0, sp, #352	@ 0x160
 8002b9a:	f7fd fccb 	bl	8000534 <fe25519_mul_asm>
 8002b9e:	a960      	add	r1, sp, #384	@ 0x180
 8002ba0:	4608      	mov	r0, r1
 8002ba2:	4a4e      	ldr	r2, [pc, #312]	@ (8002cdc <crypto_scalarmult_curve25519+0x1d8>)
 8002ba4:	f7fd fcc6 	bl	8000534 <fe25519_mul_asm>
 8002ba8:	2201      	movs	r2, #1
 8002baa:	ab58      	add	r3, sp, #352	@ 0x160
 8002bac:	4610      	mov	r0, r2
 8002bae:	a960      	add	r1, sp, #384	@ 0x180
 8002bb0:	469e      	mov	lr, r3
 8002bb2:	f8de 601c 	ldr.w	r6, [lr, #28]
 8002bb6:	69cc      	ldr	r4, [r1, #28]
 8002bb8:	4627      	mov	r7, r4
 8002bba:	fbe6 6760 	umaal	r6, r7, r6, r0
 8002bbe:	fbe4 6700 	umlal	r6, r7, r4, r0
 8002bc2:	f04f 0413 	mov.w	r4, #19
 8002bc6:	fb07 f404 	mul.w	r4, r7, r4
 8002bca:	f8de 7000 	ldr.w	r7, [lr]
 8002bce:	f8d1 c000 	ldr.w	ip, [r1]
 8002bd2:	fbe0 7c64 	umaal	r7, ip, r0, r4
 8002bd6:	601f      	str	r7, [r3, #0]
 8002bd8:	f8de 4004 	ldr.w	r4, [lr, #4]
 8002bdc:	684f      	ldr	r7, [r1, #4]
 8002bde:	fbe0 7c64 	umaal	r7, ip, r0, r4
 8002be2:	605f      	str	r7, [r3, #4]
 8002be4:	f8de 4008 	ldr.w	r4, [lr, #8]
 8002be8:	688f      	ldr	r7, [r1, #8]
 8002bea:	fbe0 7c64 	umaal	r7, ip, r0, r4
 8002bee:	609f      	str	r7, [r3, #8]
 8002bf0:	f8de 400c 	ldr.w	r4, [lr, #12]
 8002bf4:	68cf      	ldr	r7, [r1, #12]
 8002bf6:	fbe0 7c64 	umaal	r7, ip, r0, r4
 8002bfa:	60df      	str	r7, [r3, #12]
 8002bfc:	f8de 4010 	ldr.w	r4, [lr, #16]
 8002c00:	690f      	ldr	r7, [r1, #16]
 8002c02:	fbe0 7c64 	umaal	r7, ip, r0, r4
 8002c06:	611f      	str	r7, [r3, #16]
 8002c08:	f8de 4014 	ldr.w	r4, [lr, #20]
 8002c0c:	694f      	ldr	r7, [r1, #20]
 8002c0e:	fbe0 7c64 	umaal	r7, ip, r0, r4
 8002c12:	615f      	str	r7, [r3, #20]
 8002c14:	f8de 4018 	ldr.w	r4, [lr, #24]
 8002c18:	698f      	ldr	r7, [r1, #24]
 8002c1a:	fbe0 7c64 	umaal	r7, ip, r0, r4
 8002c1e:	619f      	str	r7, [r3, #24]
 8002c20:	eb0c 0c56 	add.w	ip, ip, r6, lsr #1
 8002c24:	f8c3 c01c 	str.w	ip, [r3, #28]
 8002c28:	ab58      	add	r3, sp, #352	@ 0x160
 8002c2a:	a970      	add	r1, sp, #448	@ 0x1c0
 8002c2c:	469c      	mov	ip, r3
 8002c2e:	f8dc 401c 	ldr.w	r4, [ip, #28]
 8002c32:	69c8      	ldr	r0, [r1, #28]
 8002c34:	4606      	mov	r6, r0
 8002c36:	fbe4 4662 	umaal	r4, r6, r4, r2
 8002c3a:	fbe0 4602 	umlal	r4, r6, r0, r2
 8002c3e:	f04f 0013 	mov.w	r0, #19
 8002c42:	fb06 f000 	mul.w	r0, r6, r0
 8002c46:	f8dc 6000 	ldr.w	r6, [ip]
 8002c4a:	680f      	ldr	r7, [r1, #0]
 8002c4c:	fbe2 6760 	umaal	r6, r7, r2, r0
 8002c50:	601e      	str	r6, [r3, #0]
 8002c52:	f8dc 0004 	ldr.w	r0, [ip, #4]
 8002c56:	684e      	ldr	r6, [r1, #4]
 8002c58:	fbe2 6760 	umaal	r6, r7, r2, r0
 8002c5c:	605e      	str	r6, [r3, #4]
 8002c5e:	f8dc 0008 	ldr.w	r0, [ip, #8]
 8002c62:	688e      	ldr	r6, [r1, #8]
 8002c64:	fbe2 6760 	umaal	r6, r7, r2, r0
 8002c68:	609e      	str	r6, [r3, #8]
 8002c6a:	f8dc 000c 	ldr.w	r0, [ip, #12]
 8002c6e:	68ce      	ldr	r6, [r1, #12]
 8002c70:	fbe2 6760 	umaal	r6, r7, r2, r0
 8002c74:	60de      	str	r6, [r3, #12]
 8002c76:	f8dc 0010 	ldr.w	r0, [ip, #16]
 8002c7a:	690e      	ldr	r6, [r1, #16]
 8002c7c:	fbe2 6760 	umaal	r6, r7, r2, r0
 8002c80:	611e      	str	r6, [r3, #16]
 8002c82:	f8dc 0014 	ldr.w	r0, [ip, #20]
 8002c86:	694e      	ldr	r6, [r1, #20]
 8002c88:	fbe2 6760 	umaal	r6, r7, r2, r0
 8002c8c:	615e      	str	r6, [r3, #20]
 8002c8e:	f8dc 0018 	ldr.w	r0, [ip, #24]
 8002c92:	698e      	ldr	r6, [r1, #24]
 8002c94:	fbe2 6760 	umaal	r6, r7, r2, r0
 8002c98:	619e      	str	r6, [r3, #24]
 8002c9a:	eb07 0754 	add.w	r7, r7, r4, lsr #1
 8002c9e:	61df      	str	r7, [r3, #28]
 8002ca0:	a958      	add	r1, sp, #352	@ 0x160
 8002ca2:	a810      	add	r0, sp, #64	@ 0x40
 8002ca4:	f000 fab0 	bl	8003208 <fe25519_squareroot>
 8002ca8:	b1d0      	cbz	r0, 8002ce0 <crypto_scalarmult_curve25519+0x1dc>
 8002caa:	f04f 33ff 	mov.w	r3, #4294967295	@ 0xffffffff
 8002cae:	9305      	str	r3, [sp, #20]
 8002cb0:	2220      	movs	r2, #32
 8002cb2:	2300      	movs	r3, #0
 8002cb4:	a878      	add	r0, sp, #480	@ 0x1e0
 8002cb6:	f7fd fe25 	bl	8000904 <randombytes>
 8002cba:	4628      	mov	r0, r5
 8002cbc:	a978      	add	r1, sp, #480	@ 0x1e0
 8002cbe:	f000 fa91 	bl	80031e4 <fe25519_pack>
 8002cc2:	9805      	ldr	r0, [sp, #20]
 8002cc4:	f50d 7d2b 	add.w	sp, sp, #684	@ 0x2ac
 8002cc8:	e8bd 83f0 	ldmia.w	sp!, {r4, r5, r6, r7, r8, r9, pc}
 8002ccc:	200000df 	.word	0x200000df
 8002cd0:	200000a0 	.word	0x200000a0
 8002cd4:	20000080 	.word	0x20000080
 8002cd8:	20000060 	.word	0x20000060
 8002cdc:	08003f40 	.word	0x08003f40
 8002ce0:	a907      	add	r1, sp, #28
 8002ce2:	aa0a      	add	r2, sp, #40	@ 0x28
 8002ce4:	4608      	mov	r0, r1
 8002ce6:	f7fe fcaf 	bl	8001648 <curve25519_addPoint>
 8002cea:	a907      	add	r1, sp, #28
 8002cec:	4608      	mov	r0, r1
 8002cee:	f7fd fe4f 	bl	8000990 <curve25519_doublePoint>
 8002cf2:	a907      	add	r1, sp, #28
 8002cf4:	4608      	mov	r0, r1
 8002cf6:	f7fd fe4b 	bl	8000990 <curve25519_doublePoint>
 8002cfa:	a907      	add	r1, sp, #28
 8002cfc:	4608      	mov	r0, r1
 8002cfe:	f7fd fe47 	bl	8000990 <curve25519_doublePoint>
 8002d02:	a898      	add	r0, sp, #608	@ 0x260
 8002d04:	f000 fa00 	bl	8003108 <fe25519_setzero>
 8002d08:	2208      	movs	r2, #8
 8002d0a:	2300      	movs	r3, #0
 8002d0c:	a898      	add	r0, sp, #608	@ 0x260
 8002d0e:	f7fd fdf9 	bl	8000904 <randombytes>
 8002d12:	e9dd 3298 	ldrd	r3, r2, [sp, #608]	@ 0x260
 8002d16:	4313      	orrs	r3, r2
 8002d18:	d0f6      	beq.n	8002d08 <crypto_scalarmult_curve25519+0x204>
 8002d1a:	2300      	movs	r3, #0
 8002d1c:	a860      	add	r0, sp, #384	@ 0x180
 8002d1e:	2240      	movs	r2, #64	@ 0x40
 8002d20:	f7fd fdf0 	bl	8000904 <randombytes>
 8002d24:	a960      	add	r1, sp, #384	@ 0x180
 8002d26:	a830      	add	r0, sp, #192	@ 0xc0
 8002d28:	f7fd faaa 	bl	8000280 <fe25519_reduceTo256Bits_asm>
 8002d2c:	aa30      	add	r2, sp, #192	@ 0xc0
 8002d2e:	a998      	add	r1, sp, #608	@ 0x260
 8002d30:	a820      	add	r0, sp, #128	@ 0x80
 8002d32:	f000 fdf9 	bl	8003928 <sc25519_mul>
 8002d36:	a920      	add	r1, sp, #128	@ 0x80
 8002d38:	4608      	mov	r0, r1
 8002d3a:	f000 ff0d 	bl	8003b58 <sc25519_inverse>
 8002d3e:	aca0      	add	r4, sp, #640	@ 0x280
 8002d40:	aa30      	add	r2, sp, #192	@ 0xc0
 8002d42:	a920      	add	r1, sp, #128	@ 0x80
 8002d44:	a828      	add	r0, sp, #160	@ 0xa0
 8002d46:	f000 fdef 	bl	8003928 <sc25519_mul>
 8002d4a:	aa28      	add	r2, sp, #160	@ 0xa0
 8002d4c:	4621      	mov	r1, r4
 8002d4e:	4620      	mov	r0, r4
 8002d50:	f000 fdea 	bl	8003928 <sc25519_mul>
 8002d54:	4ab2      	ldr	r2, [pc, #712]	@ (8003020 <crypto_scalarmult_curve25519+0x51c>)
 8002d56:	4621      	mov	r1, r4
 8002d58:	4620      	mov	r0, r4
 8002d5a:	f000 fde5 	bl	8003928 <sc25519_mul>
 8002d5e:	2300      	movs	r3, #0
 8002d60:	aa06      	add	r2, sp, #24
 8002d62:	6813      	ldr	r3, [r2, #0]
 8002d64:	f103 03a3 	add.w	r3, r3, #163	@ 0xa3
 8002d68:	6013      	str	r3, [r2, #0]
 8002d6a:	a980      	add	r1, sp, #512	@ 0x200
 8002d6c:	ab70      	add	r3, sp, #448	@ 0x1c0
 8002d6e:	4608      	mov	r0, r1
 8002d70:	9300      	str	r3, [sp, #0]
 8002d72:	aa88      	add	r2, sp, #544	@ 0x220
 8002d74:	ab90      	add	r3, sp, #576	@ 0x240
 8002d76:	f000 fb95 	bl	80034a4 <fe25519_invert_useProvidedScratchBuffers>
 8002d7a:	a978      	add	r1, sp, #480	@ 0x1e0
 8002d7c:	4608      	mov	r0, r1
 8002d7e:	aa80      	add	r2, sp, #512	@ 0x200
 8002d80:	f7fd fbd8 	bl	8000534 <fe25519_mul_asm>
 8002d84:	a878      	add	r0, sp, #480	@ 0x1e0
 8002d86:	f000 f9fb 	bl	8003180 <fe25519_reduceCompletely>
 8002d8a:	a910      	add	r1, sp, #64	@ 0x40
 8002d8c:	aa80      	add	r2, sp, #512	@ 0x200
 8002d8e:	4608      	mov	r0, r1
 8002d90:	f7fd fbd0 	bl	8000534 <fe25519_mul_asm>
 8002d94:	a978      	add	r1, sp, #480	@ 0x1e0
 8002d96:	a870      	add	r0, sp, #448	@ 0x1c0
 8002d98:	f000 f9ac 	bl	80030f4 <fe25519_cpy>
 8002d9c:	2240      	movs	r2, #64	@ 0x40
 8002d9e:	2300      	movs	r3, #0
 8002da0:	a860      	add	r0, sp, #384	@ 0x180
 8002da2:	f7fd fdaf 	bl	8000904 <randombytes>
 8002da6:	a960      	add	r1, sp, #384	@ 0x180
 8002da8:	a890      	add	r0, sp, #576	@ 0x240
 8002daa:	f7fd fa69 	bl	8000280 <fe25519_reduceTo256Bits_asm>
 8002dae:	a890      	add	r0, sp, #576	@ 0x240
 8002db0:	f000 f9e6 	bl	8003180 <fe25519_reduceCompletely>
 8002db4:	f89d 325f 	ldrb.w	r3, [sp, #607]	@ 0x25f
 8002db8:	a990      	add	r1, sp, #576	@ 0x240
 8002dba:	f063 037f 	orn	r3, r3, #127	@ 0x7f
 8002dbe:	aa70      	add	r2, sp, #448	@ 0x1c0
 8002dc0:	a888      	add	r0, sp, #544	@ 0x220
 8002dc2:	f88d 325f 	strb.w	r3, [sp, #607]	@ 0x25f
 8002dc6:	f7fd fbb5 	bl	8000534 <fe25519_mul_asm>
 8002dca:	a878      	add	r0, sp, #480	@ 0x1e0
 8002dcc:	f000 f9a0 	bl	8003110 <fe25519_setone>
 8002dd0:	a880      	add	r0, sp, #512	@ 0x200
 8002dd2:	f000 f999 	bl	8003108 <fe25519_setzero>
 8002dd6:	23fd      	movs	r3, #253	@ 0xfd
 8002dd8:	93a8      	str	r3, [sp, #672]	@ 0x2a0
 8002dda:	a9a7      	add	r1, sp, #668	@ 0x29c
 8002ddc:	680a      	ldr	r2, [r1, #0]
 8002dde:	f851 3d04 	ldr.w	r3, [r1, #-4]!
 8002de2:	0c1b      	lsrs	r3, r3, #16
 8002de4:	ea43 4302 	orr.w	r3, r3, r2, lsl #16
 8002de8:	ea83 0343 	eor.w	r3, r3, r3, lsl #1
 8002dec:	ea82 0242 	eor.w	r2, r2, r2, lsl #1
 8002df0:	0c12      	lsrs	r2, r2, #16
 8002df2:	0c1b      	lsrs	r3, r3, #16
 8002df4:	428c      	cmp	r4, r1
 8002df6:	80ca      	strh	r2, [r1, #6]
 8002df8:	808b      	strh	r3, [r1, #4]
 8002dfa:	d1ef      	bne.n	8002ddc <crypto_scalarmult_curve25519+0x2d8>
 8002dfc:	9ba0      	ldr	r3, [sp, #640]	@ 0x280
 8002dfe:	ea83 0343 	eor.w	r3, r3, r3, lsl #1
 8002e02:	2220      	movs	r2, #32
 8002e04:	93a0      	str	r3, [sp, #640]	@ 0x280
 8002e06:	a838      	add	r0, sp, #224	@ 0xe0
 8002e08:	2300      	movs	r3, #0
 8002e0a:	f7fd fd7b 	bl	8000904 <randombytes>
 8002e0e:	f89d 30ff 	ldrb.w	r3, [sp, #255]	@ 0xff
 8002e12:	ae40      	add	r6, sp, #256	@ 0x100
 8002e14:	f003 033f 	and.w	r3, r3, #63	@ 0x3f
 8002e18:	4630      	mov	r0, r6
 8002e1a:	a938      	add	r1, sp, #224	@ 0xe0
 8002e1c:	f88d 30ff 	strb.w	r3, [sp, #255]	@ 0xff
 8002e20:	f000 fcb6 	bl	8003790 <cpy_256bitvalue>
 8002e24:	69f3      	ldr	r3, [r6, #28]
 8002e26:	005b      	lsls	r3, r3, #1
 8002e28:	61f3      	str	r3, [r6, #28]
 8002e2a:	aa47      	add	r2, sp, #284	@ 0x11c
 8002e2c:	a8a8      	add	r0, sp, #672	@ 0x2a0
 8002e2e:	4634      	mov	r4, r6
 8002e30:	f852 1d04 	ldr.w	r1, [r2, #-4]!
 8002e34:	f854 7d04 	ldr.w	r7, [r4, #-4]!
 8002e38:	ea43 73d1 	orr.w	r3, r3, r1, lsr #31
 8002e3c:	6053      	str	r3, [r2, #4]
 8002e3e:	004b      	lsls	r3, r1, #1
 8002e40:	f850 1d04 	ldr.w	r1, [r0, #-4]!
 8002e44:	6013      	str	r3, [r2, #0]
 8002e46:	4079      	eors	r1, r7
 8002e48:	42b2      	cmp	r2, r6
 8002e4a:	6001      	str	r1, [r0, #0]
 8002e4c:	d1f0      	bne.n	8002e30 <crypto_scalarmult_curve25519+0x32c>
 8002e4e:	9a38      	ldr	r2, [sp, #224]	@ 0xe0
 8002e50:	9ba0      	ldr	r3, [sp, #640]	@ 0x280
 8002e52:	f04f 0800 	mov.w	r8, #0
 8002e56:	4053      	eors	r3, r2
 8002e58:	93a0      	str	r3, [sp, #640]	@ 0x280
 8002e5a:	aa06      	add	r2, sp, #24
 8002e5c:	4643      	mov	r3, r8
 8002e5e:	6813      	ldr	r3, [r2, #0]
 8002e60:	f103 03a3 	add.w	r3, r3, #163	@ 0xa3
 8002e64:	6013      	str	r3, [r2, #0]
 8002e66:	221e      	movs	r2, #30
 8002e68:	69f1      	ldr	r1, [r6, #28]
 8002e6a:	a870      	add	r0, sp, #448	@ 0x1c0
 8002e6c:	f7ff fd22 	bl	80028b4 <maskScalarBitsWithRandomAndCswap>
 8002e70:	9ca8      	ldr	r4, [sp, #672]	@ 0x2a0
 8002e72:	4544      	cmp	r4, r8
 8002e74:	db13      	blt.n	8002e9e <crypto_scalarmult_curve25519+0x39a>
 8002e76:	f3c4 1747 	ubfx	r7, r4, #5, #8
 8002e7a:	abaa      	add	r3, sp, #680	@ 0x2a8
 8002e7c:	eb03 0387 	add.w	r3, r3, r7, lsl #2
 8002e80:	f004 041f 	and.w	r4, r4, #31
 8002e84:	f853 1c28 	ldr.w	r1, [r3, #-40]
 8002e88:	a870      	add	r0, sp, #448	@ 0x1c0
 8002e8a:	4622      	mov	r2, r4
 8002e8c:	f7ff fd12 	bl	80028b4 <maskScalarBitsWithRandomAndCswap>
 8002e90:	9ba8      	ldr	r3, [sp, #672]	@ 0x2a0
 8002e92:	2b00      	cmp	r3, #0
 8002e94:	a870      	add	r0, sp, #448	@ 0x1c0
 8002e96:	f300 80f3 	bgt.w	8003080 <crypto_scalarmult_curve25519+0x57c>
 8002e9a:	3b01      	subs	r3, #1
 8002e9c:	93a8      	str	r3, [sp, #672]	@ 0x2a0
 8002e9e:	ab10      	add	r3, sp, #64	@ 0x40
 8002ea0:	9302      	str	r3, [sp, #8]
 8002ea2:	ab70      	add	r3, sp, #448	@ 0x1c0
 8002ea4:	af18      	add	r7, sp, #96	@ 0x60
 8002ea6:	9301      	str	r3, [sp, #4]
 8002ea8:	ab90      	add	r3, sp, #576	@ 0x240
 8002eaa:	9300      	str	r3, [sp, #0]
 8002eac:	aa80      	add	r2, sp, #512	@ 0x200
 8002eae:	ab88      	add	r3, sp, #544	@ 0x220
 8002eb0:	a978      	add	r1, sp, #480	@ 0x1e0
 8002eb2:	4638      	mov	r0, r7
 8002eb4:	f7ff fa30 	bl	8002318 <computeY_curve25519_projective>
 8002eb8:	a980      	add	r1, sp, #512	@ 0x200
 8002eba:	ab70      	add	r3, sp, #448	@ 0x1c0
 8002ebc:	9300      	str	r3, [sp, #0]
 8002ebe:	aa88      	add	r2, sp, #544	@ 0x220
 8002ec0:	ab90      	add	r3, sp, #576	@ 0x240
 8002ec2:	4608      	mov	r0, r1
 8002ec4:	f000 faee 	bl	80034a4 <fe25519_invert_useProvidedScratchBuffers>
 8002ec8:	a978      	add	r1, sp, #480	@ 0x1e0
 8002eca:	aa80      	add	r2, sp, #512	@ 0x200
 8002ecc:	4608      	mov	r0, r1
 8002ece:	f7fd fb31 	bl	8000534 <fe25519_mul_asm>
 8002ed2:	a878      	add	r0, sp, #480	@ 0x1e0
 8002ed4:	f000 f954 	bl	8003180 <fe25519_reduceCompletely>
 8002ed8:	aa80      	add	r2, sp, #512	@ 0x200
 8002eda:	4639      	mov	r1, r7
 8002edc:	4638      	mov	r0, r7
 8002ede:	f7fd fb29 	bl	8000534 <fe25519_mul_asm>
 8002ee2:	a978      	add	r1, sp, #480	@ 0x1e0
 8002ee4:	a870      	add	r0, sp, #448	@ 0x1c0
 8002ee6:	f000 f905 	bl	80030f4 <fe25519_cpy>
 8002eea:	2240      	movs	r2, #64	@ 0x40
 8002eec:	2300      	movs	r3, #0
 8002eee:	a860      	add	r0, sp, #384	@ 0x180
 8002ef0:	f7fd fd08 	bl	8000904 <randombytes>
 8002ef4:	a960      	add	r1, sp, #384	@ 0x180
 8002ef6:	a890      	add	r0, sp, #576	@ 0x240
 8002ef8:	f7fd f9c2 	bl	8000280 <fe25519_reduceTo256Bits_asm>
 8002efc:	a890      	add	r0, sp, #576	@ 0x240
 8002efe:	f000 f93f 	bl	8003180 <fe25519_reduceCompletely>
 8002f02:	f89d 325f 	ldrb.w	r3, [sp, #607]	@ 0x25f
 8002f06:	aa70      	add	r2, sp, #448	@ 0x1c0
 8002f08:	f063 037f 	orn	r3, r3, #127	@ 0x7f
 8002f0c:	a990      	add	r1, sp, #576	@ 0x240
 8002f0e:	a888      	add	r0, sp, #544	@ 0x220
 8002f10:	f88d 325f 	strb.w	r3, [sp, #607]	@ 0x25f
 8002f14:	f7fd fb0e 	bl	8000534 <fe25519_mul_asm>
 8002f18:	a878      	add	r0, sp, #480	@ 0x1e0
 8002f1a:	f000 f8f9 	bl	8003110 <fe25519_setone>
 8002f1e:	a880      	add	r0, sp, #512	@ 0x200
 8002f20:	f000 f8f2 	bl	8003108 <fe25519_setzero>
 8002f24:	2340      	movs	r3, #64	@ 0x40
 8002f26:	93a8      	str	r3, [sp, #672]	@ 0x2a0
 8002f28:	e9dd 3198 	ldrd	r3, r1, [sp, #608]	@ 0x260
 8002f2c:	989a      	ldr	r0, [sp, #616]	@ 0x268
 8002f2e:	0fca      	lsrs	r2, r1, #31
 8002f30:	ea42 0240 	orr.w	r2, r2, r0, lsl #1
 8002f34:	4042      	eors	r2, r0
 8002f36:	929a      	str	r2, [sp, #616]	@ 0x268
 8002f38:	0fda      	lsrs	r2, r3, #31
 8002f3a:	ea42 0241 	orr.w	r2, r2, r1, lsl #1
 8002f3e:	404a      	eors	r2, r1
 8002f40:	ea83 0343 	eor.w	r3, r3, r3, lsl #1
 8002f44:	a848      	add	r0, sp, #288	@ 0x120
 8002f46:	9299      	str	r2, [sp, #612]	@ 0x264
 8002f48:	9398      	str	r3, [sp, #608]	@ 0x260
 8002f4a:	f000 f8dd 	bl	8003108 <fe25519_setzero>
 8002f4e:	a848      	add	r0, sp, #288	@ 0x120
 8002f50:	220c      	movs	r2, #12
 8002f52:	2300      	movs	r3, #0
 8002f54:	f7fd fcd6 	bl	8000904 <randombytes>
 8002f58:	f89d 3122 	ldrb.w	r3, [sp, #290]	@ 0x122
 8002f5c:	ac50      	add	r4, sp, #320	@ 0x140
 8002f5e:	f003 0301 	and.w	r3, r3, #1
 8002f62:	a948      	add	r1, sp, #288	@ 0x120
 8002f64:	4620      	mov	r0, r4
 8002f66:	f88d 3122 	strb.w	r3, [sp, #290]	@ 0x122
 8002f6a:	f000 fc11 	bl	8003790 <cpy_256bitvalue>
 8002f6e:	9a9a      	ldr	r2, [sp, #616]	@ 0x268
 8002f70:	9b4a      	ldr	r3, [sp, #296]	@ 0x128
 8002f72:	405a      	eors	r2, r3
 8002f74:	929a      	str	r2, [sp, #616]	@ 0x268
 8002f76:	9b98      	ldr	r3, [sp, #608]	@ 0x260
 8002f78:	9a48      	ldr	r2, [sp, #288]	@ 0x120
 8002f7a:	4053      	eors	r3, r2
 8002f7c:	e9d4 1000 	ldrd	r1, r0, [r4]
 8002f80:	9a99      	ldr	r2, [sp, #612]	@ 0x264
 8002f82:	9398      	str	r3, [sp, #608]	@ 0x260
 8002f84:	9b49      	ldr	r3, [sp, #292]	@ 0x124
 8002f86:	4053      	eors	r3, r2
 8002f88:	68a2      	ldr	r2, [r4, #8]
 8002f8a:	9399      	str	r3, [sp, #612]	@ 0x264
 8002f8c:	0fc3      	lsrs	r3, r0, #31
 8002f8e:	ea43 0342 	orr.w	r3, r3, r2, lsl #1
 8002f92:	60a3      	str	r3, [r4, #8]
 8002f94:	0fcb      	lsrs	r3, r1, #31
 8002f96:	ea43 0340 	orr.w	r3, r3, r0, lsl #1
 8002f9a:	2600      	movs	r6, #0
 8002f9c:	6063      	str	r3, [r4, #4]
 8002f9e:	004b      	lsls	r3, r1, #1
 8002fa0:	6023      	str	r3, [r4, #0]
 8002fa2:	46b6      	mov	lr, r6
 8002fa4:	ab06      	add	r3, sp, #24
 8002fa6:	f8d3 e000 	ldr.w	lr, [r3]
 8002faa:	f10e 0ea3 	add.w	lr, lr, #163	@ 0xa3
 8002fae:	f8c3 e000 	str.w	lr, [r3]
 8002fb2:	2201      	movs	r2, #1
 8002fb4:	68a1      	ldr	r1, [r4, #8]
 8002fb6:	a870      	add	r0, sp, #448	@ 0x1c0
 8002fb8:	f7ff fc7c 	bl	80028b4 <maskScalarBitsWithRandomAndCswap>
 8002fbc:	9aa8      	ldr	r2, [sp, #672]	@ 0x2a0
 8002fbe:	42b2      	cmp	r2, r6
 8002fc0:	db12      	blt.n	8002fe8 <crypto_scalarmult_curve25519+0x4e4>
 8002fc2:	f3c2 1947 	ubfx	r9, r2, #5, #8
 8002fc6:	abaa      	add	r3, sp, #680	@ 0x2a8
 8002fc8:	eb03 0389 	add.w	r3, r3, r9, lsl #2
 8002fcc:	f002 081f 	and.w	r8, r2, #31
 8002fd0:	f853 1c48 	ldr.w	r1, [r3, #-72]
 8002fd4:	a870      	add	r0, sp, #448	@ 0x1c0
 8002fd6:	4642      	mov	r2, r8
 8002fd8:	f7ff fc6c 	bl	80028b4 <maskScalarBitsWithRandomAndCswap>
 8002fdc:	9ba8      	ldr	r3, [sp, #672]	@ 0x2a0
 8002fde:	2b00      	cmp	r3, #0
 8002fe0:	a870      	add	r0, sp, #448	@ 0x1c0
 8002fe2:	dc62      	bgt.n	80030aa <crypto_scalarmult_curve25519+0x5a6>
 8002fe4:	3b01      	subs	r3, #1
 8002fe6:	93a8      	str	r3, [sp, #672]	@ 0x2a0
 8002fe8:	ab70      	add	r3, sp, #448	@ 0x1c0
 8002fea:	9301      	str	r3, [sp, #4]
 8002fec:	ab90      	add	r3, sp, #576	@ 0x240
 8002fee:	aa80      	add	r2, sp, #512	@ 0x200
 8002ff0:	9300      	str	r3, [sp, #0]
 8002ff2:	a978      	add	r1, sp, #480	@ 0x1e0
 8002ff4:	ab88      	add	r3, sp, #544	@ 0x220
 8002ff6:	a810      	add	r0, sp, #64	@ 0x40
 8002ff8:	9702      	str	r7, [sp, #8]
 8002ffa:	f7ff f98d 	bl	8002318 <computeY_curve25519_projective>
 8002ffe:	ab10      	add	r3, sp, #64	@ 0x40
 8003000:	9308      	str	r3, [sp, #32]
 8003002:	ab78      	add	r3, sp, #480	@ 0x1e0
 8003004:	9307      	str	r3, [sp, #28]
 8003006:	ab80      	add	r3, sp, #512	@ 0x200
 8003008:	9309      	str	r3, [sp, #36]	@ 0x24
 800300a:	ab58      	add	r3, sp, #352	@ 0x160
 800300c:	930e      	str	r3, [sp, #56]	@ 0x38
 800300e:	4b05      	ldr	r3, [pc, #20]	@ (8003024 <crypto_scalarmult_curve25519+0x520>)
 8003010:	930d      	str	r3, [sp, #52]	@ 0x34
 8003012:	a858      	add	r0, sp, #352	@ 0x160
 8003014:	4b04      	ldr	r3, [pc, #16]	@ (8003028 <crypto_scalarmult_curve25519+0x524>)
 8003016:	4905      	ldr	r1, [pc, #20]	@ (800302c <crypto_scalarmult_curve25519+0x528>)
 8003018:	930f      	str	r3, [sp, #60]	@ 0x3c
 800301a:	f000 f86b 	bl	80030f4 <fe25519_cpy>
 800301e:	e007      	b.n	8003030 <crypto_scalarmult_curve25519+0x52c>
 8003020:	200000c0 	.word	0x200000c0
 8003024:	20000040 	.word	0x20000040
 8003028:	20000000 	.word	0x20000000
 800302c:	20000020 	.word	0x20000020
 8003030:	a958      	add	r1, sp, #352	@ 0x160
 8003032:	4608      	mov	r0, r1
 8003034:	f000 f880 	bl	8003138 <fe25519_neg>
 8003038:	a907      	add	r1, sp, #28
 800303a:	aa0d      	add	r2, sp, #52	@ 0x34
 800303c:	4608      	mov	r0, r1
 800303e:	f7fe fb03 	bl	8001648 <curve25519_addPoint>
 8003042:	a980      	add	r1, sp, #512	@ 0x200
 8003044:	ab70      	add	r3, sp, #448	@ 0x1c0
 8003046:	9300      	str	r3, [sp, #0]
 8003048:	aa88      	add	r2, sp, #544	@ 0x220
 800304a:	ab90      	add	r3, sp, #576	@ 0x240
 800304c:	4608      	mov	r0, r1
 800304e:	f000 fa29 	bl	80034a4 <fe25519_invert_useProvidedScratchBuffers>
 8003052:	a978      	add	r1, sp, #480	@ 0x1e0
 8003054:	aa80      	add	r2, sp, #512	@ 0x200
 8003056:	4608      	mov	r0, r1
 8003058:	f7fd fa6c 	bl	8000534 <fe25519_mul_asm>
 800305c:	a878      	add	r0, sp, #480	@ 0x1e0
 800305e:	f000 f88f 	bl	8003180 <fe25519_reduceCompletely>
 8003062:	2100      	movs	r1, #0
 8003064:	460b      	mov	r3, r1
 8003066:	aa06      	add	r2, sp, #24
 8003068:	6813      	ldr	r3, [r2, #0]
 800306a:	f103 03a3 	add.w	r3, r3, #163	@ 0xa3
 800306e:	6013      	str	r3, [r2, #0]
 8003070:	9a06      	ldr	r2, [sp, #24]
 8003072:	f640 63da 	movw	r3, #3802	@ 0xeda
 8003076:	429a      	cmp	r2, r3
 8003078:	f47f ae17 	bne.w	8002caa <crypto_scalarmult_curve25519+0x1a6>
 800307c:	9105      	str	r1, [sp, #20]
 800307e:	e61c      	b.n	8002cba <crypto_scalarmult_curve25519+0x1b6>
 8003080:	f7fe fe6e 	bl	8001d60 <curve25519_ladderstep>
 8003084:	4643      	mov	r3, r8
 8003086:	aa06      	add	r2, sp, #24
 8003088:	6813      	ldr	r3, [r2, #0]
 800308a:	f103 0309 	add.w	r3, r3, #9
 800308e:	6013      	str	r3, [r2, #0]
 8003090:	4622      	mov	r2, r4
 8003092:	f856 1027 	ldr.w	r1, [r6, r7, lsl #2]
 8003096:	a870      	add	r0, sp, #448	@ 0x1c0
 8003098:	f7ff fc0c 	bl	80028b4 <maskScalarBitsWithRandomAndCswap>
 800309c:	9aa8      	ldr	r2, [sp, #672]	@ 0x2a0
 800309e:	1e54      	subs	r4, r2, #1
 80030a0:	2c00      	cmp	r4, #0
 80030a2:	94a8      	str	r4, [sp, #672]	@ 0x2a0
 80030a4:	f6bf aee7 	bge.w	8002e76 <crypto_scalarmult_curve25519+0x372>
 80030a8:	e6f9      	b.n	8002e9e <crypto_scalarmult_curve25519+0x39a>
 80030aa:	f7fe fe59 	bl	8001d60 <curve25519_ladderstep>
 80030ae:	4633      	mov	r3, r6
 80030b0:	aa06      	add	r2, sp, #24
 80030b2:	6813      	ldr	r3, [r2, #0]
 80030b4:	f103 0309 	add.w	r3, r3, #9
 80030b8:	6013      	str	r3, [r2, #0]
 80030ba:	4642      	mov	r2, r8
 80030bc:	f854 1029 	ldr.w	r1, [r4, r9, lsl #2]
 80030c0:	a870      	add	r0, sp, #448	@ 0x1c0
 80030c2:	f7ff fbf7 	bl	80028b4 <maskScalarBitsWithRandomAndCswap>
 80030c6:	9aa8      	ldr	r2, [sp, #672]	@ 0x2a0
 80030c8:	3a01      	subs	r2, #1
 80030ca:	2a00      	cmp	r2, #0
 80030cc:	92a8      	str	r2, [sp, #672]	@ 0x2a0
 80030ce:	f6bf af78 	bge.w	8002fc2 <crypto_scalarmult_curve25519+0x4be>
 80030d2:	e789      	b.n	8002fe8 <crypto_scalarmult_curve25519+0x4e4>

080030d4 <fe25519_unpack>:
 80030d4:	1e4b      	subs	r3, r1, #1
 80030d6:	1e42      	subs	r2, r0, #1
 80030d8:	f101 0c1f 	add.w	ip, r1, #31
 80030dc:	f813 1f01 	ldrb.w	r1, [r3, #1]!
 80030e0:	f802 1f01 	strb.w	r1, [r2, #1]!
 80030e4:	4563      	cmp	r3, ip
 80030e6:	d1f9      	bne.n	80030dc <fe25519_unpack+0x8>
 80030e8:	7fc3      	ldrb	r3, [r0, #31]
 80030ea:	f003 037f 	and.w	r3, r3, #127	@ 0x7f
 80030ee:	77c3      	strb	r3, [r0, #31]
 80030f0:	4770      	bx	lr
 80030f2:	bf00      	nop

080030f4 <fe25519_cpy>:
 80030f4:	1f0b      	subs	r3, r1, #4
 80030f6:	3804      	subs	r0, #4
 80030f8:	311c      	adds	r1, #28
 80030fa:	f853 2f04 	ldr.w	r2, [r3, #4]!
 80030fe:	f840 2f04 	str.w	r2, [r0, #4]!
 8003102:	428b      	cmp	r3, r1
 8003104:	d1f9      	bne.n	80030fa <fe25519_cpy+0x6>
 8003106:	4770      	bx	lr

08003108 <fe25519_setzero>:
 8003108:	2220      	movs	r2, #32
 800310a:	2100      	movs	r1, #0
 800310c:	f000 bdf6 	b.w	8003cfc <memset>

08003110 <fe25519_setone>:
 8003110:	ed9f 7b07 	vldr	d7, [pc, #28]	@ 8003130 <fe25519_setone+0x20>
 8003114:	2200      	movs	r2, #0
 8003116:	2300      	movs	r3, #0
 8003118:	ed80 7b00 	vstr	d7, [r0]
 800311c:	e9c0 2302 	strd	r2, r3, [r0, #8]
 8003120:	e9c0 2304 	strd	r2, r3, [r0, #16]
 8003124:	e9c0 2306 	strd	r2, r3, [r0, #24]
 8003128:	4770      	bx	lr
 800312a:	bf00      	nop
 800312c:	f3af 8000 	nop.w
 8003130:	00000001 	.word	0x00000001
 8003134:	00000000 	.word	0x00000000

08003138 <fe25519_neg>:
 8003138:	69cb      	ldr	r3, [r1, #28]
 800313a:	425b      	negs	r3, r3
 800313c:	b530      	push	{r4, r5, lr}
 800313e:	eb62 0202 	sbc.w	r2, r2, r2
 8003142:	f043 4500 	orr.w	r5, r3, #2147483648	@ 0x80000000
 8003146:	0fdb      	lsrs	r3, r3, #31
 8003148:	ea43 0342 	orr.w	r3, r3, r2, lsl #1
 800314c:	3b01      	subs	r3, #1
 800314e:	eb03 02c3 	add.w	r2, r3, r3, lsl #3
 8003152:	eb03 0342 	add.w	r3, r3, r2, lsl #1
 8003156:	f1a1 0c04 	sub.w	ip, r1, #4
 800315a:	17dc      	asrs	r4, r3, #31
 800315c:	3118      	adds	r1, #24
 800315e:	f1a0 0e04 	sub.w	lr, r0, #4
 8003162:	f85c 2f04 	ldr.w	r2, [ip, #4]!
 8003166:	1a9a      	subs	r2, r3, r2
 8003168:	f164 0300 	sbc.w	r3, r4, #0
 800316c:	458c      	cmp	ip, r1
 800316e:	f84e 2f04 	str.w	r2, [lr, #4]!
 8003172:	ea4f 74e3 	mov.w	r4, r3, asr #31
 8003176:	d1f4      	bne.n	8003162 <fe25519_neg+0x2a>
 8003178:	18ed      	adds	r5, r5, r3
 800317a:	61c5      	str	r5, [r0, #28]
 800317c:	bd30      	pop	{r4, r5, pc}
 800317e:	bf00      	nop

08003180 <fe25519_reduceCompletely>:
 8003180:	b570      	push	{r4, r5, r6, lr}
 8003182:	69c4      	ldr	r4, [r0, #28]
 8003184:	0fe3      	lsrs	r3, r4, #31
 8003186:	3301      	adds	r3, #1
 8003188:	2100      	movs	r1, #0
 800318a:	eb03 02c3 	add.w	r2, r3, r3, lsl #3
 800318e:	f1a0 0c04 	sub.w	ip, r0, #4
 8003192:	eb03 0342 	add.w	r3, r3, r2, lsl #1
 8003196:	f100 0e18 	add.w	lr, r0, #24
 800319a:	4665      	mov	r5, ip
 800319c:	460e      	mov	r6, r1
 800319e:	f855 2f04 	ldr.w	r2, [r5, #4]!
 80031a2:	18d2      	adds	r2, r2, r3
 80031a4:	f141 0300 	adc.w	r3, r1, #0
 80031a8:	4575      	cmp	r5, lr
 80031aa:	f04f 0100 	mov.w	r1, #0
 80031ae:	d1f6      	bne.n	800319e <fe25519_reduceCompletely+0x1e>
 80031b0:	18e3      	adds	r3, r4, r3
 80031b2:	4176      	adcs	r6, r6
 80031b4:	0fdb      	lsrs	r3, r3, #31
 80031b6:	ea43 0346 	orr.w	r3, r3, r6, lsl #1
 80031ba:	eb03 02c3 	add.w	r2, r3, r3, lsl #3
 80031be:	eb03 0342 	add.w	r3, r3, r2, lsl #1
 80031c2:	f85c 2f04 	ldr.w	r2, [ip, #4]!
 80031c6:	18d2      	adds	r2, r2, r3
 80031c8:	f141 0300 	adc.w	r3, r1, #0
 80031cc:	45f4      	cmp	ip, lr
 80031ce:	f8cc 2000 	str.w	r2, [ip]
 80031d2:	f04f 0100 	mov.w	r1, #0
 80031d6:	d1f4      	bne.n	80031c2 <fe25519_reduceCompletely+0x42>
 80031d8:	18e4      	adds	r4, r4, r3
 80031da:	f024 4400 	bic.w	r4, r4, #2147483648	@ 0x80000000
 80031de:	61c4      	str	r4, [r0, #28]
 80031e0:	bd70      	pop	{r4, r5, r6, pc}
 80031e2:	bf00      	nop

080031e4 <fe25519_pack>:
 80031e4:	b510      	push	{r4, lr}
 80031e6:	4604      	mov	r4, r0
 80031e8:	4608      	mov	r0, r1
 80031ea:	f7ff ffc9 	bl	8003180 <fe25519_reduceCompletely>
 80031ee:	1e43      	subs	r3, r0, #1
 80031f0:	1e62      	subs	r2, r4, #1
 80031f2:	301f      	adds	r0, #31
 80031f4:	f813 1f01 	ldrb.w	r1, [r3, #1]!
 80031f8:	f802 1f01 	strb.w	r1, [r2, #1]!
 80031fc:	4283      	cmp	r3, r0
 80031fe:	d1f9      	bne.n	80031f4 <fe25519_pack+0x10>
 8003200:	bd10      	pop	{r4, pc}
 8003202:	bf00      	nop
 8003204:	0000      	movs	r0, r0
	...

08003208 <fe25519_squareroot>:
 8003208:	b5f0      	push	{r4, r5, r6, r7, lr}
 800320a:	4fa5      	ldr	r7, [pc, #660]	@ (80034a0 <fe25519_squareroot+0x298>)
 800320c:	460e      	mov	r6, r1
 800320e:	4605      	mov	r5, r0
 8003210:	cf0f      	ldmia	r7!, {r0, r1, r2, r3}
 8003212:	b0a9      	sub	sp, #164	@ 0xa4
 8003214:	f10d 0e60 	add.w	lr, sp, #96	@ 0x60
 8003218:	e8ae 000f 	stmia.w	lr!, {r0, r1, r2, r3}
 800321c:	e897 000f 	ldmia.w	r7, {r0, r1, r2, r3}
 8003220:	e88e 000f 	stmia.w	lr, {r0, r1, r2, r3}
 8003224:	6830      	ldr	r0, [r6, #0]
 8003226:	6871      	ldr	r1, [r6, #4]
 8003228:	68b2      	ldr	r2, [r6, #8]
 800322a:	68f3      	ldr	r3, [r6, #12]
 800322c:	46ec      	mov	ip, sp
 800322e:	e8ac 000f 	stmia.w	ip!, {r0, r1, r2, r3}
 8003232:	6930      	ldr	r0, [r6, #16]
 8003234:	6971      	ldr	r1, [r6, #20]
 8003236:	69b2      	ldr	r2, [r6, #24]
 8003238:	69f3      	ldr	r3, [r6, #28]
 800323a:	e8ac 000f 	stmia.w	ip!, {r0, r1, r2, r3}
 800323e:	6830      	ldr	r0, [r6, #0]
 8003240:	6871      	ldr	r1, [r6, #4]
 8003242:	68b2      	ldr	r2, [r6, #8]
 8003244:	68f3      	ldr	r3, [r6, #12]
 8003246:	ac08      	add	r4, sp, #32
 8003248:	c40f      	stmia	r4!, {r0, r1, r2, r3}
 800324a:	ed9f 7b91 	vldr	d7, [pc, #580]	@ 8003490 <fe25519_squareroot+0x288>
 800324e:	ed9f 6b92 	vldr	d6, [pc, #584]	@ 8003498 <fe25519_squareroot+0x290>
 8003252:	69f3      	ldr	r3, [r6, #28]
 8003254:	6930      	ldr	r0, [r6, #16]
 8003256:	6971      	ldr	r1, [r6, #20]
 8003258:	69b2      	ldr	r2, [r6, #24]
 800325a:	c40f      	stmia	r4!, {r0, r1, r2, r3}
 800325c:	4669      	mov	r1, sp
 800325e:	4668      	mov	r0, sp
 8003260:	ed8d 6b10 	vstr	d6, [sp, #64]	@ 0x40
 8003264:	ed8d 7b12 	vstr	d7, [sp, #72]	@ 0x48
 8003268:	ed8d 7b14 	vstr	d7, [sp, #80]	@ 0x50
 800326c:	ed8d 7b16 	vstr	d7, [sp, #88]	@ 0x58
 8003270:	f7fd f892 	bl	8000398 <fe25519_square_asm>
 8003274:	aa08      	add	r2, sp, #32
 8003276:	4610      	mov	r0, r2
 8003278:	4669      	mov	r1, sp
 800327a:	f7fd f95b 	bl	8000534 <fe25519_mul_asm>
 800327e:	4669      	mov	r1, sp
 8003280:	4668      	mov	r0, sp
 8003282:	f7fd f889 	bl	8000398 <fe25519_square_asm>
 8003286:	24fa      	movs	r4, #250	@ 0xfa
 8003288:	4669      	mov	r1, sp
 800328a:	4668      	mov	r0, sp
 800328c:	f7fd f884 	bl	8000398 <fe25519_square_asm>
 8003290:	aa08      	add	r2, sp, #32
 8003292:	4669      	mov	r1, sp
 8003294:	4610      	mov	r0, r2
 8003296:	f7fd f94d 	bl	8000534 <fe25519_mul_asm>
 800329a:	3c01      	subs	r4, #1
 800329c:	d1f4      	bne.n	8003288 <fe25519_squareroot+0x80>
 800329e:	9f0f      	ldr	r7, [sp, #60]	@ 0x3c
 80032a0:	bb87      	cbnz	r7, 8003304 <fe25519_squareroot+0xfc>
 80032a2:	ab07      	add	r3, sp, #28
 80032a4:	aa0f      	add	r2, sp, #60	@ 0x3c
 80032a6:	ac0e      	add	r4, sp, #56	@ 0x38
 80032a8:	f853 0f04 	ldr.w	r0, [r3, #4]!
 80032ac:	f852 1f04 	ldr.w	r1, [r2, #4]!
 80032b0:	4288      	cmp	r0, r1
 80032b2:	d131      	bne.n	8003318 <fe25519_squareroot+0x110>
 80032b4:	429c      	cmp	r4, r3
 80032b6:	d1f7      	bne.n	80032a8 <fe25519_squareroot+0xa0>
 80032b8:	6830      	ldr	r0, [r6, #0]
 80032ba:	6871      	ldr	r1, [r6, #4]
 80032bc:	68b2      	ldr	r2, [r6, #8]
 80032be:	68f3      	ldr	r3, [r6, #12]
 80032c0:	466c      	mov	r4, sp
 80032c2:	c40f      	stmia	r4!, {r0, r1, r2, r3}
 80032c4:	69b2      	ldr	r2, [r6, #24]
 80032c6:	69f3      	ldr	r3, [r6, #28]
 80032c8:	6930      	ldr	r0, [r6, #16]
 80032ca:	6971      	ldr	r1, [r6, #20]
 80032cc:	c40f      	stmia	r4!, {r0, r1, r2, r3}
 80032ce:	2201      	movs	r2, #1
 80032d0:	2300      	movs	r3, #0
 80032d2:	e9c5 2300 	strd	r2, r3, [r5]
 80032d6:	2200      	movs	r2, #0
 80032d8:	2300      	movs	r3, #0
 80032da:	e9c5 2302 	strd	r2, r3, [r5, #8]
 80032de:	e9c5 2304 	strd	r2, r3, [r5, #16]
 80032e2:	e9c5 2306 	strd	r2, r3, [r5, #24]
 80032e6:	24fb      	movs	r4, #251	@ 0xfb
 80032e8:	4669      	mov	r1, sp
 80032ea:	4668      	mov	r0, sp
 80032ec:	f7fd f854 	bl	8000398 <fe25519_square_asm>
 80032f0:	466a      	mov	r2, sp
 80032f2:	4629      	mov	r1, r5
 80032f4:	4628      	mov	r0, r5
 80032f6:	f7fd f91d 	bl	8000534 <fe25519_mul_asm>
 80032fa:	3c01      	subs	r4, #1
 80032fc:	d1f4      	bne.n	80032e8 <fe25519_squareroot+0xe0>
 80032fe:	2000      	movs	r0, #0
 8003300:	b029      	add	sp, #164	@ 0xa4
 8003302:	bdf0      	pop	{r4, r5, r6, r7, pc}
 8003304:	a808      	add	r0, sp, #32
 8003306:	f7ff ff3b 	bl	8003180 <fe25519_reduceCompletely>
 800330a:	a810      	add	r0, sp, #64	@ 0x40
 800330c:	f7ff ff38 	bl	8003180 <fe25519_reduceCompletely>
 8003310:	9f0f      	ldr	r7, [sp, #60]	@ 0x3c
 8003312:	9b17      	ldr	r3, [sp, #92]	@ 0x5c
 8003314:	429f      	cmp	r7, r3
 8003316:	d0c4      	beq.n	80032a2 <fe25519_squareroot+0x9a>
 8003318:	f06f 4300 	mvn.w	r3, #2147483648	@ 0x80000000
 800331c:	429f      	cmp	r7, r3
 800331e:	f040 80a7 	bne.w	8003470 <fe25519_squareroot+0x268>
 8003322:	ab07      	add	r3, sp, #28
 8003324:	aa17      	add	r2, sp, #92	@ 0x5c
 8003326:	ac0e      	add	r4, sp, #56	@ 0x38
 8003328:	f853 0f04 	ldr.w	r0, [r3, #4]!
 800332c:	f852 1f04 	ldr.w	r1, [r2, #4]!
 8003330:	4288      	cmp	r0, r1
 8003332:	f040 80a8 	bne.w	8003486 <fe25519_squareroot+0x27e>
 8003336:	42a3      	cmp	r3, r4
 8003338:	d1f6      	bne.n	8003328 <fe25519_squareroot+0x120>
 800333a:	2201      	movs	r2, #1
 800333c:	4611      	mov	r1, r2
 800333e:	ab20      	add	r3, sp, #128	@ 0x80
 8003340:	46b6      	mov	lr, r6
 8003342:	69f4      	ldr	r4, [r6, #28]
 8003344:	f8de 001c 	ldr.w	r0, [lr, #28]
 8003348:	4607      	mov	r7, r0
 800334a:	fbe4 4761 	umaal	r4, r7, r4, r1
 800334e:	fbe0 4701 	umlal	r4, r7, r0, r1
 8003352:	f04f 0013 	mov.w	r0, #19
 8003356:	fb07 f000 	mul.w	r0, r7, r0
 800335a:	6837      	ldr	r7, [r6, #0]
 800335c:	f8de c000 	ldr.w	ip, [lr]
 8003360:	fbe1 7c60 	umaal	r7, ip, r1, r0
 8003364:	601f      	str	r7, [r3, #0]
 8003366:	6870      	ldr	r0, [r6, #4]
 8003368:	f8de 7004 	ldr.w	r7, [lr, #4]
 800336c:	fbe1 7c60 	umaal	r7, ip, r1, r0
 8003370:	605f      	str	r7, [r3, #4]
 8003372:	68b0      	ldr	r0, [r6, #8]
 8003374:	f8de 7008 	ldr.w	r7, [lr, #8]
 8003378:	fbe1 7c60 	umaal	r7, ip, r1, r0
 800337c:	609f      	str	r7, [r3, #8]
 800337e:	68f0      	ldr	r0, [r6, #12]
 8003380:	f8de 700c 	ldr.w	r7, [lr, #12]
 8003384:	fbe1 7c60 	umaal	r7, ip, r1, r0
 8003388:	60df      	str	r7, [r3, #12]
 800338a:	6930      	ldr	r0, [r6, #16]
 800338c:	f8de 7010 	ldr.w	r7, [lr, #16]
 8003390:	fbe1 7c60 	umaal	r7, ip, r1, r0
 8003394:	611f      	str	r7, [r3, #16]
 8003396:	6970      	ldr	r0, [r6, #20]
 8003398:	f8de 7014 	ldr.w	r7, [lr, #20]
 800339c:	fbe1 7c60 	umaal	r7, ip, r1, r0
 80033a0:	615f      	str	r7, [r3, #20]
 80033a2:	69b0      	ldr	r0, [r6, #24]
 80033a4:	f8de 7018 	ldr.w	r7, [lr, #24]
 80033a8:	fbe1 7c60 	umaal	r7, ip, r1, r0
 80033ac:	619f      	str	r7, [r3, #24]
 80033ae:	eb0c 0c54 	add.w	ip, ip, r4, lsr #1
 80033b2:	f8c3 c01c 	str.w	ip, [r3, #28]
 80033b6:	ab20      	add	r3, sp, #128	@ 0x80
 80033b8:	4629      	mov	r1, r5
 80033ba:	469c      	mov	ip, r3
 80033bc:	69dc      	ldr	r4, [r3, #28]
 80033be:	f8dc 001c 	ldr.w	r0, [ip, #28]
 80033c2:	4606      	mov	r6, r0
 80033c4:	fbe4 4662 	umaal	r4, r6, r4, r2
 80033c8:	fbe0 4602 	umlal	r4, r6, r0, r2
 80033cc:	f04f 0013 	mov.w	r0, #19
 80033d0:	fb06 f000 	mul.w	r0, r6, r0
 80033d4:	681e      	ldr	r6, [r3, #0]
 80033d6:	f8dc 7000 	ldr.w	r7, [ip]
 80033da:	fbe2 6760 	umaal	r6, r7, r2, r0
 80033de:	600e      	str	r6, [r1, #0]
 80033e0:	6858      	ldr	r0, [r3, #4]
 80033e2:	f8dc 6004 	ldr.w	r6, [ip, #4]
 80033e6:	fbe2 6760 	umaal	r6, r7, r2, r0
 80033ea:	604e      	str	r6, [r1, #4]
 80033ec:	6898      	ldr	r0, [r3, #8]
 80033ee:	f8dc 6008 	ldr.w	r6, [ip, #8]
 80033f2:	fbe2 6760 	umaal	r6, r7, r2, r0
 80033f6:	608e      	str	r6, [r1, #8]
 80033f8:	68d8      	ldr	r0, [r3, #12]
 80033fa:	f8dc 600c 	ldr.w	r6, [ip, #12]
 80033fe:	fbe2 6760 	umaal	r6, r7, r2, r0
 8003402:	60ce      	str	r6, [r1, #12]
 8003404:	6918      	ldr	r0, [r3, #16]
 8003406:	f8dc 6010 	ldr.w	r6, [ip, #16]
 800340a:	fbe2 6760 	umaal	r6, r7, r2, r0
 800340e:	610e      	str	r6, [r1, #16]
 8003410:	6958      	ldr	r0, [r3, #20]
 8003412:	f8dc 6014 	ldr.w	r6, [ip, #20]
 8003416:	fbe2 6760 	umaal	r6, r7, r2, r0
 800341a:	614e      	str	r6, [r1, #20]
 800341c:	6998      	ldr	r0, [r3, #24]
 800341e:	f8dc 6018 	ldr.w	r6, [ip, #24]
 8003422:	fbe2 6760 	umaal	r6, r7, r2, r0
 8003426:	618e      	str	r6, [r1, #24]
 8003428:	eb07 0754 	add.w	r7, r7, r4, lsr #1
 800342c:	61cf      	str	r7, [r1, #28]
 800342e:	6828      	ldr	r0, [r5, #0]
 8003430:	6869      	ldr	r1, [r5, #4]
 8003432:	68aa      	ldr	r2, [r5, #8]
 8003434:	68eb      	ldr	r3, [r5, #12]
 8003436:	466c      	mov	r4, sp
 8003438:	c40f      	stmia	r4!, {r0, r1, r2, r3}
 800343a:	6928      	ldr	r0, [r5, #16]
 800343c:	6969      	ldr	r1, [r5, #20]
 800343e:	69aa      	ldr	r2, [r5, #24]
 8003440:	69eb      	ldr	r3, [r5, #28]
 8003442:	c40f      	stmia	r4!, {r0, r1, r2, r3}
 8003444:	4669      	mov	r1, sp
 8003446:	4668      	mov	r0, sp
 8003448:	f7fc ffa6 	bl	8000398 <fe25519_square_asm>
 800344c:	24fa      	movs	r4, #250	@ 0xfa
 800344e:	4669      	mov	r1, sp
 8003450:	4668      	mov	r0, sp
 8003452:	f7fc ffa1 	bl	8000398 <fe25519_square_asm>
 8003456:	466a      	mov	r2, sp
 8003458:	4629      	mov	r1, r5
 800345a:	4628      	mov	r0, r5
 800345c:	f7fd f86a 	bl	8000534 <fe25519_mul_asm>
 8003460:	3c01      	subs	r4, #1
 8003462:	d1f4      	bne.n	800344e <fe25519_squareroot+0x246>
 8003464:	aa20      	add	r2, sp, #128	@ 0x80
 8003466:	4629      	mov	r1, r5
 8003468:	4628      	mov	r0, r5
 800346a:	f7fd f863 	bl	8000534 <fe25519_mul_asm>
 800346e:	e746      	b.n	80032fe <fe25519_squareroot+0xf6>
 8003470:	a808      	add	r0, sp, #32
 8003472:	f7ff fe85 	bl	8003180 <fe25519_reduceCompletely>
 8003476:	a818      	add	r0, sp, #96	@ 0x60
 8003478:	f7ff fe82 	bl	8003180 <fe25519_reduceCompletely>
 800347c:	9a0f      	ldr	r2, [sp, #60]	@ 0x3c
 800347e:	9b1f      	ldr	r3, [sp, #124]	@ 0x7c
 8003480:	429a      	cmp	r2, r3
 8003482:	f43f af4e 	beq.w	8003322 <fe25519_squareroot+0x11a>
 8003486:	f04f 30ff 	mov.w	r0, #4294967295	@ 0xffffffff
 800348a:	e739      	b.n	8003300 <fe25519_squareroot+0xf8>
 800348c:	f3af 8000 	nop.w
	...
 8003498:	00000001 	.word	0x00000001
 800349c:	00000000 	.word	0x00000000
 80034a0:	08003f60 	.word	0x08003f60

080034a4 <fe25519_invert_useProvidedScratchBuffers>:
 80034a4:	e92d 41f0 	stmdb	sp!, {r4, r5, r6, r7, r8, lr}
 80034a8:	9e06      	ldr	r6, [sp, #24]
 80034aa:	4614      	mov	r4, r2
 80034ac:	4607      	mov	r7, r0
 80034ae:	4630      	mov	r0, r6
 80034b0:	4698      	mov	r8, r3
 80034b2:	460d      	mov	r5, r1
 80034b4:	f7fc ff70 	bl	8000398 <fe25519_square_asm>
 80034b8:	4631      	mov	r1, r6
 80034ba:	4620      	mov	r0, r4
 80034bc:	f7fc ff6c 	bl	8000398 <fe25519_square_asm>
 80034c0:	4621      	mov	r1, r4
 80034c2:	4620      	mov	r0, r4
 80034c4:	f7fc ff68 	bl	8000398 <fe25519_square_asm>
 80034c8:	462a      	mov	r2, r5
 80034ca:	4621      	mov	r1, r4
 80034cc:	4640      	mov	r0, r8
 80034ce:	f7fd f831 	bl	8000534 <fe25519_mul_asm>
 80034d2:	4632      	mov	r2, r6
 80034d4:	4641      	mov	r1, r8
 80034d6:	4638      	mov	r0, r7
 80034d8:	f7fd f82c 	bl	8000534 <fe25519_mul_asm>
 80034dc:	4639      	mov	r1, r7
 80034de:	4620      	mov	r0, r4
 80034e0:	f7fc ff5a 	bl	8000398 <fe25519_square_asm>
 80034e4:	4642      	mov	r2, r8
 80034e6:	4621      	mov	r1, r4
 80034e8:	4640      	mov	r0, r8
 80034ea:	f7fd f823 	bl	8000534 <fe25519_mul_asm>
 80034ee:	4641      	mov	r1, r8
 80034f0:	4620      	mov	r0, r4
 80034f2:	f7fc ff51 	bl	8000398 <fe25519_square_asm>
 80034f6:	4621      	mov	r1, r4
 80034f8:	4620      	mov	r0, r4
 80034fa:	f7fc ff4d 	bl	8000398 <fe25519_square_asm>
 80034fe:	4621      	mov	r1, r4
 8003500:	4620      	mov	r0, r4
 8003502:	f7fc ff49 	bl	8000398 <fe25519_square_asm>
 8003506:	4621      	mov	r1, r4
 8003508:	4620      	mov	r0, r4
 800350a:	f7fc ff45 	bl	8000398 <fe25519_square_asm>
 800350e:	4621      	mov	r1, r4
 8003510:	4620      	mov	r0, r4
 8003512:	f7fc ff41 	bl	8000398 <fe25519_square_asm>
 8003516:	4642      	mov	r2, r8
 8003518:	4621      	mov	r1, r4
 800351a:	4640      	mov	r0, r8
 800351c:	f7fd f80a 	bl	8000534 <fe25519_mul_asm>
 8003520:	4641      	mov	r1, r8
 8003522:	4620      	mov	r0, r4
 8003524:	f7fc ff38 	bl	8000398 <fe25519_square_asm>
 8003528:	2509      	movs	r5, #9
 800352a:	4621      	mov	r1, r4
 800352c:	4620      	mov	r0, r4
 800352e:	f7fc ff33 	bl	8000398 <fe25519_square_asm>
 8003532:	1e6b      	subs	r3, r5, #1
 8003534:	f013 05ff 	ands.w	r5, r3, #255	@ 0xff
 8003538:	d1f7      	bne.n	800352a <fe25519_invert_useProvidedScratchBuffers+0x86>
 800353a:	4642      	mov	r2, r8
 800353c:	4621      	mov	r1, r4
 800353e:	4630      	mov	r0, r6
 8003540:	f7fc fff8 	bl	8000534 <fe25519_mul_asm>
 8003544:	4631      	mov	r1, r6
 8003546:	4620      	mov	r0, r4
 8003548:	f7fc ff26 	bl	8000398 <fe25519_square_asm>
 800354c:	2513      	movs	r5, #19
 800354e:	4621      	mov	r1, r4
 8003550:	4620      	mov	r0, r4
 8003552:	f7fc ff21 	bl	8000398 <fe25519_square_asm>
 8003556:	1e6b      	subs	r3, r5, #1
 8003558:	f013 05ff 	ands.w	r5, r3, #255	@ 0xff
 800355c:	d1f7      	bne.n	800354e <fe25519_invert_useProvidedScratchBuffers+0xaa>
 800355e:	4632      	mov	r2, r6
 8003560:	4621      	mov	r1, r4
 8003562:	4620      	mov	r0, r4
 8003564:	f7fc ffe6 	bl	8000534 <fe25519_mul_asm>
 8003568:	4621      	mov	r1, r4
 800356a:	4620      	mov	r0, r4
 800356c:	f7fc ff14 	bl	8000398 <fe25519_square_asm>
 8003570:	2509      	movs	r5, #9
 8003572:	4621      	mov	r1, r4
 8003574:	4620      	mov	r0, r4
 8003576:	f7fc ff0f 	bl	8000398 <fe25519_square_asm>
 800357a:	1e6b      	subs	r3, r5, #1
 800357c:	f013 05ff 	ands.w	r5, r3, #255	@ 0xff
 8003580:	d1f7      	bne.n	8003572 <fe25519_invert_useProvidedScratchBuffers+0xce>
 8003582:	4642      	mov	r2, r8
 8003584:	4621      	mov	r1, r4
 8003586:	4630      	mov	r0, r6
 8003588:	f7fc ffd4 	bl	8000534 <fe25519_mul_asm>
 800358c:	4631      	mov	r1, r6
 800358e:	4620      	mov	r0, r4
 8003590:	f7fc ff02 	bl	8000398 <fe25519_square_asm>
 8003594:	2531      	movs	r5, #49	@ 0x31
 8003596:	4621      	mov	r1, r4
 8003598:	4620      	mov	r0, r4
 800359a:	f7fc fefd 	bl	8000398 <fe25519_square_asm>
 800359e:	1e6a      	subs	r2, r5, #1
 80035a0:	f012 05ff 	ands.w	r5, r2, #255	@ 0xff
 80035a4:	d1f7      	bne.n	8003596 <fe25519_invert_useProvidedScratchBuffers+0xf2>
 80035a6:	4632      	mov	r2, r6
 80035a8:	4621      	mov	r1, r4
 80035aa:	4640      	mov	r0, r8
 80035ac:	f7fc ffc2 	bl	8000534 <fe25519_mul_asm>
 80035b0:	4641      	mov	r1, r8
 80035b2:	4620      	mov	r0, r4
 80035b4:	f7fc fef0 	bl	8000398 <fe25519_square_asm>
 80035b8:	2563      	movs	r5, #99	@ 0x63
 80035ba:	4621      	mov	r1, r4
 80035bc:	4620      	mov	r0, r4
 80035be:	f7fc feeb 	bl	8000398 <fe25519_square_asm>
 80035c2:	1e6a      	subs	r2, r5, #1
 80035c4:	f012 05ff 	ands.w	r5, r2, #255	@ 0xff
 80035c8:	d1f7      	bne.n	80035ba <fe25519_invert_useProvidedScratchBuffers+0x116>
 80035ca:	4642      	mov	r2, r8
 80035cc:	4621      	mov	r1, r4
 80035ce:	4620      	mov	r0, r4
 80035d0:	f7fc ffb0 	bl	8000534 <fe25519_mul_asm>
 80035d4:	2532      	movs	r5, #50	@ 0x32
 80035d6:	4621      	mov	r1, r4
 80035d8:	4620      	mov	r0, r4
 80035da:	f7fc fedd 	bl	8000398 <fe25519_square_asm>
 80035de:	1e6b      	subs	r3, r5, #1
 80035e0:	f013 05ff 	ands.w	r5, r3, #255	@ 0xff
 80035e4:	d1f7      	bne.n	80035d6 <fe25519_invert_useProvidedScratchBuffers+0x132>
 80035e6:	4632      	mov	r2, r6
 80035e8:	4621      	mov	r1, r4
 80035ea:	4620      	mov	r0, r4
 80035ec:	f7fc ffa2 	bl	8000534 <fe25519_mul_asm>
 80035f0:	2505      	movs	r5, #5
 80035f2:	4621      	mov	r1, r4
 80035f4:	4620      	mov	r0, r4
 80035f6:	f7fc fecf 	bl	8000398 <fe25519_square_asm>
 80035fa:	1e6b      	subs	r3, r5, #1
 80035fc:	f013 05ff 	ands.w	r5, r3, #255	@ 0xff
 8003600:	d1f7      	bne.n	80035f2 <fe25519_invert_useProvidedScratchBuffers+0x14e>
 8003602:	463a      	mov	r2, r7
 8003604:	4621      	mov	r1, r4
 8003606:	4638      	mov	r0, r7
 8003608:	e8bd 41f0 	ldmia.w	sp!, {r4, r5, r6, r7, r8, lr}
 800360c:	f7fc bf92 	b.w	8000534 <fe25519_mul_asm>

08003610 <multiply288x288>:
 8003610:	e92d 4ff0 	stmdb	sp!, {r4, r5, r6, r7, r8, r9, sl, fp, lr}
 8003614:	468a      	mov	sl, r1
 8003616:	b089      	sub	sp, #36	@ 0x24
 8003618:	4614      	mov	r4, r2
 800361a:	9001      	str	r0, [sp, #4]
 800361c:	f7fd f892 	bl	8000744 <multiply256x256_asm>
 8003620:	f8da 0020 	ldr.w	r0, [sl, #32]
 8003624:	6a22      	ldr	r2, [r4, #32]
 8003626:	9b01      	ldr	r3, [sp, #4]
 8003628:	b281      	uxth	r1, r0
 800362a:	ea4f 4810 	mov.w	r8, r0, lsr #16
 800362e:	fa1f fb82 	uxth.w	fp, r2
 8003632:	ea4f 4912 	mov.w	r9, r2, lsr #16
 8003636:	fb08 f00b 	mul.w	r0, r8, fp
 800363a:	fb09 f201 	mul.w	r2, r9, r1
 800363e:	1812      	adds	r2, r2, r0
 8003640:	f04f 0500 	mov.w	r5, #0
 8003644:	eb45 0605 	adc.w	r6, r5, r5
 8003648:	0436      	lsls	r6, r6, #16
 800364a:	ea46 4612 	orr.w	r6, r6, r2, lsr #16
 800364e:	fb0b f001 	mul.w	r0, fp, r1
 8003652:	0412      	lsls	r2, r2, #16
 8003654:	1810      	adds	r0, r2, r0
 8003656:	fb09 f208 	mul.w	r2, r9, r8
 800365a:	f103 073c 	add.w	r7, r3, #60	@ 0x3c
 800365e:	eb42 0206 	adc.w	r2, r2, r6
 8003662:	f103 061c 	add.w	r6, r3, #28
 8003666:	9701      	str	r7, [sp, #4]
 8003668:	e9cd 6304 	strd	r6, r3, [sp, #16]
 800366c:	e9cd 4006 	strd	r4, r0, [sp, #24]
 8003670:	e9cd 1802 	strd	r1, r8, [sp, #8]
 8003674:	f8dd 8004 	ldr.w	r8, [sp, #4]
 8003678:	f1aa 0a04 	sub.w	sl, sl, #4
 800367c:	4637      	mov	r7, r6
 800367e:	46ac      	mov	ip, r5
 8003680:	46ae      	mov	lr, r5
 8003682:	f85a 4f04 	ldr.w	r4, [sl, #4]!
 8003686:	f857 1f04 	ldr.w	r1, [r7, #4]!
 800368a:	b2a6      	uxth	r6, r4
 800368c:	0c24      	lsrs	r4, r4, #16
 800368e:	fb04 f00b 	mul.w	r0, r4, fp
 8003692:	fb06 f309 	mul.w	r3, r6, r9
 8003696:	181b      	adds	r3, r3, r0
 8003698:	eb4e 000e 	adc.w	r0, lr, lr
 800369c:	0400      	lsls	r0, r0, #16
 800369e:	ea40 4013 	orr.w	r0, r0, r3, lsr #16
 80036a2:	fb06 f60b 	mul.w	r6, r6, fp
 80036a6:	041b      	lsls	r3, r3, #16
 80036a8:	199b      	adds	r3, r3, r6
 80036aa:	fb04 f409 	mul.w	r4, r4, r9
 80036ae:	eb44 0000 	adc.w	r0, r4, r0
 80036b2:	18c9      	adds	r1, r1, r3
 80036b4:	eb4e 030e 	adc.w	r3, lr, lr
 80036b8:	1949      	adds	r1, r1, r5
 80036ba:	eb4c 0303 	adc.w	r3, ip, r3
 80036be:	18c5      	adds	r5, r0, r3
 80036c0:	eb4e 0c0e 	adc.w	ip, lr, lr
 80036c4:	45b8      	cmp	r8, r7
 80036c6:	6039      	str	r1, [r7, #0]
 80036c8:	d1db      	bne.n	8003682 <multiply288x288+0x72>
 80036ca:	e9dd 4006 	ldrd	r4, r0, [sp, #24]
 80036ce:	e9dd 6304 	ldrd	r6, r3, [sp, #16]
 80036d2:	1945      	adds	r5, r0, r5
 80036d4:	f04f 0900 	mov.w	r9, #0
 80036d8:	eb4c 0c02 	adc.w	ip, ip, r2
 80036dc:	f8dd b004 	ldr.w	fp, [sp, #4]
 80036e0:	e9dd 1802 	ldrd	r1, r8, [sp, #8]
 80036e4:	f1a4 0a04 	sub.w	sl, r4, #4
 80036e8:	464f      	mov	r7, r9
 80036ea:	464c      	mov	r4, r9
 80036ec:	f8cd c008 	str.w	ip, [sp, #8]
 80036f0:	f85a 2f04 	ldr.w	r2, [sl, #4]!
 80036f4:	ea4f 4c12 	mov.w	ip, r2, lsr #16
 80036f8:	fa1f fe82 	uxth.w	lr, r2
 80036fc:	fb0c f001 	mul.w	r0, ip, r1
 8003700:	fb0e f208 	mul.w	r2, lr, r8
 8003704:	1812      	adds	r2, r2, r0
 8003706:	eb47 0007 	adc.w	r0, r7, r7
 800370a:	0400      	lsls	r0, r0, #16
 800370c:	ea40 4012 	orr.w	r0, r0, r2, lsr #16
 8003710:	fb0e fe01 	mul.w	lr, lr, r1
 8003714:	0412      	lsls	r2, r2, #16
 8003716:	fb0c fc08 	mul.w	ip, ip, r8
 800371a:	eb12 020e 	adds.w	r2, r2, lr
 800371e:	eb4c 0000 	adc.w	r0, ip, r0
 8003722:	f856 cf04 	ldr.w	ip, [r6, #4]!
 8003726:	eb1c 0202 	adds.w	r2, ip, r2
 800372a:	eb47 0c07 	adc.w	ip, r7, r7
 800372e:	eb12 0209 	adds.w	r2, r2, r9
 8003732:	eb44 0c0c 	adc.w	ip, r4, ip
 8003736:	eb10 090c 	adds.w	r9, r0, ip
 800373a:	eb47 0407 	adc.w	r4, r7, r7
 800373e:	45b3      	cmp	fp, r6
 8003740:	6032      	str	r2, [r6, #0]
 8003742:	d1d5      	bne.n	80036f0 <multiply288x288+0xe0>
 8003744:	f8dd c008 	ldr.w	ip, [sp, #8]
 8003748:	eb19 0505 	adds.w	r5, r9, r5
 800374c:	eb4c 0404 	adc.w	r4, ip, r4
 8003750:	e9c3 5410 	strd	r5, r4, [r3, #64]	@ 0x40
 8003754:	b009      	add	sp, #36	@ 0x24
 8003756:	e8bd 8ff0 	ldmia.w	sp!, {r4, r5, r6, r7, r8, r9, sl, fp, pc}
 800375a:	bf00      	nop
 800375c:	0000      	movs	r0, r0
	...

08003760 <setone_256bitvalue>:
 8003760:	ed9f 7b07 	vldr	d7, [pc, #28]	@ 8003780 <setone_256bitvalue+0x20>
 8003764:	2200      	movs	r2, #0
 8003766:	2300      	movs	r3, #0
 8003768:	ed80 7b00 	vstr	d7, [r0]
 800376c:	e9c0 2302 	strd	r2, r3, [r0, #8]
 8003770:	e9c0 2304 	strd	r2, r3, [r0, #16]
 8003774:	e9c0 2306 	strd	r2, r3, [r0, #24]
 8003778:	4770      	bx	lr
 800377a:	bf00      	nop
 800377c:	f3af 8000 	nop.w
 8003780:	00000001 	.word	0x00000001
 8003784:	00000000 	.word	0x00000000

08003788 <setzero_256bitvalue>:
 8003788:	2220      	movs	r2, #32
 800378a:	2100      	movs	r1, #0
 800378c:	f000 bab6 	b.w	8003cfc <memset>

08003790 <cpy_256bitvalue>:
 8003790:	1f0b      	subs	r3, r1, #4
 8003792:	3804      	subs	r0, #4
 8003794:	311c      	adds	r1, #28
 8003796:	f853 2f04 	ldr.w	r2, [r3, #4]!
 800379a:	f840 2f04 	str.w	r2, [r0, #4]!
 800379e:	428b      	cmp	r3, r1
 80037a0:	d1f9      	bne.n	8003796 <cpy_256bitvalue+0x6>
 80037a2:	4770      	bx	lr

080037a4 <conditionalMove_256bitValue>:
 80037a4:	b500      	push	{lr}
 80037a6:	4252      	negs	r2, r2
 80037a8:	f1a0 0c04 	sub.w	ip, r0, #4
 80037ac:	3904      	subs	r1, #4
 80037ae:	f100 0e1c 	add.w	lr, r0, #28
 80037b2:	f85c 0f04 	ldr.w	r0, [ip, #4]!
 80037b6:	f851 3f04 	ldr.w	r3, [r1, #4]!
 80037ba:	4043      	eors	r3, r0
 80037bc:	4013      	ands	r3, r2
 80037be:	4043      	eors	r3, r0
 80037c0:	45f4      	cmp	ip, lr
 80037c2:	f8cc 3000 	str.w	r3, [ip]
 80037c6:	d1f4      	bne.n	80037b2 <conditionalMove_256bitValue+0xe>
 80037c8:	f85d fb04 	ldr.w	pc, [sp], #4

080037cc <shiftLeftOne>:
 80037cc:	69c2      	ldr	r2, [r0, #28]
 80037ce:	4603      	mov	r3, r0
 80037d0:	0052      	lsls	r2, r2, #1
 80037d2:	b410      	push	{r4}
 80037d4:	f843 2f1c 	str.w	r2, [r3, #28]!
 80037d8:	f853 1d04 	ldr.w	r1, [r3, #-4]!
 80037dc:	eb02 74d1 	add.w	r4, r2, r1, lsr #31
 80037e0:	4283      	cmp	r3, r0
 80037e2:	ea4f 0241 	mov.w	r2, r1, lsl #1
 80037e6:	e9c3 2400 	strd	r2, r4, [r3]
 80037ea:	d1f5      	bne.n	80037d8 <shiftLeftOne+0xc>
 80037ec:	f85d 4b04 	ldr.w	r4, [sp], #4
 80037f0:	4770      	bx	lr
 80037f2:	bf00      	nop

080037f4 <shiftRightOne>:
 80037f4:	6802      	ldr	r2, [r0, #0]
 80037f6:	69c1      	ldr	r1, [r0, #28]
 80037f8:	0852      	lsrs	r2, r2, #1
 80037fa:	b510      	push	{r4, lr}
 80037fc:	4603      	mov	r3, r0
 80037fe:	6002      	str	r2, [r0, #0]
 8003800:	f001 4e00 	and.w	lr, r1, #2147483648	@ 0x80000000
 8003804:	f100 0c1c 	add.w	ip, r0, #28
 8003808:	6859      	ldr	r1, [r3, #4]
 800380a:	eb02 74c1 	add.w	r4, r2, r1, lsl #31
 800380e:	084a      	lsrs	r2, r1, #1
 8003810:	601c      	str	r4, [r3, #0]
 8003812:	f843 2f04 	str.w	r2, [r3, #4]!
 8003816:	4563      	cmp	r3, ip
 8003818:	d1f6      	bne.n	8003808 <shiftRightOne+0x14>
 800381a:	69c3      	ldr	r3, [r0, #28]
 800381c:	ea43 030e 	orr.w	r3, r3, lr
 8003820:	61c3      	str	r3, [r0, #28]
 8003822:	bd10      	pop	{r4, pc}

08003824 <isEqual_256bitvalue>:
 8003824:	b410      	push	{r4}
 8003826:	1f02      	subs	r2, r0, #4
 8003828:	f100 0c1c 	add.w	ip, r0, #28
 800382c:	3904      	subs	r1, #4
 800382e:	2000      	movs	r0, #0
 8003830:	f852 3f04 	ldr.w	r3, [r2, #4]!
 8003834:	f851 4f04 	ldr.w	r4, [r1, #4]!
 8003838:	4562      	cmp	r2, ip
 800383a:	ea83 0304 	eor.w	r3, r3, r4
 800383e:	ea40 0003 	orr.w	r0, r0, r3
 8003842:	d1f5      	bne.n	8003830 <isEqual_256bitvalue+0xc>
 8003844:	f85d 4b04 	ldr.w	r4, [sp], #4
 8003848:	4770      	bx	lr
 800384a:	bf00      	nop

0800384c <sc25519_reduce>:
 800384c:	e92d 41f0 	stmdb	sp!, {r4, r5, r6, r7, r8, lr}
 8003850:	f100 041c 	add.w	r4, r0, #28
 8003854:	b0a4      	sub	sp, #144	@ 0x90
 8003856:	4931      	ldr	r1, [pc, #196]	@ (800391c <sc25519_reduce+0xd0>)
 8003858:	4680      	mov	r8, r0
 800385a:	4622      	mov	r2, r4
 800385c:	4668      	mov	r0, sp
 800385e:	f7ff fed7 	bl	8003610 <multiply288x288>
 8003862:	4a2f      	ldr	r2, [pc, #188]	@ (8003920 <sc25519_reduce+0xd4>)
 8003864:	a909      	add	r1, sp, #36	@ 0x24
 8003866:	a812      	add	r0, sp, #72	@ 0x48
 8003868:	f7ff fed2 	bl	8003610 <multiply288x288>
 800386c:	2200      	movs	r2, #0
 800386e:	f1a8 0504 	sub.w	r5, r8, #4
 8003872:	a812      	add	r0, sp, #72	@ 0x48
 8003874:	af22      	add	r7, sp, #136	@ 0x88
 8003876:	4611      	mov	r1, r2
 8003878:	f855 3f04 	ldr.w	r3, [r5, #4]!
 800387c:	f850 6b04 	ldr.w	r6, [r0], #4
 8003880:	189b      	adds	r3, r3, r2
 8003882:	f141 0100 	adc.w	r1, r1, #0
 8003886:	1b9b      	subs	r3, r3, r6
 8003888:	f161 0200 	sbc.w	r2, r1, #0
 800388c:	4287      	cmp	r7, r0
 800388e:	602b      	str	r3, [r5, #0]
 8003890:	ea4f 71e2 	mov.w	r1, r2, asr #31
 8003894:	d1f0      	bne.n	8003878 <sc25519_reduce+0x2c>
 8003896:	f108 0720 	add.w	r7, r8, #32
 800389a:	4641      	mov	r1, r8
 800389c:	4638      	mov	r0, r7
 800389e:	4d21      	ldr	r5, [pc, #132]	@ (8003924 <sc25519_reduce+0xd8>)
 80038a0:	f7ff ff76 	bl	8003790 <cpy_256bitvalue>
 80038a4:	2200      	movs	r2, #0
 80038a6:	f108 063c 	add.w	r6, r8, #60	@ 0x3c
 80038aa:	46ae      	mov	lr, r5
 80038ac:	4620      	mov	r0, r4
 80038ae:	4611      	mov	r1, r2
 80038b0:	f850 3f04 	ldr.w	r3, [r0, #4]!
 80038b4:	f85e cf04 	ldr.w	ip, [lr, #4]!
 80038b8:	189b      	adds	r3, r3, r2
 80038ba:	f141 0100 	adc.w	r1, r1, #0
 80038be:	ebb3 030c 	subs.w	r3, r3, ip
 80038c2:	f161 0200 	sbc.w	r2, r1, #0
 80038c6:	4286      	cmp	r6, r0
 80038c8:	6003      	str	r3, [r0, #0]
 80038ca:	ea4f 71e2 	mov.w	r1, r2, asr #31
 80038ce:	d1ef      	bne.n	80038b0 <sc25519_reduce+0x64>
 80038d0:	43d2      	mvns	r2, r2
 80038d2:	f002 0201 	and.w	r2, r2, #1
 80038d6:	4639      	mov	r1, r7
 80038d8:	4640      	mov	r0, r8
 80038da:	f7ff ff63 	bl	80037a4 <conditionalMove_256bitValue>
 80038de:	4641      	mov	r1, r8
 80038e0:	4638      	mov	r0, r7
 80038e2:	f7ff ff55 	bl	8003790 <cpy_256bitvalue>
 80038e6:	2200      	movs	r2, #0
 80038e8:	4611      	mov	r1, r2
 80038ea:	f854 3f04 	ldr.w	r3, [r4, #4]!
 80038ee:	f855 0f04 	ldr.w	r0, [r5, #4]!
 80038f2:	189b      	adds	r3, r3, r2
 80038f4:	f141 0100 	adc.w	r1, r1, #0
 80038f8:	1a1b      	subs	r3, r3, r0
 80038fa:	f161 0200 	sbc.w	r2, r1, #0
 80038fe:	42a6      	cmp	r6, r4
 8003900:	6023      	str	r3, [r4, #0]
 8003902:	ea4f 71e2 	mov.w	r1, r2, asr #31
 8003906:	d1f0      	bne.n	80038ea <sc25519_reduce+0x9e>
 8003908:	43d2      	mvns	r2, r2
 800390a:	f002 0201 	and.w	r2, r2, #1
 800390e:	4639      	mov	r1, r7
 8003910:	4640      	mov	r0, r8
 8003912:	f7ff ff47 	bl	80037a4 <conditionalMove_256bitValue>
 8003916:	b024      	add	sp, #144	@ 0x90
 8003918:	e8bd 81f0 	ldmia.w	sp!, {r4, r5, r6, r7, r8, pc}
 800391c:	08003f80 	.word	0x08003f80
 8003920:	08003fa8 	.word	0x08003fa8
 8003924:	08003fa4 	.word	0x08003fa4

08003928 <sc25519_mul>:
 8003928:	b510      	push	{r4, lr}
 800392a:	b090      	sub	sp, #64	@ 0x40
 800392c:	4604      	mov	r4, r0
 800392e:	4668      	mov	r0, sp
 8003930:	f7fc ff08 	bl	8000744 <multiply256x256_asm>
 8003934:	4668      	mov	r0, sp
 8003936:	f7ff ff89 	bl	800384c <sc25519_reduce>
 800393a:	4669      	mov	r1, sp
 800393c:	4620      	mov	r0, r4
 800393e:	f7ff ff27 	bl	8003790 <cpy_256bitvalue>
 8003942:	b010      	add	sp, #64	@ 0x40
 8003944:	bd10      	pop	{r4, pc}
 8003946:	bf00      	nop

08003948 <sc25519_binary_extended_gcd>:
 8003948:	e92d 41f0 	stmdb	sp!, {r4, r5, r6, r7, r8, lr}
 800394c:	b0c8      	sub	sp, #288	@ 0x120
 800394e:	4614      	mov	r4, r2
 8003950:	4606      	mov	r6, r0
 8003952:	a828      	add	r0, sp, #160	@ 0xa0
 8003954:	f7ff ff1c 	bl	8003790 <cpy_256bitvalue>
 8003958:	4621      	mov	r1, r4
 800395a:	a830      	add	r0, sp, #192	@ 0xc0
 800395c:	f7ff ff18 	bl	8003790 <cpy_256bitvalue>
 8003960:	a820      	add	r0, sp, #128	@ 0x80
 8003962:	f7ff fefd 	bl	8003760 <setone_256bitvalue>
 8003966:	f89d 30a0 	ldrb.w	r3, [sp, #160]	@ 0xa0
 800396a:	07d8      	lsls	r0, r3, #31
 800396c:	d50c      	bpl.n	8003988 <sc25519_binary_extended_gcd+0x40>
 800396e:	e010      	b.n	8003992 <sc25519_binary_extended_gcd+0x4a>
 8003970:	f7ff ff40 	bl	80037f4 <shiftRightOne>
 8003974:	a830      	add	r0, sp, #192	@ 0xc0
 8003976:	f7ff ff3d 	bl	80037f4 <shiftRightOne>
 800397a:	a820      	add	r0, sp, #128	@ 0x80
 800397c:	f7ff ff26 	bl	80037cc <shiftLeftOne>
 8003980:	f89d 30a0 	ldrb.w	r3, [sp, #160]	@ 0xa0
 8003984:	07d9      	lsls	r1, r3, #31
 8003986:	d404      	bmi.n	8003992 <sc25519_binary_extended_gcd+0x4a>
 8003988:	f89d 30c0 	ldrb.w	r3, [sp, #192]	@ 0xc0
 800398c:	07da      	lsls	r2, r3, #31
 800398e:	a828      	add	r0, sp, #160	@ 0xa0
 8003990:	d5ee      	bpl.n	8003970 <sc25519_binary_extended_gcd+0x28>
 8003992:	a928      	add	r1, sp, #160	@ 0xa0
 8003994:	a818      	add	r0, sp, #96	@ 0x60
 8003996:	f7ff fefb 	bl	8003790 <cpy_256bitvalue>
 800399a:	a930      	add	r1, sp, #192	@ 0xc0
 800399c:	a810      	add	r0, sp, #64	@ 0x40
 800399e:	f7ff fef7 	bl	8003790 <cpy_256bitvalue>
 80039a2:	4668      	mov	r0, sp
 80039a4:	f7ff fef0 	bl	8003788 <setzero_256bitvalue>
 80039a8:	a808      	add	r0, sp, #32
 80039aa:	f7ff fed9 	bl	8003760 <setone_256bitvalue>
 80039ae:	a838      	add	r0, sp, #224	@ 0xe0
 80039b0:	f7ff feea 	bl	8003788 <setzero_256bitvalue>
 80039b4:	a938      	add	r1, sp, #224	@ 0xe0
 80039b6:	a818      	add	r0, sp, #96	@ 0x60
 80039b8:	f7ff ff34 	bl	8003824 <isEqual_256bitvalue>
 80039bc:	2800      	cmp	r0, #0
 80039be:	f000 809d 	beq.w	8003afc <sc25519_binary_extended_gcd+0x1b4>
 80039c2:	f89d 3060 	ldrb.w	r3, [sp, #96]	@ 0x60
 80039c6:	07db      	lsls	r3, r3, #31
 80039c8:	f1ad 0504 	sub.w	r5, sp, #4
 80039cc:	ac07      	add	r4, sp, #28
 80039ce:	d420      	bmi.n	8003a12 <sc25519_binary_extended_gcd+0xca>
 80039d0:	a818      	add	r0, sp, #96	@ 0x60
 80039d2:	f7ff ff0f 	bl	80037f4 <shiftRightOne>
 80039d6:	f89d 3000 	ldrb.w	r3, [sp]
 80039da:	07db      	lsls	r3, r3, #31
 80039dc:	d512      	bpl.n	8003a04 <sc25519_binary_extended_gcd+0xbc>
 80039de:	2200      	movs	r2, #0
 80039e0:	4628      	mov	r0, r5
 80039e2:	af27      	add	r7, sp, #156	@ 0x9c
 80039e4:	4611      	mov	r1, r2
 80039e6:	f850 3f04 	ldr.w	r3, [r0, #4]!
 80039ea:	189b      	adds	r3, r3, r2
 80039ec:	f857 2f04 	ldr.w	r2, [r7, #4]!
 80039f0:	f141 0100 	adc.w	r1, r1, #0
 80039f4:	1a9b      	subs	r3, r3, r2
 80039f6:	f161 0200 	sbc.w	r2, r1, #0
 80039fa:	4284      	cmp	r4, r0
 80039fc:	6003      	str	r3, [r0, #0]
 80039fe:	ea4f 71e2 	mov.w	r1, r2, asr #31
 8003a02:	d1f0      	bne.n	80039e6 <sc25519_binary_extended_gcd+0x9e>
 8003a04:	4668      	mov	r0, sp
 8003a06:	f7ff fef5 	bl	80037f4 <shiftRightOne>
 8003a0a:	f89d 3060 	ldrb.w	r3, [sp, #96]	@ 0x60
 8003a0e:	07df      	lsls	r7, r3, #31
 8003a10:	d5de      	bpl.n	80039d0 <sc25519_binary_extended_gcd+0x88>
 8003a12:	f89d 3040 	ldrb.w	r3, [sp, #64]	@ 0x40
 8003a16:	07d8      	lsls	r0, r3, #31
 8003a18:	af0f      	add	r7, sp, #60	@ 0x3c
 8003a1a:	d421      	bmi.n	8003a60 <sc25519_binary_extended_gcd+0x118>
 8003a1c:	a810      	add	r0, sp, #64	@ 0x40
 8003a1e:	f7ff fee9 	bl	80037f4 <shiftRightOne>
 8003a22:	f89d 3020 	ldrb.w	r3, [sp, #32]
 8003a26:	07d9      	lsls	r1, r3, #31
 8003a28:	d513      	bpl.n	8003a52 <sc25519_binary_extended_gcd+0x10a>
 8003a2a:	2200      	movs	r2, #0
 8003a2c:	4620      	mov	r0, r4
 8003a2e:	f10d 0c9c 	add.w	ip, sp, #156	@ 0x9c
 8003a32:	4611      	mov	r1, r2
 8003a34:	f850 3f04 	ldr.w	r3, [r0, #4]!
 8003a38:	189b      	adds	r3, r3, r2
 8003a3a:	f85c 2f04 	ldr.w	r2, [ip, #4]!
 8003a3e:	f141 0100 	adc.w	r1, r1, #0
 8003a42:	1a9b      	subs	r3, r3, r2
 8003a44:	f161 0200 	sbc.w	r2, r1, #0
 8003a48:	4287      	cmp	r7, r0
 8003a4a:	6003      	str	r3, [r0, #0]
 8003a4c:	ea4f 71e2 	mov.w	r1, r2, asr #31
 8003a50:	d1f0      	bne.n	8003a34 <sc25519_binary_extended_gcd+0xec>
 8003a52:	a808      	add	r0, sp, #32
 8003a54:	f7ff fece 	bl	80037f4 <shiftRightOne>
 8003a58:	f89d 3040 	ldrb.w	r3, [sp, #64]	@ 0x40
 8003a5c:	07da      	lsls	r2, r3, #31
 8003a5e:	d5dd      	bpl.n	8003a1c <sc25519_binary_extended_gcd+0xd4>
 8003a60:	a918      	add	r1, sp, #96	@ 0x60
 8003a62:	a840      	add	r0, sp, #256	@ 0x100
 8003a64:	f7ff fe94 	bl	8003790 <cpy_256bitvalue>
 8003a68:	2200      	movs	r2, #0
 8003a6a:	a83f      	add	r0, sp, #252	@ 0xfc
 8003a6c:	46b8      	mov	r8, r7
 8003a6e:	f50d 7e8e 	add.w	lr, sp, #284	@ 0x11c
 8003a72:	46bc      	mov	ip, r7
 8003a74:	4611      	mov	r1, r2
 8003a76:	f850 3f04 	ldr.w	r3, [r0, #4]!
 8003a7a:	189b      	adds	r3, r3, r2
 8003a7c:	f85c 2f04 	ldr.w	r2, [ip, #4]!
 8003a80:	f141 0100 	adc.w	r1, r1, #0
 8003a84:	1a9b      	subs	r3, r3, r2
 8003a86:	f161 0200 	sbc.w	r2, r1, #0
 8003a8a:	4586      	cmp	lr, r0
 8003a8c:	6003      	str	r3, [r0, #0]
 8003a8e:	ea4f 71e2 	mov.w	r1, r2, asr #31
 8003a92:	d1f0      	bne.n	8003a76 <sc25519_binary_extended_gcd+0x12e>
 8003a94:	9b47      	ldr	r3, [sp, #284]	@ 0x11c
 8003a96:	2b00      	cmp	r3, #0
 8003a98:	da04      	bge.n	8003aa4 <sc25519_binary_extended_gcd+0x15c>
 8003a9a:	a910      	add	r1, sp, #64	@ 0x40
 8003a9c:	a818      	add	r0, sp, #96	@ 0x60
 8003a9e:	f7ff fec1 	bl	8003824 <isEqual_256bitvalue>
 8003aa2:	bb90      	cbnz	r0, 8003b0a <sc25519_binary_extended_gcd+0x1c2>
 8003aa4:	2200      	movs	r2, #0
 8003aa6:	a817      	add	r0, sp, #92	@ 0x5c
 8003aa8:	af1f      	add	r7, sp, #124	@ 0x7c
 8003aaa:	4611      	mov	r1, r2
 8003aac:	f850 3f04 	ldr.w	r3, [r0, #4]!
 8003ab0:	189b      	adds	r3, r3, r2
 8003ab2:	f858 2f04 	ldr.w	r2, [r8, #4]!
 8003ab6:	f141 0100 	adc.w	r1, r1, #0
 8003aba:	1a9b      	subs	r3, r3, r2
 8003abc:	f161 0200 	sbc.w	r2, r1, #0
 8003ac0:	4287      	cmp	r7, r0
 8003ac2:	6003      	str	r3, [r0, #0]
 8003ac4:	ea4f 71e2 	mov.w	r1, r2, asr #31
 8003ac8:	d1f0      	bne.n	8003aac <sc25519_binary_extended_gcd+0x164>
 8003aca:	2200      	movs	r2, #0
 8003acc:	4627      	mov	r7, r4
 8003ace:	4611      	mov	r1, r2
 8003ad0:	f855 3f04 	ldr.w	r3, [r5, #4]!
 8003ad4:	f857 0f04 	ldr.w	r0, [r7, #4]!
 8003ad8:	189b      	adds	r3, r3, r2
 8003ada:	f141 0100 	adc.w	r1, r1, #0
 8003ade:	1a1b      	subs	r3, r3, r0
 8003ae0:	f161 0200 	sbc.w	r2, r1, #0
 8003ae4:	42ac      	cmp	r4, r5
 8003ae6:	602b      	str	r3, [r5, #0]
 8003ae8:	ea4f 71e2 	mov.w	r1, r2, asr #31
 8003aec:	d1f0      	bne.n	8003ad0 <sc25519_binary_extended_gcd+0x188>
 8003aee:	a938      	add	r1, sp, #224	@ 0xe0
 8003af0:	a818      	add	r0, sp, #96	@ 0x60
 8003af2:	f7ff fe97 	bl	8003824 <isEqual_256bitvalue>
 8003af6:	2800      	cmp	r0, #0
 8003af8:	f47f af63 	bne.w	80039c2 <sc25519_binary_extended_gcd+0x7a>
 8003afc:	a908      	add	r1, sp, #32
 8003afe:	4630      	mov	r0, r6
 8003b00:	f7ff fe46 	bl	8003790 <cpy_256bitvalue>
 8003b04:	b048      	add	sp, #288	@ 0x120
 8003b06:	e8bd 81f0 	ldmia.w	sp!, {r4, r5, r6, r7, r8, pc}
 8003b0a:	a817      	add	r0, sp, #92	@ 0x5c
 8003b0c:	2200      	movs	r2, #0
 8003b0e:	4684      	mov	ip, r0
 8003b10:	4611      	mov	r1, r2
 8003b12:	f858 3f04 	ldr.w	r3, [r8, #4]!
 8003b16:	189b      	adds	r3, r3, r2
 8003b18:	f850 2f04 	ldr.w	r2, [r0, #4]!
 8003b1c:	f141 0100 	adc.w	r1, r1, #0
 8003b20:	1a9b      	subs	r3, r3, r2
 8003b22:	f161 0200 	sbc.w	r2, r1, #0
 8003b26:	45c4      	cmp	ip, r8
 8003b28:	f8c8 3000 	str.w	r3, [r8]
 8003b2c:	ea4f 71e2 	mov.w	r1, r2, asr #31
 8003b30:	d1ef      	bne.n	8003b12 <sc25519_binary_extended_gcd+0x1ca>
 8003b32:	2200      	movs	r2, #0
 8003b34:	4611      	mov	r1, r2
 8003b36:	f854 3f04 	ldr.w	r3, [r4, #4]!
 8003b3a:	f855 0f04 	ldr.w	r0, [r5, #4]!
 8003b3e:	189b      	adds	r3, r3, r2
 8003b40:	f141 0100 	adc.w	r1, r1, #0
 8003b44:	1a1b      	subs	r3, r3, r0
 8003b46:	f161 0200 	sbc.w	r2, r1, #0
 8003b4a:	42a7      	cmp	r7, r4
 8003b4c:	6023      	str	r3, [r4, #0]
 8003b4e:	ea4f 71e2 	mov.w	r1, r2, asr #31
 8003b52:	d1f0      	bne.n	8003b36 <sc25519_binary_extended_gcd+0x1ee>
 8003b54:	e72e      	b.n	80039b4 <sc25519_binary_extended_gcd+0x6c>
 8003b56:	bf00      	nop

08003b58 <sc25519_inverse>:
 8003b58:	b570      	push	{r4, r5, r6, lr}
 8003b5a:	4e17      	ldr	r6, [pc, #92]	@ (8003bb8 <sc25519_inverse+0x60>)
 8003b5c:	468c      	mov	ip, r1
 8003b5e:	4604      	mov	r4, r0
 8003b60:	ce0f      	ldmia	r6!, {r0, r1, r2, r3}
 8003b62:	b088      	sub	sp, #32
 8003b64:	466d      	mov	r5, sp
 8003b66:	c50f      	stmia	r5!, {r0, r1, r2, r3}
 8003b68:	e896 000f 	ldmia.w	r6, {r0, r1, r2, r3}
 8003b6c:	e885 000f 	stmia.w	r5, {r0, r1, r2, r3}
 8003b70:	4662      	mov	r2, ip
 8003b72:	4669      	mov	r1, sp
 8003b74:	4620      	mov	r0, r4
 8003b76:	f7ff fee7 	bl	8003948 <sc25519_binary_extended_gcd>
 8003b7a:	69e3      	ldr	r3, [r4, #28]
 8003b7c:	2b00      	cmp	r3, #0
 8003b7e:	da19      	bge.n	8003bb4 <sc25519_inverse+0x5c>
 8003b80:	1f26      	subs	r6, r4, #4
 8003b82:	f104 051c 	add.w	r5, r4, #28
 8003b86:	2100      	movs	r1, #0
 8003b88:	4630      	mov	r0, r6
 8003b8a:	f1ad 0e04 	sub.w	lr, sp, #4
 8003b8e:	468c      	mov	ip, r1
 8003b90:	f850 3f04 	ldr.w	r3, [r0, #4]!
 8003b94:	f85e 2f04 	ldr.w	r2, [lr, #4]!
 8003b98:	185b      	adds	r3, r3, r1
 8003b9a:	f14c 0c00 	adc.w	ip, ip, #0
 8003b9e:	18d2      	adds	r2, r2, r3
 8003ba0:	f14c 0100 	adc.w	r1, ip, #0
 8003ba4:	4285      	cmp	r5, r0
 8003ba6:	6002      	str	r2, [r0, #0]
 8003ba8:	ea4f 7ce1 	mov.w	ip, r1, asr #31
 8003bac:	d1f0      	bne.n	8003b90 <sc25519_inverse+0x38>
 8003bae:	69e3      	ldr	r3, [r4, #28]
 8003bb0:	2b00      	cmp	r3, #0
 8003bb2:	dbe8      	blt.n	8003b86 <sc25519_inverse+0x2e>
 8003bb4:	b008      	add	sp, #32
 8003bb6:	bd70      	pop	{r4, r5, r6, pc}
 8003bb8:	08003fd0 	.word	0x08003fd0

08003bbc <cSwapAndRandomize_asm>:
 8003bbc:	e92d 4ff0 	stmdb	sp!, {r4, r5, r6, r7, r8, r9, sl, fp, lr}
 8003bc0:	b082      	sub	sp, #8
 8003bc2:	f043 0301 	orr.w	r3, r3, #1
 8003bc6:	ea80 0403 	eor.w	r4, r0, r3
 8003bca:	f420 407f 	bic.w	r0, r0, #65280	@ 0xff00
 8003bce:	f424 447f 	bic.w	r4, r4, #65280	@ 0xff00
 8003bd2:	ea4f 3373 	mov.w	r3, r3, ror #13
 8003bd6:	f020 00fe 	bic.w	r0, r0, #254	@ 0xfe
 8003bda:	f024 04fe 	bic.w	r4, r4, #254	@ 0xfe
 8003bde:	f023 2380 	bic.w	r3, r3, #2147516416	@ 0x80008000
 8003be2:	f101 0e1c 	add.w	lr, r1, #28
 8003be6:	f8cd e000 	str.w	lr, [sp]
 8003bea:	69cd      	ldr	r5, [r1, #28]
 8003bec:	69d6      	ldr	r6, [r2, #28]
 8003bee:	fb00 f705 	mul.w	r7, r0, r5
 8003bf2:	fb00 f806 	mul.w	r8, r0, r6
 8003bf6:	fbe4 7a06 	umlal	r7, sl, r4, r6
 8003bfa:	fbe4 8a05 	umlal	r8, sl, r4, r5
 8003bfe:	b2bf      	uxth	r7, r7
 8003c00:	fa1f f888 	uxth.w	r8, r8
 8003c04:	fba3 9a07 	umull	r9, sl, r3, r7
 8003c08:	ea4f 4333 	mov.w	r3, r3, ror #16
 8003c0c:	fba3 be08 	umull	fp, lr, r3, r8
 8003c10:	ea4f 4333 	mov.w	r3, r3, ror #16
 8003c14:	ea4f 4535 	mov.w	r5, r5, ror #16
 8003c18:	ea4f 4636 	mov.w	r6, r6, ror #16
 8003c1c:	fb00 f705 	mul.w	r7, r0, r5
 8003c20:	fb00 f806 	mul.w	r8, r0, r6
 8003c24:	fbe4 7606 	umlal	r7, r6, r4, r6
 8003c28:	fbe4 8505 	umlal	r8, r5, r4, r5
 8003c2c:	ea4f 4707 	mov.w	r7, r7, lsl #16
 8003c30:	ea4f 4808 	mov.w	r8, r8, lsl #16
 8003c34:	fbe3 9a07 	umlal	r9, sl, r3, r7
 8003c38:	ea4f 4333 	mov.w	r3, r3, ror #16
 8003c3c:	fbe3 be08 	umlal	fp, lr, r3, r8
 8003c40:	ea4f 4333 	mov.w	r3, r3, ror #16
 8003c44:	f029 4500 	bic.w	r5, r9, #2147483648	@ 0x80000000
 8003c48:	f02b 4600 	bic.w	r6, fp, #2147483648	@ 0x80000000
 8003c4c:	61d5      	str	r5, [r2, #28]
 8003c4e:	61ce      	str	r6, [r1, #28]
 8003c50:	ea4f 79d9 	mov.w	r9, r9, lsr #31
 8003c54:	ea4f 7bdb 	mov.w	fp, fp, lsr #31
 8003c58:	ea49 094a 	orr.w	r9, r9, sl, lsl #1
 8003c5c:	ea4b 0b4e 	orr.w	fp, fp, lr, lsl #1
 8003c60:	f04f 0513 	mov.w	r5, #19
 8003c64:	fba9 9a05 	umull	r9, sl, r9, r5
 8003c68:	fbab be05 	umull	fp, lr, fp, r5

08003c6c <.loopStart>:
 8003c6c:	9101      	str	r1, [sp, #4]
 8003c6e:	680d      	ldr	r5, [r1, #0]
 8003c70:	6816      	ldr	r6, [r2, #0]
 8003c72:	fb00 f705 	mul.w	r7, r0, r5
 8003c76:	fb00 f806 	mul.w	r8, r0, r6
 8003c7a:	fbe4 7106 	umlal	r7, r1, r4, r6
 8003c7e:	fbe4 8105 	umlal	r8, r1, r4, r5
 8003c82:	b2bf      	uxth	r7, r7
 8003c84:	fa1f f888 	uxth.w	r8, r8
 8003c88:	fbe3 9a07 	umlal	r9, sl, r3, r7
 8003c8c:	ea4f 4333 	mov.w	r3, r3, ror #16
 8003c90:	fbe3 be08 	umlal	fp, lr, r3, r8
 8003c94:	ea4f 4333 	mov.w	r3, r3, ror #16
 8003c98:	ea4f 4535 	mov.w	r5, r5, ror #16
 8003c9c:	ea4f 4636 	mov.w	r6, r6, ror #16
 8003ca0:	fb00 f705 	mul.w	r7, r0, r5
 8003ca4:	fb00 f806 	mul.w	r8, r0, r6
 8003ca8:	fbe4 7606 	umlal	r7, r6, r4, r6
 8003cac:	fbe4 8505 	umlal	r8, r5, r4, r5
 8003cb0:	ea4f 4707 	mov.w	r7, r7, lsl #16
 8003cb4:	ea4f 4808 	mov.w	r8, r8, lsl #16
 8003cb8:	fbe3 9a07 	umlal	r9, sl, r3, r7
 8003cbc:	ea4f 4333 	mov.w	r3, r3, ror #16
 8003cc0:	fbe3 be08 	umlal	fp, lr, r3, r8
 8003cc4:	ea4f 4333 	mov.w	r3, r3, ror #16
 8003cc8:	f8c2 9000 	str.w	r9, [r2]
 8003ccc:	9901      	ldr	r1, [sp, #4]
 8003cce:	f8c1 b000 	str.w	fp, [r1]
 8003cd2:	46d1      	mov	r9, sl
 8003cd4:	46f3      	mov	fp, lr
 8003cd6:	f04f 0a00 	mov.w	sl, #0
 8003cda:	f04f 0e00 	mov.w	lr, #0
 8003cde:	f101 0104 	add.w	r1, r1, #4
 8003ce2:	f102 0204 	add.w	r2, r2, #4
 8003ce6:	9d00      	ldr	r5, [sp, #0]
 8003ce8:	42a9      	cmp	r1, r5
 8003cea:	d1bf      	bne.n	8003c6c <.loopStart>
 8003cec:	6815      	ldr	r5, [r2, #0]
 8003cee:	680e      	ldr	r6, [r1, #0]
 8003cf0:	444d      	add	r5, r9
 8003cf2:	445e      	add	r6, fp
 8003cf4:	6015      	str	r5, [r2, #0]
 8003cf6:	600e      	str	r6, [r1, #0]
 8003cf8:	e8bd 8ff3 	ldmia.w	sp!, {r0, r1, r4, r5, r6, r7, r8, r9, sl, fp, pc}

08003cfc <memset>:
 8003cfc:	0783      	lsls	r3, r0, #30
 8003cfe:	b530      	push	{r4, r5, lr}
 8003d00:	d047      	beq.n	8003d92 <memset+0x96>
 8003d02:	1e54      	subs	r4, r2, #1
 8003d04:	2a00      	cmp	r2, #0
 8003d06:	d03e      	beq.n	8003d86 <memset+0x8a>
 8003d08:	b2ca      	uxtb	r2, r1
 8003d0a:	4603      	mov	r3, r0
 8003d0c:	e001      	b.n	8003d12 <memset+0x16>
 8003d0e:	3c01      	subs	r4, #1
 8003d10:	d339      	bcc.n	8003d86 <memset+0x8a>
 8003d12:	f803 2b01 	strb.w	r2, [r3], #1
 8003d16:	079d      	lsls	r5, r3, #30
 8003d18:	d1f9      	bne.n	8003d0e <memset+0x12>
 8003d1a:	2c03      	cmp	r4, #3
 8003d1c:	d92c      	bls.n	8003d78 <memset+0x7c>
 8003d1e:	b2cd      	uxtb	r5, r1
 8003d20:	eb05 2505 	add.w	r5, r5, r5, lsl #8
 8003d24:	2c0f      	cmp	r4, #15
 8003d26:	eb05 4505 	add.w	r5, r5, r5, lsl #16
 8003d2a:	d935      	bls.n	8003d98 <memset+0x9c>
 8003d2c:	f1a4 0210 	sub.w	r2, r4, #16
 8003d30:	f022 0c0f 	bic.w	ip, r2, #15
 8003d34:	f103 0e10 	add.w	lr, r3, #16
 8003d38:	44e6      	add	lr, ip
 8003d3a:	ea4f 1c12 	mov.w	ip, r2, lsr #4
 8003d3e:	461a      	mov	r2, r3
 8003d40:	e9c2 5500 	strd	r5, r5, [r2]
 8003d44:	e9c2 5502 	strd	r5, r5, [r2, #8]
 8003d48:	3210      	adds	r2, #16
 8003d4a:	4572      	cmp	r2, lr
 8003d4c:	d1f8      	bne.n	8003d40 <memset+0x44>
 8003d4e:	f10c 0201 	add.w	r2, ip, #1
 8003d52:	f014 0f0c 	tst.w	r4, #12
 8003d56:	eb03 1202 	add.w	r2, r3, r2, lsl #4
 8003d5a:	f004 0c0f 	and.w	ip, r4, #15
 8003d5e:	d013      	beq.n	8003d88 <memset+0x8c>
 8003d60:	f1ac 0304 	sub.w	r3, ip, #4
 8003d64:	f023 0303 	bic.w	r3, r3, #3
 8003d68:	3304      	adds	r3, #4
 8003d6a:	4413      	add	r3, r2
 8003d6c:	f842 5b04 	str.w	r5, [r2], #4
 8003d70:	4293      	cmp	r3, r2
 8003d72:	d1fb      	bne.n	8003d6c <memset+0x70>
 8003d74:	f00c 0403 	and.w	r4, ip, #3
 8003d78:	b12c      	cbz	r4, 8003d86 <memset+0x8a>
 8003d7a:	b2c9      	uxtb	r1, r1
 8003d7c:	441c      	add	r4, r3
 8003d7e:	f803 1b01 	strb.w	r1, [r3], #1
 8003d82:	42a3      	cmp	r3, r4
 8003d84:	d1fb      	bne.n	8003d7e <memset+0x82>
 8003d86:	bd30      	pop	{r4, r5, pc}
 8003d88:	4664      	mov	r4, ip
 8003d8a:	4613      	mov	r3, r2
 8003d8c:	2c00      	cmp	r4, #0
 8003d8e:	d1f4      	bne.n	8003d7a <memset+0x7e>
 8003d90:	e7f9      	b.n	8003d86 <memset+0x8a>
 8003d92:	4603      	mov	r3, r0
 8003d94:	4614      	mov	r4, r2
 8003d96:	e7c0      	b.n	8003d1a <memset+0x1e>
 8003d98:	461a      	mov	r2, r3
 8003d9a:	46a4      	mov	ip, r4
 8003d9c:	e7e0      	b.n	8003d60 <memset+0x64>
 8003d9e:	bf00      	nop

08003da0 <rng_get_random_blocking>:
 8003da0:	4b03      	ldr	r3, [pc, #12]	@ (8003db0 <rng_get_random_blocking+0x10>)
 8003da2:	4a04      	ldr	r2, [pc, #16]	@ (8003db4 <rng_get_random_blocking+0x14>)
 8003da4:	6818      	ldr	r0, [r3, #0]
 8003da6:	4350      	muls	r0, r2
 8003da8:	3001      	adds	r0, #1
 8003daa:	6018      	str	r0, [r3, #0]
 8003dac:	4770      	bx	lr
 8003dae:	bf00      	nop
 8003db0:	20000100 	.word	0x20000100
 8003db4:	015a4e35 	.word	0x015a4e35

08003db8 <blocking_handler>:
 8003db8:	e7fe      	b.n	8003db8 <blocking_handler>

08003dba <null_handler>:
 8003dba:	4770      	bx	lr

08003dbc <reset_handler>:
 8003dbc:	b538      	push	{r3, r4, r5, lr}
 8003dbe:	4a1d      	ldr	r2, [pc, #116]	@ (8003e34 <reset_handler+0x78>)
 8003dc0:	4b1d      	ldr	r3, [pc, #116]	@ (8003e38 <reset_handler+0x7c>)
 8003dc2:	491e      	ldr	r1, [pc, #120]	@ (8003e3c <reset_handler+0x80>)
 8003dc4:	428b      	cmp	r3, r1
 8003dc6:	d320      	bcc.n	8003e0a <reset_handler+0x4e>
 8003dc8:	4a1d      	ldr	r2, [pc, #116]	@ (8003e40 <reset_handler+0x84>)
 8003dca:	2100      	movs	r1, #0
 8003dcc:	4293      	cmp	r3, r2
 8003dce:	d321      	bcc.n	8003e14 <reset_handler+0x58>
 8003dd0:	f04f 23e0 	mov.w	r3, #3758153728	@ 0xe000e000
 8003dd4:	4c1b      	ldr	r4, [pc, #108]	@ (8003e44 <reset_handler+0x88>)
 8003dd6:	f8d3 2d14 	ldr.w	r2, [r3, #3348]	@ 0xd14
 8003dda:	4d1b      	ldr	r5, [pc, #108]	@ (8003e48 <reset_handler+0x8c>)
 8003ddc:	f442 7200 	orr.w	r2, r2, #512	@ 0x200
 8003de0:	f8c3 2d14 	str.w	r2, [r3, #3348]	@ 0xd14
 8003de4:	f8d3 2d88 	ldr.w	r2, [r3, #3464]	@ 0xd88
 8003de8:	f442 0270 	orr.w	r2, r2, #15728640	@ 0xf00000
 8003dec:	f8c3 2d88 	str.w	r2, [r3, #3464]	@ 0xd88
 8003df0:	42ac      	cmp	r4, r5
 8003df2:	d312      	bcc.n	8003e1a <reset_handler+0x5e>
 8003df4:	4c15      	ldr	r4, [pc, #84]	@ (8003e4c <reset_handler+0x90>)
 8003df6:	4d16      	ldr	r5, [pc, #88]	@ (8003e50 <reset_handler+0x94>)
 8003df8:	42ac      	cmp	r4, r5
 8003dfa:	d312      	bcc.n	8003e22 <reset_handler+0x66>
 8003dfc:	f7fc f9d6 	bl	80001ac <main>
 8003e00:	4c14      	ldr	r4, [pc, #80]	@ (8003e54 <reset_handler+0x98>)
 8003e02:	4d15      	ldr	r5, [pc, #84]	@ (8003e58 <reset_handler+0x9c>)
 8003e04:	42ac      	cmp	r4, r5
 8003e06:	d310      	bcc.n	8003e2a <reset_handler+0x6e>
 8003e08:	bd38      	pop	{r3, r4, r5, pc}
 8003e0a:	f852 0b04 	ldr.w	r0, [r2], #4
 8003e0e:	f843 0b04 	str.w	r0, [r3], #4
 8003e12:	e7d7      	b.n	8003dc4 <reset_handler+0x8>
 8003e14:	f843 1b04 	str.w	r1, [r3], #4
 8003e18:	e7d8      	b.n	8003dcc <reset_handler+0x10>
 8003e1a:	f854 3b04 	ldr.w	r3, [r4], #4
 8003e1e:	4798      	blx	r3
 8003e20:	e7e6      	b.n	8003df0 <reset_handler+0x34>
 8003e22:	f854 3b04 	ldr.w	r3, [r4], #4
 8003e26:	4798      	blx	r3
 8003e28:	e7e6      	b.n	8003df8 <reset_handler+0x3c>
 8003e2a:	f854 3b04 	ldr.w	r3, [r4], #4
 8003e2e:	4798      	blx	r3
 8003e30:	e7e8      	b.n	8003e04 <reset_handler+0x48>
 8003e32:	bf00      	nop
 8003e34:	08003ff0 	.word	0x08003ff0
 8003e38:	20000000 	.word	0x20000000
 8003e3c:	20000100 	.word	0x20000100
 8003e40:	20000104 	.word	0x20000104
 8003e44:	08003ff0 	.word	0x08003ff0
 8003e48:	08003ff0 	.word	0x08003ff0
 8003e4c:	08003ff0 	.word	0x08003ff0
 8003e50:	08003ff0 	.word	0x08003ff0
 8003e54:	08003ff0 	.word	0x08003ff0
 8003e58:	08003ff0 	.word	0x08003ff0

08003e5c <public_key>:
 8003e5c:	00000009 00000000 00000000 00000000     ................
	...
 8003e80:	f89ec71b 7ab224e8 419bc59d 9d9c5a63     .....$.z...AcZ..
 8003e90:	afd39eab c5340fa6 c4a1e0a5 0d3a2974     ......4.....t):.
 8003ea0:	5bef0923 2fdb4632 00000000 00000000     #..[2F./........
	...
 8003ec0:	ef4b520f 8f25127e d9fceed9 1eb268e4     .RK.~.%......h..
 8003ed0:	cc903d54 47b3544a 96c58cf4 32f4eb9f     T=..JT.G.......2
 8003ee0:	3eed00b8 a77fc6e5 59302853 895add44     ...>....S(0YD.Z.
 8003ef0:	dd603f66 bb481ecc 195bf5e0 179d3025     f?`...H...[.%0..
 8003f00:	3265bb96 8fa12004 0e2c0453 dddb51dd     ..e2. ..S.,..Q..
 8003f10:	65b9f0ac 9244772f 68a9eb64 5383ad35     ...e/wD.d..h5..S
 8003f20:	8caad036 3f3437fe db1d2751 d30fd44b     6....74?Q'..K...
 8003f30:	a0807062 5f485ce5 534f4adf 32618be2     bp...\H_.JOS..a2

08003f40 <CON486662>:
 8003f40:	00076d06 00000000 00000000 00000000     .m..............
	...
 8003f60:	ffffffec ffffffff ffffffff ffffffff     ................
 8003f70:	ffffffff ffffffff ffffffff 7fffffff     ................

08003f80 <u32_mu.0>:
 8003f80:	0a2c131b ed9ce5a3 086329a7 2106215d     ..,......)c.]!.!
 8003f90:	ffffffeb ffffffff ffffffff ffffffff     ................
 8003fa0:	0000000f 00000000                       ........

08003fa8 <sc25519_scalar>:
 8003fa8:	5cf5d3ed 5812631a a2f79cd6 14def9de     ...\.c.X........
	...
 8003fc4:	10000000 00000000 00000000 5cf5d3ed     ...............\
 8003fd4:	5812631a a2f79cd6 14def9de 00000000     .c.X............
	...
 8003fec:	10000000                                ....
