
../../fault-finder/demos/sca25519-ephemeral/bins/main.elf:     file format elf32-littlearm


Disassembly of section .text:

08000000 <vector_table>:
 8000000:	00 00 01 10 c5 8b 00 08 c1 8b 00 08 bf 8b 00 08     ................
 8000010:	bf 8b 00 08 bf 8b 00 08 bf 8b 00 08 00 00 00 00     ................
	...
 800002c:	c1 8b 00 08 c1 8b 00 08 00 00 00 00 c1 8b 00 08     ................
 800003c:	c1 8b 00 08 bf 8b 00 08 bf 8b 00 08 bf 8b 00 08     ................
 800004c:	bf 8b 00 08 bf 8b 00 08 bf 8b 00 08 bf 8b 00 08     ................
 800005c:	bf 8b 00 08 bf 8b 00 08 bf 8b 00 08 bf 8b 00 08     ................
 800006c:	bf 8b 00 08 bf 8b 00 08 bf 8b 00 08 bf 8b 00 08     ................
 800007c:	bf 8b 00 08 f9 04 00 08 21 05 00 08 bf 8b 00 08     ........!.......
 800008c:	bf 8b 00 08 bf 8b 00 08 bf 8b 00 08 bf 8b 00 08     ................
 800009c:	bf 8b 00 08 bf 8b 00 08 bf 8b 00 08 bf 8b 00 08     ................
 80000ac:	bf 8b 00 08 bf 8b 00 08 bf 8b 00 08 bf 8b 00 08     ................
 80000bc:	bf 8b 00 08 bf 8b 00 08 bf 8b 00 08 bf 8b 00 08     ................
 80000cc:	bf 8b 00 08 bf 8b 00 08 bf 8b 00 08 bf 8b 00 08     ................
 80000dc:	bf 8b 00 08 bf 8b 00 08 bf 8b 00 08 bf 8b 00 08     ................
 80000ec:	bf 8b 00 08 bf 8b 00 08 bf 8b 00 08 bf 8b 00 08     ................
 80000fc:	bf 8b 00 08 bf 8b 00 08 bf 8b 00 08 bf 8b 00 08     ................
 800010c:	bf 8b 00 08 bf 8b 00 08 bf 8b 00 08 bf 8b 00 08     ................
 800011c:	bf 8b 00 08 bf 8b 00 08 bf 8b 00 08 bf 8b 00 08     ................
 800012c:	bf 8b 00 08 bf 8b 00 08 bf 8b 00 08 bf 8b 00 08     ................
 800013c:	bf 8b 00 08 bf 8b 00 08 bf 8b 00 08 bf 8b 00 08     ................
 800014c:	bf 8b 00 08 bf 8b 00 08 bf 8b 00 08 bf 8b 00 08     ................
 800015c:	bf 8b 00 08 bf 8b 00 08 bf 8b 00 08 bf 8b 00 08     ................
 800016c:	bf 8b 00 08 bf 8b 00 08 bf 8b 00 08 bf 8b 00 08     ................
 800017c:	bf 8b 00 08 bf 8b 00 08 bf 8b 00 08 bf 8b 00 08     ................
 800018c:	bf 8b 00 08 bf 8b 00 08 bf 8b 00 08 bf 8b 00 08     ................
 800019c:	bf 8b 00 08 bf 8b 00 08 bf 8b 00 08 bf 8b 00 08     ................

080001ac <main>:
 80001ac:	b500      	push	{lr}
 80001ae:	b089      	sub	sp, #36	; 0x24
 80001b0:	f008 fc46 	bl	8008a40 <rng_enable>
 80001b4:	4903      	ldr	r1, [pc, #12]	; (80001c4 <main+0x18>)
 80001b6:	4668      	mov	r0, sp
 80001b8:	f001 fb36 	bl	8001828 <crypto_scalarmult_base_curve25519>
 80001bc:	2000      	movs	r0, #0
 80001be:	b009      	add	sp, #36	; 0x24
 80001c0:	f85d fb04 	ldr.w	pc, [sp], #4
 80001c4:	08008cd0 	.word	0x08008cd0

080001c8 <clock_setup>:
 80001c8:	b508      	push	{r3, lr}
 80001ca:	480f      	ldr	r0, [pc, #60]	; (8000208 <clock_setup+0x40>)
 80001cc:	f008 fbbe 	bl	800894c <rcc_clock_setup_pll>
 80001d0:	f44f 60c0 	mov.w	r0, #1536	; 0x600
 80001d4:	f008 fab2 	bl	800873c <rcc_periph_clock_enable>
 80001d8:	f640 0011 	movw	r0, #2065	; 0x811
 80001dc:	f008 faae 	bl	800873c <rcc_periph_clock_enable>
 80001e0:	f240 6002 	movw	r0, #1538	; 0x602
 80001e4:	f008 faaa 	bl	800873c <rcc_periph_clock_enable>
 80001e8:	f640 0013 	movw	r0, #2067	; 0x813
 80001ec:	f008 faa6 	bl	800873c <rcc_periph_clock_enable>
 80001f0:	f240 6015 	movw	r0, #1557	; 0x615
 80001f4:	f008 faa2 	bl	800873c <rcc_periph_clock_enable>
 80001f8:	f240 6086 	movw	r0, #1670	; 0x686
 80001fc:	f008 fa9e 	bl	800873c <rcc_periph_clock_enable>
 8000200:	e8bd 4008 	ldmia.w	sp!, {r3, lr}
 8000204:	f008 ba3e 	b.w	8008684 <flash_prefetch_enable>
 8000208:	08008cf0 	.word	0x08008cf0

0800020c <gpio_setup>:
 800020c:	b510      	push	{r4, lr}
 800020e:	230c      	movs	r3, #12
 8000210:	4c0c      	ldr	r4, [pc, #48]	; (8000244 <gpio_setup+0x38>)
 8000212:	480d      	ldr	r0, [pc, #52]	; (8000248 <gpio_setup+0x3c>)
 8000214:	2200      	movs	r2, #0
 8000216:	2102      	movs	r1, #2
 8000218:	f008 fa46 	bl	80086a8 <gpio_mode_setup>
 800021c:	480a      	ldr	r0, [pc, #40]	; (8000248 <gpio_setup+0x3c>)
 800021e:	220c      	movs	r2, #12
 8000220:	2107      	movs	r1, #7
 8000222:	f008 fa61 	bl	80086e8 <gpio_set_af>
 8000226:	4620      	mov	r0, r4
 8000228:	2200      	movs	r2, #0
 800022a:	2102      	movs	r1, #2
 800022c:	f44f 6380 	mov.w	r3, #1024	; 0x400
 8000230:	f008 fa3a 	bl	80086a8 <gpio_mode_setup>
 8000234:	4620      	mov	r0, r4
 8000236:	f44f 6280 	mov.w	r2, #1024	; 0x400
 800023a:	e8bd 4010 	ldmia.w	sp!, {r4, lr}
 800023e:	2108      	movs	r1, #8
 8000240:	f008 ba52 	b.w	80086e8 <gpio_set_af>
 8000244:	40020800 	.word	0x40020800
 8000248:	40020000 	.word	0x40020000

0800024c <usart_setup>:
 800024c:	b570      	push	{r4, r5, r6, lr}
 800024e:	4d1d      	ldr	r5, [pc, #116]	; (80002c4 <usart_setup+0x78>)
 8000250:	4c1d      	ldr	r4, [pc, #116]	; (80002c8 <usart_setup+0x7c>)
 8000252:	4606      	mov	r6, r0
 8000254:	4601      	mov	r1, r0
 8000256:	4628      	mov	r0, r5
 8000258:	f008 fc3c 	bl	8008ad4 <usart_set_baudrate>
 800025c:	4628      	mov	r0, r5
 800025e:	2108      	movs	r1, #8
 8000260:	f008 fc4e 	bl	8008b00 <usart_set_databits>
 8000264:	4628      	mov	r0, r5
 8000266:	2100      	movs	r1, #0
 8000268:	f008 fc53 	bl	8008b12 <usart_set_stopbits>
 800026c:	4628      	mov	r0, r5
 800026e:	210c      	movs	r1, #12
 8000270:	f008 fc5b 	bl	8008b2a <usart_set_mode>
 8000274:	4628      	mov	r0, r5
 8000276:	2100      	movs	r1, #0
 8000278:	f008 fc51 	bl	8008b1e <usart_set_parity>
 800027c:	4628      	mov	r0, r5
 800027e:	2100      	movs	r1, #0
 8000280:	f008 fc59 	bl	8008b36 <usart_set_flow_control>
 8000284:	4628      	mov	r0, r5
 8000286:	f008 fc5c 	bl	8008b42 <usart_enable>
 800028a:	4631      	mov	r1, r6
 800028c:	4620      	mov	r0, r4
 800028e:	f008 fc21 	bl	8008ad4 <usart_set_baudrate>
 8000292:	4620      	mov	r0, r4
 8000294:	2108      	movs	r1, #8
 8000296:	f008 fc33 	bl	8008b00 <usart_set_databits>
 800029a:	4620      	mov	r0, r4
 800029c:	2100      	movs	r1, #0
 800029e:	f008 fc38 	bl	8008b12 <usart_set_stopbits>
 80002a2:	4620      	mov	r0, r4
 80002a4:	2108      	movs	r1, #8
 80002a6:	f008 fc40 	bl	8008b2a <usart_set_mode>
 80002aa:	4620      	mov	r0, r4
 80002ac:	2100      	movs	r1, #0
 80002ae:	f008 fc36 	bl	8008b1e <usart_set_parity>
 80002b2:	4620      	mov	r0, r4
 80002b4:	2100      	movs	r1, #0
 80002b6:	f008 fc3e 	bl	8008b36 <usart_set_flow_control>
 80002ba:	4620      	mov	r0, r4
 80002bc:	e8bd 4070 	ldmia.w	sp!, {r4, r5, r6, lr}
 80002c0:	f008 bc3f 	b.w	8008b42 <usart_enable>
 80002c4:	40004400 	.word	0x40004400
 80002c8:	40004c00 	.word	0x40004c00

080002cc <dma_request_setup>:
 80002cc:	b510      	push	{r4, lr}
 80002ce:	4c20      	ldr	r4, [pc, #128]	; (8000350 <dma_request_setup+0x84>)
 80002d0:	2105      	movs	r1, #5
 80002d2:	4620      	mov	r0, r4
 80002d4:	f008 f8f4 	bl	80084c0 <dma_stream_reset>
 80002d8:	2010      	movs	r0, #16
 80002da:	f008 fcbf 	bl	8008c5c <nvic_enable_irq>
 80002de:	4620      	mov	r0, r4
 80002e0:	4a1c      	ldr	r2, [pc, #112]	; (8000354 <dma_request_setup+0x88>)
 80002e2:	2105      	movs	r1, #5
 80002e4:	f008 f9b3 	bl	800864e <dma_set_peripheral_address>
 80002e8:	4620      	mov	r0, r4
 80002ea:	2200      	movs	r2, #0
 80002ec:	2105      	movs	r1, #5
 80002ee:	f008 f91c 	bl	800852a <dma_set_transfer_mode>
 80002f2:	4620      	mov	r0, r4
 80002f4:	2200      	movs	r2, #0
 80002f6:	2105      	movs	r1, #5
 80002f8:	f008 f93f 	bl	800857a <dma_set_peripheral_size>
 80002fc:	4620      	mov	r0, r4
 80002fe:	2200      	movs	r2, #0
 8000300:	2105      	movs	r1, #5
 8000302:	f008 f92e 	bl	8008562 <dma_set_memory_size>
 8000306:	f44f 3240 	mov.w	r2, #196608	; 0x30000
 800030a:	4620      	mov	r0, r4
 800030c:	2105      	movs	r1, #5
 800030e:	f008 f91c 	bl	800854a <dma_set_priority>
 8000312:	4620      	mov	r0, r4
 8000314:	2100      	movs	r1, #0
 8000316:	f008 f945 	bl	80085a4 <dma_disable_peripheral_increment_mode>
 800031a:	4620      	mov	r0, r4
 800031c:	2105      	movs	r1, #5
 800031e:	f008 f938 	bl	8008592 <dma_enable_memory_increment_mode>
 8000322:	4620      	mov	r0, r4
 8000324:	2105      	movs	r1, #5
 8000326:	f008 f94e 	bl	80085c6 <dma_disable_transfer_error_interrupt>
 800032a:	4620      	mov	r0, r4
 800032c:	2105      	movs	r1, #5
 800032e:	f008 f953 	bl	80085d8 <dma_disable_half_transfer_interrupt>
 8000332:	4620      	mov	r0, r4
 8000334:	2105      	movs	r1, #5
 8000336:	f008 f966 	bl	8008606 <dma_disable_direct_mode_error_interrupt>
 800033a:	4620      	mov	r0, r4
 800033c:	2105      	movs	r1, #5
 800033e:	f008 f96b 	bl	8008618 <dma_disable_fifo_error_interrupt>
 8000342:	4620      	mov	r0, r4
 8000344:	2105      	movs	r1, #5
 8000346:	e8bd 4010 	ldmia.w	sp!, {r4, lr}
 800034a:	f008 b94e 	b.w	80085ea <dma_enable_transfer_complete_interrupt>
 800034e:	bf00      	nop
 8000350:	40026000 	.word	0x40026000
 8000354:	40004404 	.word	0x40004404

08000358 <dma_transmit_setup>:
 8000358:	b510      	push	{r4, lr}
 800035a:	4c20      	ldr	r4, [pc, #128]	; (80003dc <dma_transmit_setup+0x84>)
 800035c:	2106      	movs	r1, #6
 800035e:	4620      	mov	r0, r4
 8000360:	f008 f8ae 	bl	80084c0 <dma_stream_reset>
 8000364:	2011      	movs	r0, #17
 8000366:	f008 fc79 	bl	8008c5c <nvic_enable_irq>
 800036a:	4620      	mov	r0, r4
 800036c:	4a1c      	ldr	r2, [pc, #112]	; (80003e0 <dma_transmit_setup+0x88>)
 800036e:	2106      	movs	r1, #6
 8000370:	f008 f96d 	bl	800864e <dma_set_peripheral_address>
 8000374:	4620      	mov	r0, r4
 8000376:	2240      	movs	r2, #64	; 0x40
 8000378:	2106      	movs	r1, #6
 800037a:	f008 f8d6 	bl	800852a <dma_set_transfer_mode>
 800037e:	4620      	mov	r0, r4
 8000380:	2200      	movs	r2, #0
 8000382:	2106      	movs	r1, #6
 8000384:	f008 f8f9 	bl	800857a <dma_set_peripheral_size>
 8000388:	4620      	mov	r0, r4
 800038a:	2200      	movs	r2, #0
 800038c:	2106      	movs	r1, #6
 800038e:	f008 f8e8 	bl	8008562 <dma_set_memory_size>
 8000392:	f44f 3240 	mov.w	r2, #196608	; 0x30000
 8000396:	4620      	mov	r0, r4
 8000398:	2106      	movs	r1, #6
 800039a:	f008 f8d6 	bl	800854a <dma_set_priority>
 800039e:	4620      	mov	r0, r4
 80003a0:	2100      	movs	r1, #0
 80003a2:	f008 f8ff 	bl	80085a4 <dma_disable_peripheral_increment_mode>
 80003a6:	4620      	mov	r0, r4
 80003a8:	2106      	movs	r1, #6
 80003aa:	f008 f8f2 	bl	8008592 <dma_enable_memory_increment_mode>
 80003ae:	4620      	mov	r0, r4
 80003b0:	2106      	movs	r1, #6
 80003b2:	f008 f908 	bl	80085c6 <dma_disable_transfer_error_interrupt>
 80003b6:	4620      	mov	r0, r4
 80003b8:	2106      	movs	r1, #6
 80003ba:	f008 f90d 	bl	80085d8 <dma_disable_half_transfer_interrupt>
 80003be:	4620      	mov	r0, r4
 80003c0:	2106      	movs	r1, #6
 80003c2:	f008 f920 	bl	8008606 <dma_disable_direct_mode_error_interrupt>
 80003c6:	4620      	mov	r0, r4
 80003c8:	2106      	movs	r1, #6
 80003ca:	f008 f925 	bl	8008618 <dma_disable_fifo_error_interrupt>
 80003ce:	4620      	mov	r0, r4
 80003d0:	2106      	movs	r1, #6
 80003d2:	e8bd 4010 	ldmia.w	sp!, {r4, lr}
 80003d6:	f008 b908 	b.w	80085ea <dma_enable_transfer_complete_interrupt>
 80003da:	bf00      	nop
 80003dc:	40026000 	.word	0x40026000
 80003e0:	40004404 	.word	0x40004404

080003e4 <dma_transmit>:
 80003e4:	b538      	push	{r3, r4, r5, lr}
 80003e6:	4c0d      	ldr	r4, [pc, #52]	; (800041c <dma_transmit+0x38>)
 80003e8:	4602      	mov	r2, r0
 80003ea:	460d      	mov	r5, r1
 80003ec:	4620      	mov	r0, r4
 80003ee:	2106      	movs	r1, #6
 80003f0:	f008 f935 	bl	800865e <dma_set_memory_address>
 80003f4:	b2aa      	uxth	r2, r5
 80003f6:	4620      	mov	r0, r4
 80003f8:	2106      	movs	r1, #6
 80003fa:	f008 f93d 	bl	8008678 <dma_set_number_of_data>
 80003fe:	4620      	mov	r0, r4
 8000400:	f04f 6200 	mov.w	r2, #134217728	; 0x8000000
 8000404:	2106      	movs	r1, #6
 8000406:	f008 f8d6 	bl	80085b6 <dma_channel_select>
 800040a:	4620      	mov	r0, r4
 800040c:	2106      	movs	r1, #6
 800040e:	f008 f90c 	bl	800862a <dma_enable_stream>
 8000412:	e8bd 4038 	ldmia.w	sp!, {r3, r4, r5, lr}
 8000416:	4802      	ldr	r0, [pc, #8]	; (8000420 <dma_transmit+0x3c>)
 8000418:	f008 bbb7 	b.w	8008b8a <usart_enable_tx_dma>
 800041c:	40026000 	.word	0x40026000
 8000420:	40004400 	.word	0x40004400

08000424 <dma_done>:
 8000424:	4a04      	ldr	r2, [pc, #16]	; (8000438 <dma_done+0x14>)
 8000426:	4b05      	ldr	r3, [pc, #20]	; (800043c <dma_done+0x18>)
 8000428:	6810      	ldr	r0, [r2, #0]
 800042a:	681b      	ldr	r3, [r3, #0]
 800042c:	4318      	orrs	r0, r3
 800042e:	43c0      	mvns	r0, r0
 8000430:	f000 0001 	and.w	r0, r0, #1
 8000434:	4770      	bx	lr
 8000436:	bf00      	nop
 8000438:	40026088 	.word	0x40026088
 800043c:	400260a0 	.word	0x400260a0

08000440 <send_USART_str>:
 8000440:	b570      	push	{r4, r5, r6, lr}
 8000442:	7801      	ldrb	r1, [r0, #0]
 8000444:	4604      	mov	r4, r0
 8000446:	b141      	cbz	r1, 800045a <send_USART_str+0x1a>
 8000448:	4e12      	ldr	r6, [pc, #72]	; (8000494 <send_USART_str+0x54>)
 800044a:	4605      	mov	r5, r0
 800044c:	4630      	mov	r0, r6
 800044e:	f008 fb7d 	bl	8008b4c <usart_send_blocking>
 8000452:	f815 1f01 	ldrb.w	r1, [r5, #1]!
 8000456:	2900      	cmp	r1, #0
 8000458:	d1f8      	bne.n	800044c <send_USART_str+0xc>
 800045a:	480e      	ldr	r0, [pc, #56]	; (8000494 <send_USART_str+0x54>)
 800045c:	210d      	movs	r1, #13
 800045e:	f008 fb75 	bl	8008b4c <usart_send_blocking>
 8000462:	210a      	movs	r1, #10
 8000464:	480b      	ldr	r0, [pc, #44]	; (8000494 <send_USART_str+0x54>)
 8000466:	f008 fb71 	bl	8008b4c <usart_send_blocking>
 800046a:	7821      	ldrb	r1, [r4, #0]
 800046c:	b139      	cbz	r1, 800047e <send_USART_str+0x3e>
 800046e:	4d0a      	ldr	r5, [pc, #40]	; (8000498 <send_USART_str+0x58>)
 8000470:	4628      	mov	r0, r5
 8000472:	f008 fb6b 	bl	8008b4c <usart_send_blocking>
 8000476:	f814 1f01 	ldrb.w	r1, [r4, #1]!
 800047a:	2900      	cmp	r1, #0
 800047c:	d1f8      	bne.n	8000470 <send_USART_str+0x30>
 800047e:	4806      	ldr	r0, [pc, #24]	; (8000498 <send_USART_str+0x58>)
 8000480:	210d      	movs	r1, #13
 8000482:	f008 fb63 	bl	8008b4c <usart_send_blocking>
 8000486:	e8bd 4070 	ldmia.w	sp!, {r4, r5, r6, lr}
 800048a:	4803      	ldr	r0, [pc, #12]	; (8000498 <send_USART_str+0x58>)
 800048c:	210a      	movs	r1, #10
 800048e:	f008 bb5d 	b.w	8008b4c <usart_send_blocking>
 8000492:	bf00      	nop
 8000494:	40004400 	.word	0x40004400
 8000498:	40004c00 	.word	0x40004c00

0800049c <send_USART_bytes>:
 800049c:	2900      	cmp	r1, #0
 800049e:	dd14      	ble.n	80004ca <send_USART_bytes+0x2e>
 80004a0:	b5f8      	push	{r3, r4, r5, r6, r7, lr}
 80004a2:	1e44      	subs	r4, r0, #1
 80004a4:	4f09      	ldr	r7, [pc, #36]	; (80004cc <send_USART_bytes+0x30>)
 80004a6:	1866      	adds	r6, r4, r1
 80004a8:	4625      	mov	r5, r4
 80004aa:	f815 1f01 	ldrb.w	r1, [r5, #1]!
 80004ae:	4638      	mov	r0, r7
 80004b0:	f008 fb4c 	bl	8008b4c <usart_send_blocking>
 80004b4:	42b5      	cmp	r5, r6
 80004b6:	d1f8      	bne.n	80004aa <send_USART_bytes+0xe>
 80004b8:	4d05      	ldr	r5, [pc, #20]	; (80004d0 <send_USART_bytes+0x34>)
 80004ba:	f814 1f01 	ldrb.w	r1, [r4, #1]!
 80004be:	4628      	mov	r0, r5
 80004c0:	f008 fb44 	bl	8008b4c <usart_send_blocking>
 80004c4:	42b4      	cmp	r4, r6
 80004c6:	d1f8      	bne.n	80004ba <send_USART_bytes+0x1e>
 80004c8:	bdf8      	pop	{r3, r4, r5, r6, r7, pc}
 80004ca:	4770      	bx	lr
 80004cc:	40004400 	.word	0x40004400
 80004d0:	40004c00 	.word	0x40004c00

080004d4 <recv_USART_bytes>:
 80004d4:	2900      	cmp	r1, #0
 80004d6:	dd0b      	ble.n	80004f0 <recv_USART_bytes+0x1c>
 80004d8:	b570      	push	{r4, r5, r6, lr}
 80004da:	1e44      	subs	r4, r0, #1
 80004dc:	4e05      	ldr	r6, [pc, #20]	; (80004f4 <recv_USART_bytes+0x20>)
 80004de:	1865      	adds	r5, r4, r1
 80004e0:	4630      	mov	r0, r6
 80004e2:	f008 fb3f 	bl	8008b64 <usart_recv_blocking>
 80004e6:	f804 0f01 	strb.w	r0, [r4, #1]!
 80004ea:	42ac      	cmp	r4, r5
 80004ec:	d1f8      	bne.n	80004e0 <recv_USART_bytes+0xc>
 80004ee:	bd70      	pop	{r4, r5, r6, pc}
 80004f0:	4770      	bx	lr
 80004f2:	bf00      	nop
 80004f4:	40004400 	.word	0x40004400

080004f8 <dma1_stream5_isr>:
 80004f8:	b510      	push	{r4, lr}
 80004fa:	4c07      	ldr	r4, [pc, #28]	; (8000518 <dma1_stream5_isr+0x20>)
 80004fc:	4807      	ldr	r0, [pc, #28]	; (800051c <dma1_stream5_isr+0x24>)
 80004fe:	f008 fb3f 	bl	8008b80 <usart_disable_rx_dma>
 8000502:	4620      	mov	r0, r4
 8000504:	2105      	movs	r1, #5
 8000506:	2220      	movs	r2, #32
 8000508:	f008 f800 	bl	800850c <dma_clear_interrupt_flags>
 800050c:	4620      	mov	r0, r4
 800050e:	2105      	movs	r1, #5
 8000510:	e8bd 4010 	ldmia.w	sp!, {r4, lr}
 8000514:	f008 b892 	b.w	800863c <dma_disable_stream>
 8000518:	40026000 	.word	0x40026000
 800051c:	40004400 	.word	0x40004400

08000520 <dma1_stream6_isr>:
 8000520:	b510      	push	{r4, lr}
 8000522:	4c07      	ldr	r4, [pc, #28]	; (8000540 <dma1_stream6_isr+0x20>)
 8000524:	4807      	ldr	r0, [pc, #28]	; (8000544 <dma1_stream6_isr+0x24>)
 8000526:	f008 fb35 	bl	8008b94 <usart_disable_tx_dma>
 800052a:	4620      	mov	r0, r4
 800052c:	2106      	movs	r1, #6
 800052e:	2220      	movs	r2, #32
 8000530:	f007 ffec 	bl	800850c <dma_clear_interrupt_flags>
 8000534:	4620      	mov	r0, r4
 8000536:	2106      	movs	r1, #6
 8000538:	e8bd 4010 	ldmia.w	sp!, {r4, lr}
 800053c:	f008 b87e 	b.w	800863c <dma_disable_stream>
 8000540:	40026000 	.word	0x40026000
 8000544:	40004400 	.word	0x40004400

08000548 <signal_host>:
 8000548:	b508      	push	{r3, lr}
 800054a:	4805      	ldr	r0, [pc, #20]	; (8000560 <signal_host+0x18>)
 800054c:	2178      	movs	r1, #120	; 0x78
 800054e:	f008 fafd 	bl	8008b4c <usart_send_blocking>
 8000552:	e8bd 4008 	ldmia.w	sp!, {r3, lr}
 8000556:	4803      	ldr	r0, [pc, #12]	; (8000564 <signal_host+0x1c>)
 8000558:	2178      	movs	r1, #120	; 0x78
 800055a:	f008 baf7 	b.w	8008b4c <usart_send_blocking>
 800055e:	bf00      	nop
 8000560:	40004400 	.word	0x40004400
 8000564:	40004c00 	.word	0x40004c00

08000568 <dma_request>:
 8000568:	b538      	push	{r3, r4, r5, lr}
 800056a:	4c0e      	ldr	r4, [pc, #56]	; (80005a4 <dma_request+0x3c>)
 800056c:	4602      	mov	r2, r0
 800056e:	460d      	mov	r5, r1
 8000570:	4620      	mov	r0, r4
 8000572:	2105      	movs	r1, #5
 8000574:	f008 f873 	bl	800865e <dma_set_memory_address>
 8000578:	b2aa      	uxth	r2, r5
 800057a:	4620      	mov	r0, r4
 800057c:	2105      	movs	r1, #5
 800057e:	f008 f87b 	bl	8008678 <dma_set_number_of_data>
 8000582:	4620      	mov	r0, r4
 8000584:	f04f 6200 	mov.w	r2, #134217728	; 0x8000000
 8000588:	2105      	movs	r1, #5
 800058a:	f008 f814 	bl	80085b6 <dma_channel_select>
 800058e:	4620      	mov	r0, r4
 8000590:	2105      	movs	r1, #5
 8000592:	f008 f84a 	bl	800862a <dma_enable_stream>
 8000596:	f7ff ffd7 	bl	8000548 <signal_host>
 800059a:	e8bd 4038 	ldmia.w	sp!, {r3, r4, r5, lr}
 800059e:	4802      	ldr	r0, [pc, #8]	; (80005a8 <dma_request+0x40>)
 80005a0:	f008 bae9 	b.w	8008b76 <usart_enable_rx_dma>
 80005a4:	40026000 	.word	0x40026000
 80005a8:	40004400 	.word	0x40004400

080005ac <fe25519_reduceTo256Bits_asm>:
 80005ac:	b5f0      	push	{r4, r5, r6, r7, lr}
 80005ae:	6bca      	ldr	r2, [r1, #60]	; 0x3c
 80005b0:	0c13      	lsrs	r3, r2, #16
 80005b2:	b292      	uxth	r2, r2
 80005b4:	2726      	movs	r7, #38	; 0x26
 80005b6:	437a      	muls	r2, r7
 80005b8:	437b      	muls	r3, r7
 80005ba:	69cc      	ldr	r4, [r1, #28]
 80005bc:	0c1d      	lsrs	r5, r3, #16
 80005be:	041b      	lsls	r3, r3, #16
 80005c0:	2600      	movs	r6, #0
 80005c2:	18a4      	adds	r4, r4, r2
 80005c4:	4175      	adcs	r5, r6
 80005c6:	18e4      	adds	r4, r4, r3
 80005c8:	4175      	adcs	r5, r6
 80005ca:	0062      	lsls	r2, r4, #1
 80005cc:	0852      	lsrs	r2, r2, #1
 80005ce:	61c2      	str	r2, [r0, #28]
 80005d0:	0fe4      	lsrs	r4, r4, #31
 80005d2:	006d      	lsls	r5, r5, #1
 80005d4:	432c      	orrs	r4, r5
 80005d6:	2213      	movs	r2, #19
 80005d8:	4362      	muls	r2, r4
 80005da:	680c      	ldr	r4, [r1, #0]
 80005dc:	1912      	adds	r2, r2, r4
 80005de:	2300      	movs	r3, #0
 80005e0:	4173      	adcs	r3, r6
 80005e2:	6a0c      	ldr	r4, [r1, #32]
 80005e4:	0c25      	lsrs	r5, r4, #16
 80005e6:	b2a4      	uxth	r4, r4
 80005e8:	437d      	muls	r5, r7
 80005ea:	437c      	muls	r4, r7
 80005ec:	1912      	adds	r2, r2, r4
 80005ee:	4173      	adcs	r3, r6
 80005f0:	042c      	lsls	r4, r5, #16
 80005f2:	0c2d      	lsrs	r5, r5, #16
 80005f4:	1912      	adds	r2, r2, r4
 80005f6:	416b      	adcs	r3, r5
 80005f8:	6002      	str	r2, [r0, #0]
 80005fa:	684c      	ldr	r4, [r1, #4]
 80005fc:	191b      	adds	r3, r3, r4
 80005fe:	2200      	movs	r2, #0
 8000600:	4172      	adcs	r2, r6
 8000602:	6a4c      	ldr	r4, [r1, #36]	; 0x24
 8000604:	0c25      	lsrs	r5, r4, #16
 8000606:	b2a4      	uxth	r4, r4
 8000608:	437d      	muls	r5, r7
 800060a:	437c      	muls	r4, r7
 800060c:	191b      	adds	r3, r3, r4
 800060e:	4172      	adcs	r2, r6
 8000610:	042c      	lsls	r4, r5, #16
 8000612:	0c2d      	lsrs	r5, r5, #16
 8000614:	191b      	adds	r3, r3, r4
 8000616:	416a      	adcs	r2, r5
 8000618:	6043      	str	r3, [r0, #4]
 800061a:	688c      	ldr	r4, [r1, #8]
 800061c:	1912      	adds	r2, r2, r4
 800061e:	2300      	movs	r3, #0
 8000620:	4173      	adcs	r3, r6
 8000622:	6a8c      	ldr	r4, [r1, #40]	; 0x28
 8000624:	0c25      	lsrs	r5, r4, #16
 8000626:	b2a4      	uxth	r4, r4
 8000628:	437d      	muls	r5, r7
 800062a:	437c      	muls	r4, r7
 800062c:	1912      	adds	r2, r2, r4
 800062e:	4173      	adcs	r3, r6
 8000630:	042c      	lsls	r4, r5, #16
 8000632:	0c2d      	lsrs	r5, r5, #16
 8000634:	1912      	adds	r2, r2, r4
 8000636:	416b      	adcs	r3, r5
 8000638:	6082      	str	r2, [r0, #8]
 800063a:	68cc      	ldr	r4, [r1, #12]
 800063c:	191b      	adds	r3, r3, r4
 800063e:	2200      	movs	r2, #0
 8000640:	4172      	adcs	r2, r6
 8000642:	6acc      	ldr	r4, [r1, #44]	; 0x2c
 8000644:	0c25      	lsrs	r5, r4, #16
 8000646:	b2a4      	uxth	r4, r4
 8000648:	437d      	muls	r5, r7
 800064a:	437c      	muls	r4, r7
 800064c:	191b      	adds	r3, r3, r4
 800064e:	4172      	adcs	r2, r6
 8000650:	042c      	lsls	r4, r5, #16
 8000652:	0c2d      	lsrs	r5, r5, #16
 8000654:	191b      	adds	r3, r3, r4
 8000656:	416a      	adcs	r2, r5
 8000658:	60c3      	str	r3, [r0, #12]
 800065a:	690c      	ldr	r4, [r1, #16]
 800065c:	1912      	adds	r2, r2, r4
 800065e:	2300      	movs	r3, #0
 8000660:	4173      	adcs	r3, r6
 8000662:	6b0c      	ldr	r4, [r1, #48]	; 0x30
 8000664:	0c25      	lsrs	r5, r4, #16
 8000666:	b2a4      	uxth	r4, r4
 8000668:	437d      	muls	r5, r7
 800066a:	437c      	muls	r4, r7
 800066c:	1912      	adds	r2, r2, r4
 800066e:	4173      	adcs	r3, r6
 8000670:	042c      	lsls	r4, r5, #16
 8000672:	0c2d      	lsrs	r5, r5, #16
 8000674:	1912      	adds	r2, r2, r4
 8000676:	416b      	adcs	r3, r5
 8000678:	6102      	str	r2, [r0, #16]
 800067a:	694c      	ldr	r4, [r1, #20]
 800067c:	191b      	adds	r3, r3, r4
 800067e:	2200      	movs	r2, #0
 8000680:	4172      	adcs	r2, r6
 8000682:	6b4c      	ldr	r4, [r1, #52]	; 0x34
 8000684:	0c25      	lsrs	r5, r4, #16
 8000686:	b2a4      	uxth	r4, r4
 8000688:	437d      	muls	r5, r7
 800068a:	437c      	muls	r4, r7
 800068c:	191b      	adds	r3, r3, r4
 800068e:	4172      	adcs	r2, r6
 8000690:	042c      	lsls	r4, r5, #16
 8000692:	0c2d      	lsrs	r5, r5, #16
 8000694:	191b      	adds	r3, r3, r4
 8000696:	416a      	adcs	r2, r5
 8000698:	6143      	str	r3, [r0, #20]
 800069a:	698c      	ldr	r4, [r1, #24]
 800069c:	1912      	adds	r2, r2, r4
 800069e:	2300      	movs	r3, #0
 80006a0:	4173      	adcs	r3, r6
 80006a2:	6b8c      	ldr	r4, [r1, #56]	; 0x38
 80006a4:	0c25      	lsrs	r5, r4, #16
 80006a6:	b2a4      	uxth	r4, r4
 80006a8:	437d      	muls	r5, r7
 80006aa:	437c      	muls	r4, r7
 80006ac:	1912      	adds	r2, r2, r4
 80006ae:	4173      	adcs	r3, r6
 80006b0:	042c      	lsls	r4, r5, #16
 80006b2:	0c2d      	lsrs	r5, r5, #16
 80006b4:	1912      	adds	r2, r2, r4
 80006b6:	416b      	adcs	r3, r5
 80006b8:	6182      	str	r2, [r0, #24]
 80006ba:	69c4      	ldr	r4, [r0, #28]
 80006bc:	18e4      	adds	r4, r4, r3
 80006be:	61c4      	str	r4, [r0, #28]
 80006c0:	bdf0      	pop	{r4, r5, r6, r7, pc}
 80006c2:	bf00      	nop

080006c4 <fe25519_square_asm>:
 80006c4:	e92d 5ff1 	stmdb	sp!, {r0, r4, r5, r6, r7, r8, r9, sl, fp, ip, lr}
 80006c8:	b085      	sub	sp, #20
 80006ca:	6808      	ldr	r0, [r1, #0]
 80006cc:	684a      	ldr	r2, [r1, #4]
 80006ce:	688b      	ldr	r3, [r1, #8]
 80006d0:	68cc      	ldr	r4, [r1, #12]
 80006d2:	690d      	ldr	r5, [r1, #16]
 80006d4:	694e      	ldr	r6, [r1, #20]
 80006d6:	fba0 7802 	umull	r7, r8, r0, r2
 80006da:	fba0 9a00 	umull	r9, sl, r0, r0
 80006de:	fbe0 7a62 	umaal	r7, sl, r0, r2
 80006e2:	fbe2 8a62 	umaal	r8, sl, r2, r2
 80006e6:	f8cd 9000 	str.w	r9, [sp]
 80006ea:	9701      	str	r7, [sp, #4]
 80006ec:	fba0 7904 	umull	r7, r9, r0, r4
 80006f0:	fba0 bc03 	umull	fp, ip, r0, r3
 80006f4:	eb1b 0b0b 	adds.w	fp, fp, fp
 80006f8:	ea8e 0e0e 	eor.w	lr, lr, lr
 80006fc:	fbe8 8b6e 	umaal	r8, fp, r8, lr
 8000700:	fbea ab6e 	umaal	sl, fp, sl, lr
 8000704:	f8cd 8008 	str.w	r8, [sp, #8]
 8000708:	fbe2 7c63 	umaal	r7, ip, r2, r3
 800070c:	417f      	adcs	r7, r7
 800070e:	fbe7 7a6e 	umaal	r7, sl, r7, lr
 8000712:	9703      	str	r7, [sp, #12]
 8000714:	44da      	add	sl, fp
 8000716:	698f      	ldr	r7, [r1, #24]
 8000718:	f8d1 801c 	ldr.w	r8, [r1, #28]
 800071c:	fba0 1b06 	umull	r1, fp, r0, r6
 8000720:	fbe0 9c65 	umaal	r9, ip, r0, r5
 8000724:	fbe2 1c65 	umaal	r1, ip, r2, r5
 8000728:	fbe0 bc67 	umaal	fp, ip, r0, r7
 800072c:	fbe2 9e04 	umlal	r9, lr, r2, r4
 8000730:	fbe3 1e64 	umaal	r1, lr, r3, r4
 8000734:	fbe2 be66 	umaal	fp, lr, r2, r6
 8000738:	fbe0 ce68 	umaal	ip, lr, r0, r8
 800073c:	eb59 0909 	adcs.w	r9, r9, r9
 8000740:	4149      	adcs	r1, r1
 8000742:	ea80 0000 	eor.w	r0, r0, r0
 8000746:	fbe3 9a63 	umaal	r9, sl, r3, r3
 800074a:	f8cd 9010 	str.w	r9, [sp, #16]
 800074e:	fbe1 1a60 	umaal	r1, sl, r1, r0
 8000752:	fbe3 b005 	umlal	fp, r0, r3, r5
 8000756:	fbe2 0c67 	umaal	r0, ip, r2, r7
 800075a:	fbe2 ce68 	umaal	ip, lr, r2, r8
 800075e:	eb5b 0b0b 	adcs.w	fp, fp, fp
 8000762:	fbe4 ab64 	umaal	sl, fp, r4, r4
 8000766:	ea82 0202 	eor.w	r2, r2, r2
 800076a:	fbe3 0206 	umlal	r0, r2, r3, r6
 800076e:	fbe3 2c67 	umaal	r2, ip, r3, r7
 8000772:	fbe3 ce68 	umaal	ip, lr, r3, r8
 8000776:	ea83 0303 	eor.w	r3, r3, r3
 800077a:	fbe4 0305 	umlal	r0, r3, r4, r5
 800077e:	fbe4 2366 	umaal	r2, r3, r4, r6
 8000782:	fbe4 3c67 	umaal	r3, ip, r4, r7
 8000786:	fbe4 ce68 	umaal	ip, lr, r4, r8
 800078a:	4140      	adcs	r0, r0
 800078c:	ea89 0909 	eor.w	r9, r9, r9
 8000790:	fbe0 0b69 	umaal	r0, fp, r0, r9
 8000794:	4152      	adcs	r2, r2
 8000796:	fbe5 3906 	umlal	r3, r9, r5, r6
 800079a:	fbe5 9c67 	umaal	r9, ip, r5, r7
 800079e:	fbe5 ce68 	umaal	ip, lr, r5, r8
 80007a2:	ea84 0404 	eor.w	r4, r4, r4
 80007a6:	fbe6 c407 	umlal	ip, r4, r6, r7
 80007aa:	fbe6 4e68 	umaal	r4, lr, r6, r8
 80007ae:	fbe5 2b65 	umaal	r2, fp, r5, r5
 80007b2:	ea85 0505 	eor.w	r5, r5, r5
 80007b6:	415b      	adcs	r3, r3
 80007b8:	fbe3 3b65 	umaal	r3, fp, r3, r5
 80007bc:	fbe7 e508 	umlal	lr, r5, r7, r8
 80007c0:	eb59 0909 	adcs.w	r9, r9, r9
 80007c4:	eb5c 0c0c 	adcs.w	ip, ip, ip
 80007c8:	4164      	adcs	r4, r4
 80007ca:	eb5e 0e0e 	adcs.w	lr, lr, lr
 80007ce:	416d      	adcs	r5, r5
 80007d0:	fbe6 9b66 	umaal	r9, fp, r6, r6
 80007d4:	ea86 0606 	eor.w	r6, r6, r6
 80007d8:	fbeb bc66 	umaal	fp, ip, fp, r6
 80007dc:	fbe7 4c67 	umaal	r4, ip, r7, r7
 80007e0:	fbec ce66 	umaal	ip, lr, ip, r6
 80007e4:	fbe8 5e68 	umaal	r5, lr, r8, r8
 80007e8:	eb5e 0e06 	adcs.w	lr, lr, r6
 80007ec:	f04f 0726 	mov.w	r7, #38	; 0x26
 80007f0:	fbee 0607 	umlal	r0, r6, lr, r7
 80007f4:	f04f 0813 	mov.w	r8, #19
 80007f8:	ea4f 7ed0 	mov.w	lr, r0, lsr #31
 80007fc:	fb0e f808 	mul.w	r8, lr, r8
 8000800:	ea4f 0040 	mov.w	r0, r0, lsl #1
 8000804:	ea4f 0050 	mov.w	r0, r0, lsr #1
 8000808:	f8dd e000 	ldr.w	lr, [sp]
 800080c:	fbe2 8e67 	umaal	r8, lr, r2, r7
 8000810:	ea82 0202 	eor.w	r2, r2, r2
 8000814:	fbe6 8207 	umlal	r8, r2, r6, r7
 8000818:	4472      	add	r2, lr
 800081a:	9e05      	ldr	r6, [sp, #20]
 800081c:	f8dd e004 	ldr.w	lr, [sp, #4]
 8000820:	f8c6 8000 	str.w	r8, [r6]
 8000824:	fbe3 2e67 	umaal	r2, lr, r3, r7
 8000828:	6072      	str	r2, [r6, #4]
 800082a:	9a02      	ldr	r2, [sp, #8]
 800082c:	9b03      	ldr	r3, [sp, #12]
 800082e:	f8dd 8010 	ldr.w	r8, [sp, #16]
 8000832:	fbe9 2e67 	umaal	r2, lr, r9, r7
 8000836:	60b2      	str	r2, [r6, #8]
 8000838:	fbeb 3e67 	umaal	r3, lr, fp, r7
 800083c:	60f3      	str	r3, [r6, #12]
 800083e:	fbe4 8e67 	umaal	r8, lr, r4, r7
 8000842:	f8c6 8010 	str.w	r8, [r6, #16]
 8000846:	fbec 1e67 	umaal	r1, lr, ip, r7
 800084a:	6171      	str	r1, [r6, #20]
 800084c:	fbe5 ae67 	umaal	sl, lr, r5, r7
 8000850:	f8c6 a018 	str.w	sl, [r6, #24]
 8000854:	4470      	add	r0, lr
 8000856:	61f0      	str	r0, [r6, #28]
 8000858:	b006      	add	sp, #24
 800085a:	e8bd 9ff0 	ldmia.w	sp!, {r4, r5, r6, r7, r8, r9, sl, fp, ip, pc}
 800085e:	bf00      	nop

08000860 <fe25519_mul_asm>:
 8000860:	e92d 5ff7 	stmdb	sp!, {r0, r1, r2, r4, r5, r6, r7, r8, r9, sl, fp, ip, lr}
 8000864:	b088      	sub	sp, #32
 8000866:	6810      	ldr	r0, [r2, #0]
 8000868:	6853      	ldr	r3, [r2, #4]
 800086a:	6894      	ldr	r4, [r2, #8]
 800086c:	68d5      	ldr	r5, [r2, #12]
 800086e:	6916      	ldr	r6, [r2, #16]
 8000870:	680f      	ldr	r7, [r1, #0]
 8000872:	fba7 8903 	umull	r8, r9, r7, r3
 8000876:	fba7 ab00 	umull	sl, fp, r7, r0
 800087a:	f8cd a000 	str.w	sl, [sp]
 800087e:	ea8a 0a0a 	eor.w	sl, sl, sl
 8000882:	fbaa ce0a 	umull	ip, lr, sl, sl
 8000886:	fbe7 9a04 	umlal	r9, sl, r7, r4
 800088a:	fbe7 ac05 	umlal	sl, ip, r7, r5
 800088e:	fbe7 ce06 	umlal	ip, lr, r7, r6
 8000892:	684f      	ldr	r7, [r1, #4]
 8000894:	fbe7 8b60 	umaal	r8, fp, r7, r0
 8000898:	fbe7 9b63 	umaal	r9, fp, r7, r3
 800089c:	fbe7 ab64 	umaal	sl, fp, r7, r4
 80008a0:	fbe7 bc65 	umaal	fp, ip, r7, r5
 80008a4:	f8cd 8004 	str.w	r8, [sp, #4]
 80008a8:	ea88 0808 	eor.w	r8, r8, r8
 80008ac:	fbe7 ce66 	umaal	ip, lr, r7, r6
 80008b0:	688f      	ldr	r7, [r1, #8]
 80008b2:	fbe7 9800 	umlal	r9, r8, r7, r0
 80008b6:	fbe7 8a63 	umaal	r8, sl, r7, r3
 80008ba:	fbe7 ab64 	umaal	sl, fp, r7, r4
 80008be:	fbe7 bc65 	umaal	fp, ip, r7, r5
 80008c2:	f8cd 9008 	str.w	r9, [sp, #8]
 80008c6:	ea89 0909 	eor.w	r9, r9, r9
 80008ca:	fbe7 ce66 	umaal	ip, lr, r7, r6
 80008ce:	68cf      	ldr	r7, [r1, #12]
 80008d0:	fbe7 8900 	umlal	r8, r9, r7, r0
 80008d4:	fbe7 9a63 	umaal	r9, sl, r7, r3
 80008d8:	fbe7 ab64 	umaal	sl, fp, r7, r4
 80008dc:	fbe7 bc65 	umaal	fp, ip, r7, r5
 80008e0:	f8cd 800c 	str.w	r8, [sp, #12]
 80008e4:	ea88 0808 	eor.w	r8, r8, r8
 80008e8:	fbe7 ce66 	umaal	ip, lr, r7, r6
 80008ec:	690f      	ldr	r7, [r1, #16]
 80008ee:	fbe7 9800 	umlal	r9, r8, r7, r0
 80008f2:	fbe7 8a63 	umaal	r8, sl, r7, r3
 80008f6:	fbe7 ab64 	umaal	sl, fp, r7, r4
 80008fa:	fbe7 bc65 	umaal	fp, ip, r7, r5
 80008fe:	f8cd 9010 	str.w	r9, [sp, #16]
 8000902:	ea89 0909 	eor.w	r9, r9, r9
 8000906:	fbe7 ce66 	umaal	ip, lr, r7, r6
 800090a:	694a      	ldr	r2, [r1, #20]
 800090c:	fbe2 8900 	umlal	r8, r9, r2, r0
 8000910:	fbe2 9a63 	umaal	r9, sl, r2, r3
 8000914:	fbe2 ab64 	umaal	sl, fp, r2, r4
 8000918:	698a      	ldr	r2, [r1, #24]
 800091a:	ea87 0707 	eor.w	r7, r7, r7
 800091e:	fbe2 9700 	umlal	r9, r7, r2, r0
 8000922:	fbe2 7a63 	umaal	r7, sl, r2, r3
 8000926:	fbe2 ab64 	umaal	sl, fp, r2, r4
 800092a:	69ca      	ldr	r2, [r1, #28]
 800092c:	fbe2 ac63 	umaal	sl, ip, r2, r3
 8000930:	fbe2 bc64 	umaal	fp, ip, r2, r4
 8000934:	980a      	ldr	r0, [sp, #40]	; 0x28
 8000936:	6943      	ldr	r3, [r0, #20]
 8000938:	6984      	ldr	r4, [r0, #24]
 800093a:	680d      	ldr	r5, [r1, #0]
 800093c:	ea86 0606 	eor.w	r6, r6, r6
 8000940:	fbe5 8603 	umlal	r8, r6, r5, r3
 8000944:	fbe5 6964 	umaal	r6, r9, r5, r4
 8000948:	f8cd 8014 	str.w	r8, [sp, #20]
 800094c:	f8d0 801c 	ldr.w	r8, [r0, #28]
 8000950:	fbe5 7968 	umaal	r7, r9, r5, r8
 8000954:	684d      	ldr	r5, [r1, #4]
 8000956:	ea82 0202 	eor.w	r2, r2, r2
 800095a:	fbe5 6203 	umlal	r6, r2, r5, r3
 800095e:	9606      	str	r6, [sp, #24]
 8000960:	fbe5 2764 	umaal	r2, r7, r5, r4
 8000964:	fbe5 7968 	umaal	r7, r9, r5, r8
 8000968:	688d      	ldr	r5, [r1, #8]
 800096a:	ea86 0606 	eor.w	r6, r6, r6
 800096e:	fbe5 2603 	umlal	r2, r6, r5, r3
 8000972:	fbe5 6764 	umaal	r6, r7, r5, r4
 8000976:	fbe5 7968 	umaal	r7, r9, r5, r8
 800097a:	68cd      	ldr	r5, [r1, #12]
 800097c:	fbe5 6a63 	umaal	r6, sl, r5, r3
 8000980:	fbe5 7a64 	umaal	r7, sl, r5, r4
 8000984:	fbe5 9a68 	umaal	r9, sl, r5, r8
 8000988:	690d      	ldr	r5, [r1, #16]
 800098a:	fbe5 7b63 	umaal	r7, fp, r5, r3
 800098e:	fbe5 9b64 	umaal	r9, fp, r5, r4
 8000992:	fbe5 ab68 	umaal	sl, fp, r5, r8
 8000996:	69cd      	ldr	r5, [r1, #28]
 8000998:	6803      	ldr	r3, [r0, #0]
 800099a:	ea84 0404 	eor.w	r4, r4, r4
 800099e:	fbe5 2403 	umlal	r2, r4, r5, r3
 80009a2:	9207      	str	r2, [sp, #28]
 80009a4:	698a      	ldr	r2, [r1, #24]
 80009a6:	694b      	ldr	r3, [r1, #20]
 80009a8:	68c1      	ldr	r1, [r0, #12]
 80009aa:	fbe3 4661 	umaal	r4, r6, r3, r1
 80009ae:	fbe2 6761 	umaal	r6, r7, r2, r1
 80009b2:	fbe5 7961 	umaal	r7, r9, r5, r1
 80009b6:	6901      	ldr	r1, [r0, #16]
 80009b8:	fbe3 6e61 	umaal	r6, lr, r3, r1
 80009bc:	fbe2 7c61 	umaal	r7, ip, r2, r1
 80009c0:	fbe5 9a61 	umaal	r9, sl, r5, r1
 80009c4:	6941      	ldr	r1, [r0, #20]
 80009c6:	fbe3 7e61 	umaal	r7, lr, r3, r1
 80009ca:	fbe2 9c61 	umaal	r9, ip, r2, r1
 80009ce:	fbe5 ab61 	umaal	sl, fp, r5, r1
 80009d2:	6981      	ldr	r1, [r0, #24]
 80009d4:	fbe3 9e61 	umaal	r9, lr, r3, r1
 80009d8:	fbe2 ac61 	umaal	sl, ip, r2, r1
 80009dc:	fbe5 bc61 	umaal	fp, ip, r5, r1
 80009e0:	fbe3 ae68 	umaal	sl, lr, r3, r8
 80009e4:	fbe2 be68 	umaal	fp, lr, r2, r8
 80009e8:	fbe5 ce68 	umaal	ip, lr, r5, r8
 80009ec:	9807      	ldr	r0, [sp, #28]
 80009ee:	9900      	ldr	r1, [sp, #0]
 80009f0:	9a01      	ldr	r2, [sp, #4]
 80009f2:	f04f 0326 	mov.w	r3, #38	; 0x26
 80009f6:	ea85 0505 	eor.w	r5, r5, r5
 80009fa:	fbee 0503 	umlal	r0, r5, lr, r3
 80009fe:	f04f 0813 	mov.w	r8, #19
 8000a02:	ea4f 7ed0 	mov.w	lr, r0, lsr #31
 8000a06:	fb0e f808 	mul.w	r8, lr, r8
 8000a0a:	ea4f 0040 	mov.w	r0, r0, lsl #1
 8000a0e:	ea4f 0050 	mov.w	r0, r0, lsr #1
 8000a12:	fbe4 1863 	umaal	r1, r8, r4, r3
 8000a16:	ea84 0404 	eor.w	r4, r4, r4
 8000a1a:	fbe5 1403 	umlal	r1, r4, r5, r3
 8000a1e:	4422      	add	r2, r4
 8000a20:	fbe6 2863 	umaal	r2, r8, r6, r3
 8000a24:	9c02      	ldr	r4, [sp, #8]
 8000a26:	9d03      	ldr	r5, [sp, #12]
 8000a28:	9e04      	ldr	r6, [sp, #16]
 8000a2a:	f8dd e014 	ldr.w	lr, [sp, #20]
 8000a2e:	fbe7 4863 	umaal	r4, r8, r7, r3
 8000a32:	fbe9 5863 	umaal	r5, r8, r9, r3
 8000a36:	fbea 6863 	umaal	r6, r8, sl, r3
 8000a3a:	fbeb 8e63 	umaal	r8, lr, fp, r3
 8000a3e:	9f06      	ldr	r7, [sp, #24]
 8000a40:	f8dd 9020 	ldr.w	r9, [sp, #32]
 8000a44:	fbec 7e63 	umaal	r7, lr, ip, r3
 8000a48:	4470      	add	r0, lr
 8000a4a:	f8c9 001c 	str.w	r0, [r9, #28]
 8000a4e:	f8c9 7018 	str.w	r7, [r9, #24]
 8000a52:	f8c9 8014 	str.w	r8, [r9, #20]
 8000a56:	f8c9 6010 	str.w	r6, [r9, #16]
 8000a5a:	f8c9 500c 	str.w	r5, [r9, #12]
 8000a5e:	f8c9 4008 	str.w	r4, [r9, #8]
 8000a62:	f8c9 2004 	str.w	r2, [r9, #4]
 8000a66:	f8c9 1000 	str.w	r1, [r9]
 8000a6a:	b00b      	add	sp, #44	; 0x2c
 8000a6c:	e8bd 9ff0 	ldmia.w	sp!, {r4, r5, r6, r7, r8, r9, sl, fp, ip, pc}

08000a70 <multiply256x256_asm>:
 8000a70:	e92d 5ff7 	stmdb	sp!, {r0, r1, r2, r4, r5, r6, r7, r8, r9, sl, fp, ip, lr}
 8000a74:	6813      	ldr	r3, [r2, #0]
 8000a76:	6854      	ldr	r4, [r2, #4]
 8000a78:	6895      	ldr	r5, [r2, #8]
 8000a7a:	68d6      	ldr	r6, [r2, #12]
 8000a7c:	6917      	ldr	r7, [r2, #16]
 8000a7e:	680a      	ldr	r2, [r1, #0]
 8000a80:	ea88 0808 	eor.w	r8, r8, r8
 8000a84:	fba8 9a08 	umull	r9, sl, r8, r8
 8000a88:	ea8b 0b0b 	eor.w	fp, fp, fp
 8000a8c:	fba2 ce03 	umull	ip, lr, r2, r3
 8000a90:	fbe2 e804 	umlal	lr, r8, r2, r4
 8000a94:	fbe2 8905 	umlal	r8, r9, r2, r5
 8000a98:	fbe2 9a06 	umlal	r9, sl, r2, r6
 8000a9c:	f8c0 c000 	str.w	ip, [r0]
 8000aa0:	ea8c 0c0c 	eor.w	ip, ip, ip
 8000aa4:	fbe2 ab07 	umlal	sl, fp, r2, r7
 8000aa8:	684a      	ldr	r2, [r1, #4]
 8000aaa:	fbe2 ec03 	umlal	lr, ip, r2, r3
 8000aae:	fbe2 8c64 	umaal	r8, ip, r2, r4
 8000ab2:	fbe2 9c65 	umaal	r9, ip, r2, r5
 8000ab6:	fbe2 ac66 	umaal	sl, ip, r2, r6
 8000aba:	f8c0 e004 	str.w	lr, [r0, #4]
 8000abe:	ea8e 0e0e 	eor.w	lr, lr, lr
 8000ac2:	fbe2 bc67 	umaal	fp, ip, r2, r7
 8000ac6:	688a      	ldr	r2, [r1, #8]
 8000ac8:	fbe2 8e03 	umlal	r8, lr, r2, r3
 8000acc:	fbe2 9e64 	umaal	r9, lr, r2, r4
 8000ad0:	fbe2 ae65 	umaal	sl, lr, r2, r5
 8000ad4:	fbe2 be66 	umaal	fp, lr, r2, r6
 8000ad8:	f8c0 8008 	str.w	r8, [r0, #8]
 8000adc:	ea88 0808 	eor.w	r8, r8, r8
 8000ae0:	fbe2 ce67 	umaal	ip, lr, r2, r7
 8000ae4:	68ca      	ldr	r2, [r1, #12]
 8000ae6:	fbe2 9803 	umlal	r9, r8, r2, r3
 8000aea:	fbe2 8a64 	umaal	r8, sl, r2, r4
 8000aee:	fbe2 ab65 	umaal	sl, fp, r2, r5
 8000af2:	fbe2 bc66 	umaal	fp, ip, r2, r6
 8000af6:	f8c0 900c 	str.w	r9, [r0, #12]
 8000afa:	ea89 0909 	eor.w	r9, r9, r9
 8000afe:	fbe2 ce67 	umaal	ip, lr, r2, r7
 8000b02:	690a      	ldr	r2, [r1, #16]
 8000b04:	fbe2 8903 	umlal	r8, r9, r2, r3
 8000b08:	fbe2 9a64 	umaal	r9, sl, r2, r4
 8000b0c:	fbe2 ab65 	umaal	sl, fp, r2, r5
 8000b10:	fbe2 bc66 	umaal	fp, ip, r2, r6
 8000b14:	f8c0 8010 	str.w	r8, [r0, #16]
 8000b18:	ea88 0808 	eor.w	r8, r8, r8
 8000b1c:	fbe2 ce67 	umaal	ip, lr, r2, r7
 8000b20:	694a      	ldr	r2, [r1, #20]
 8000b22:	fbe2 9803 	umlal	r9, r8, r2, r3
 8000b26:	fbe2 8a64 	umaal	r8, sl, r2, r4
 8000b2a:	9a02      	ldr	r2, [sp, #8]
 8000b2c:	6953      	ldr	r3, [r2, #20]
 8000b2e:	6994      	ldr	r4, [r2, #24]
 8000b30:	680d      	ldr	r5, [r1, #0]
 8000b32:	ea86 0606 	eor.w	r6, r6, r6
 8000b36:	fbe5 9603 	umlal	r9, r6, r5, r3
 8000b3a:	fbe5 6864 	umaal	r6, r8, r5, r4
 8000b3e:	f8c0 9014 	str.w	r9, [r0, #20]
 8000b42:	ea87 0707 	eor.w	r7, r7, r7
 8000b46:	f8d2 901c 	ldr.w	r9, [r2, #28]
 8000b4a:	fbe5 8a69 	umaal	r8, sl, r5, r9
 8000b4e:	684d      	ldr	r5, [r1, #4]
 8000b50:	fbe5 6703 	umlal	r6, r7, r5, r3
 8000b54:	fbe5 7864 	umaal	r7, r8, r5, r4
 8000b58:	fbe5 8a69 	umaal	r8, sl, r5, r9
 8000b5c:	688d      	ldr	r5, [r1, #8]
 8000b5e:	fbe5 7b63 	umaal	r7, fp, r5, r3
 8000b62:	fbe5 8b64 	umaal	r8, fp, r5, r4
 8000b66:	fbe5 ab69 	umaal	sl, fp, r5, r9
 8000b6a:	68cd      	ldr	r5, [r1, #12]
 8000b6c:	fbe5 8c63 	umaal	r8, ip, r5, r3
 8000b70:	fbe5 ac64 	umaal	sl, ip, r5, r4
 8000b74:	fbe5 bc69 	umaal	fp, ip, r5, r9
 8000b78:	690d      	ldr	r5, [r1, #16]
 8000b7a:	fbe5 ae63 	umaal	sl, lr, r5, r3
 8000b7e:	fbe5 be64 	umaal	fp, lr, r5, r4
 8000b82:	fbe5 ce69 	umaal	ip, lr, r5, r9
 8000b86:	698d      	ldr	r5, [r1, #24]
 8000b88:	6813      	ldr	r3, [r2, #0]
 8000b8a:	6854      	ldr	r4, [r2, #4]
 8000b8c:	ea89 0909 	eor.w	r9, r9, r9
 8000b90:	fbe5 6903 	umlal	r6, r9, r5, r3
 8000b94:	fbe5 7964 	umaal	r7, r9, r5, r4
 8000b98:	6186      	str	r6, [r0, #24]
 8000b9a:	6896      	ldr	r6, [r2, #8]
 8000b9c:	fbe5 8966 	umaal	r8, r9, r5, r6
 8000ba0:	694d      	ldr	r5, [r1, #20]
 8000ba2:	ea82 0202 	eor.w	r2, r2, r2
 8000ba6:	fbe5 7206 	umlal	r7, r2, r5, r6
 8000baa:	69cd      	ldr	r5, [r1, #28]
 8000bac:	ea81 0101 	eor.w	r1, r1, r1
 8000bb0:	fbe5 7103 	umlal	r7, r1, r5, r3
 8000bb4:	61c7      	str	r7, [r0, #28]
 8000bb6:	fbe5 1264 	umaal	r1, r2, r5, r4
 8000bba:	fbe5 2966 	umaal	r2, r9, r5, r6
 8000bbe:	9b01      	ldr	r3, [sp, #4]
 8000bc0:	695c      	ldr	r4, [r3, #20]
 8000bc2:	699e      	ldr	r6, [r3, #24]
 8000bc4:	9b02      	ldr	r3, [sp, #8]
 8000bc6:	68df      	ldr	r7, [r3, #12]
 8000bc8:	fbe4 1867 	umaal	r1, r8, r4, r7
 8000bcc:	6201      	str	r1, [r0, #32]
 8000bce:	fbe6 2867 	umaal	r2, r8, r6, r7
 8000bd2:	fbe5 8967 	umaal	r8, r9, r5, r7
 8000bd6:	6919      	ldr	r1, [r3, #16]
 8000bd8:	fbe4 2a61 	umaal	r2, sl, r4, r1
 8000bdc:	fbe6 8a61 	umaal	r8, sl, r6, r1
 8000be0:	fbe5 9a61 	umaal	r9, sl, r5, r1
 8000be4:	6959      	ldr	r1, [r3, #20]
 8000be6:	fbe4 8b61 	umaal	r8, fp, r4, r1
 8000bea:	fbe6 9b61 	umaal	r9, fp, r6, r1
 8000bee:	fbe5 ab61 	umaal	sl, fp, r5, r1
 8000bf2:	6999      	ldr	r1, [r3, #24]
 8000bf4:	fbe4 9c61 	umaal	r9, ip, r4, r1
 8000bf8:	fbe6 ac61 	umaal	sl, ip, r6, r1
 8000bfc:	fbe5 bc61 	umaal	fp, ip, r5, r1
 8000c00:	69d9      	ldr	r1, [r3, #28]
 8000c02:	fbe4 ae61 	umaal	sl, lr, r4, r1
 8000c06:	fbe6 be61 	umaal	fp, lr, r6, r1
 8000c0a:	fbe5 ce61 	umaal	ip, lr, r5, r1
 8000c0e:	6242      	str	r2, [r0, #36]	; 0x24
 8000c10:	f8c0 8028 	str.w	r8, [r0, #40]	; 0x28
 8000c14:	f8c0 902c 	str.w	r9, [r0, #44]	; 0x2c
 8000c18:	f8c0 a030 	str.w	sl, [r0, #48]	; 0x30
 8000c1c:	f8c0 b034 	str.w	fp, [r0, #52]	; 0x34
 8000c20:	f8c0 c038 	str.w	ip, [r0, #56]	; 0x38
 8000c24:	f8c0 e03c 	str.w	lr, [r0, #60]	; 0x3c
 8000c28:	b003      	add	sp, #12
 8000c2a:	e8bd 9ff0 	ldmia.w	sp!, {r4, r5, r6, r7, r8, r9, sl, fp, ip, pc}
 8000c2e:	bf00      	nop

08000c30 <fe25519_mpyWith121666_asm>:
 8000c30:	b510      	push	{r4, lr}
 8000c32:	69cc      	ldr	r4, [r1, #28]
 8000c34:	4b1a      	ldr	r3, [pc, #104]	; (8000ca0 <__label_for_immediate_243332>)
 8000c36:	4a1b      	ldr	r2, [pc, #108]	; (8000ca4 <__label_for_immediate_121665>)
 8000c38:	fba3 4e04 	umull	r4, lr, r3, r4
 8000c3c:	f04f 0313 	mov.w	r3, #19
 8000c40:	fb0e f303 	mul.w	r3, lr, r3
 8000c44:	f8d1 e000 	ldr.w	lr, [r1]
 8000c48:	fbe2 e36e 	umaal	lr, r3, r2, lr
 8000c4c:	f8c0 e000 	str.w	lr, [r0]
 8000c50:	f8d1 e004 	ldr.w	lr, [r1, #4]
 8000c54:	fbe2 e36e 	umaal	lr, r3, r2, lr
 8000c58:	f8c0 e004 	str.w	lr, [r0, #4]
 8000c5c:	f8d1 e008 	ldr.w	lr, [r1, #8]
 8000c60:	fbe2 e36e 	umaal	lr, r3, r2, lr
 8000c64:	f8c0 e008 	str.w	lr, [r0, #8]
 8000c68:	f8d1 e00c 	ldr.w	lr, [r1, #12]
 8000c6c:	fbe2 e36e 	umaal	lr, r3, r2, lr
 8000c70:	f8c0 e00c 	str.w	lr, [r0, #12]
 8000c74:	f8d1 e010 	ldr.w	lr, [r1, #16]
 8000c78:	fbe2 e36e 	umaal	lr, r3, r2, lr
 8000c7c:	f8c0 e010 	str.w	lr, [r0, #16]
 8000c80:	f8d1 e014 	ldr.w	lr, [r1, #20]
 8000c84:	fbe2 e36e 	umaal	lr, r3, r2, lr
 8000c88:	f8c0 e014 	str.w	lr, [r0, #20]
 8000c8c:	f8d1 e018 	ldr.w	lr, [r1, #24]
 8000c90:	fbe2 e36e 	umaal	lr, r3, r2, lr
 8000c94:	f8c0 e018 	str.w	lr, [r0, #24]
 8000c98:	eb03 0354 	add.w	r3, r3, r4, lsr #1
 8000c9c:	61c3      	str	r3, [r0, #28]
 8000c9e:	bd10      	pop	{r4, pc}

08000ca0 <__label_for_immediate_243332>:
 8000ca0:	0003b684 	.word	0x0003b684

08000ca4 <__label_for_immediate_121665>:
 8000ca4:	0001db41 	.word	0x0001db41

08000ca8 <randombytes>:
 8000ca8:	e92d 4bf0 	stmdb	sp!, {r4, r5, r6, r7, r8, r9, fp, lr}
 8000cac:	2b00      	cmp	r3, #0
 8000cae:	bf08      	it	eq
 8000cb0:	2a05      	cmpeq	r2, #5
 8000cb2:	b082      	sub	sp, #8
 8000cb4:	4616      	mov	r6, r2
 8000cb6:	461f      	mov	r7, r3
 8000cb8:	4681      	mov	r9, r0
 8000cba:	d33c      	bcc.n	8000d36 <randombytes+0x8e>
 8000cbc:	f100 0804 	add.w	r8, r0, #4
 8000cc0:	4614      	mov	r4, r2
 8000cc2:	461d      	mov	r5, r3
 8000cc4:	f007 fed8 	bl	8008a78 <rng_get_random_blocking>
 8000cc8:	3c04      	subs	r4, #4
 8000cca:	f145 35ff 	adc.w	r5, r5, #4294967295	; 0xffffffff
 8000cce:	2d00      	cmp	r5, #0
 8000cd0:	f3c0 2107 	ubfx	r1, r0, #8, #8
 8000cd4:	f3c0 4207 	ubfx	r2, r0, #16, #8
 8000cd8:	f3c0 6307 	ubfx	r3, r0, #24, #8
 8000cdc:	bf08      	it	eq
 8000cde:	2c05      	cmpeq	r4, #5
 8000ce0:	f808 0c04 	strb.w	r0, [r8, #-4]
 8000ce4:	f808 1c03 	strb.w	r1, [r8, #-3]
 8000ce8:	f808 2c02 	strb.w	r2, [r8, #-2]
 8000cec:	f808 3c01 	strb.w	r3, [r8, #-1]
 8000cf0:	f108 0804 	add.w	r8, r8, #4
 8000cf4:	d2e6      	bcs.n	8000cc4 <randombytes+0x1c>
 8000cf6:	1f71      	subs	r1, r6, #5
 8000cf8:	ea4f 0b91 	mov.w	fp, r1, lsr #2
 8000cfc:	f147 31ff 	adc.w	r1, r7, #4294967295	; 0xffffffff
 8000d00:	ea4b 7b81 	orr.w	fp, fp, r1, lsl #30
 8000d04:	1f34      	subs	r4, r6, #4
 8000d06:	f1db 0000 	rsbs	r0, fp, #0
 8000d0a:	0083      	lsls	r3, r0, #2
 8000d0c:	f10b 0201 	add.w	r2, fp, #1
 8000d10:	eb09 0982 	add.w	r9, r9, r2, lsl #2
 8000d14:	191e      	adds	r6, r3, r4
 8000d16:	f007 feaf 	bl	8008a78 <rng_get_random_blocking>
 8000d1a:	ab02      	add	r3, sp, #8
 8000d1c:	4433      	add	r3, r6
 8000d1e:	9001      	str	r0, [sp, #4]
 8000d20:	444e      	add	r6, r9
 8000d22:	3b05      	subs	r3, #5
 8000d24:	f813 2901 	ldrb.w	r2, [r3], #-1
 8000d28:	f809 2b01 	strb.w	r2, [r9], #1
 8000d2c:	45b1      	cmp	r9, r6
 8000d2e:	d1f9      	bne.n	8000d24 <randombytes+0x7c>
 8000d30:	b002      	add	sp, #8
 8000d32:	e8bd 8bf0 	ldmia.w	sp!, {r4, r5, r6, r7, r8, r9, fp, pc}
 8000d36:	ea56 0307 	orrs.w	r3, r6, r7
 8000d3a:	d1ec      	bne.n	8000d16 <randombytes+0x6e>
 8000d3c:	b002      	add	sp, #8
 8000d3e:	e8bd 8bf0 	ldmia.w	sp!, {r4, r5, r6, r7, r8, r9, fp, pc}
 8000d42:	bf00      	nop

08000d44 <curve25519_ladderstep>:
 8000d44:	e92d 4ff0 	stmdb	sp!, {r4, r5, r6, r7, r8, r9, sl, fp, lr}
 8000d48:	f100 0520 	add.w	r5, r0, #32
 8000d4c:	b091      	sub	sp, #68	; 0x44
 8000d4e:	f100 0640 	add.w	r6, r0, #64	; 0x40
 8000d52:	4607      	mov	r7, r0
 8000d54:	f100 0860 	add.w	r8, r0, #96	; 0x60
 8000d58:	f100 0980 	add.w	r9, r0, #128	; 0x80
 8000d5c:	462a      	mov	r2, r5
 8000d5e:	4631      	mov	r1, r6
 8000d60:	466b      	mov	r3, sp
 8000d62:	2001      	movs	r0, #1
 8000d64:	f8d2 c01c 	ldr.w	ip, [r2, #28]
 8000d68:	69cc      	ldr	r4, [r1, #28]
 8000d6a:	46a6      	mov	lr, r4
 8000d6c:	fbec ce60 	umaal	ip, lr, ip, r0
 8000d70:	fbe4 ce00 	umlal	ip, lr, r4, r0
 8000d74:	f04f 0413 	mov.w	r4, #19
 8000d78:	fb0e f404 	mul.w	r4, lr, r4
 8000d7c:	f8d2 e000 	ldr.w	lr, [r2]
 8000d80:	f8d1 a000 	ldr.w	sl, [r1]
 8000d84:	fbe0 ea64 	umaal	lr, sl, r0, r4
 8000d88:	f8c3 e000 	str.w	lr, [r3]
 8000d8c:	6854      	ldr	r4, [r2, #4]
 8000d8e:	f8d1 e004 	ldr.w	lr, [r1, #4]
 8000d92:	fbe0 ea64 	umaal	lr, sl, r0, r4
 8000d96:	f8c3 e004 	str.w	lr, [r3, #4]
 8000d9a:	6894      	ldr	r4, [r2, #8]
 8000d9c:	f8d1 e008 	ldr.w	lr, [r1, #8]
 8000da0:	fbe0 ea64 	umaal	lr, sl, r0, r4
 8000da4:	f8c3 e008 	str.w	lr, [r3, #8]
 8000da8:	68d4      	ldr	r4, [r2, #12]
 8000daa:	f8d1 e00c 	ldr.w	lr, [r1, #12]
 8000dae:	fbe0 ea64 	umaal	lr, sl, r0, r4
 8000db2:	f8c3 e00c 	str.w	lr, [r3, #12]
 8000db6:	6914      	ldr	r4, [r2, #16]
 8000db8:	f8d1 e010 	ldr.w	lr, [r1, #16]
 8000dbc:	fbe0 ea64 	umaal	lr, sl, r0, r4
 8000dc0:	f8c3 e010 	str.w	lr, [r3, #16]
 8000dc4:	6954      	ldr	r4, [r2, #20]
 8000dc6:	f8d1 e014 	ldr.w	lr, [r1, #20]
 8000dca:	fbe0 ea64 	umaal	lr, sl, r0, r4
 8000dce:	f8c3 e014 	str.w	lr, [r3, #20]
 8000dd2:	6994      	ldr	r4, [r2, #24]
 8000dd4:	f8d1 e018 	ldr.w	lr, [r1, #24]
 8000dd8:	fbe0 ea64 	umaal	lr, sl, r0, r4
 8000ddc:	f8c3 e018 	str.w	lr, [r3, #24]
 8000de0:	eb0a 0a5c 	add.w	sl, sl, ip, lsr #1
 8000de4:	f8c3 a01c 	str.w	sl, [r3, #28]
 8000de8:	2400      	movs	r4, #0
 8000dea:	ab08      	add	r3, sp, #32
 8000dec:	462a      	mov	r2, r5
 8000dee:	4631      	mov	r1, r6
 8000df0:	4620      	mov	r0, r4
 8000df2:	f8d2 c01c 	ldr.w	ip, [r2, #28]
 8000df6:	f8d1 e01c 	ldr.w	lr, [r1, #28]
 8000dfa:	ebbc 0c0e 	subs.w	ip, ip, lr
 8000dfe:	eb7e 0e0e 	sbcs.w	lr, lr, lr
 8000e02:	eb1c 0a0c 	adds.w	sl, ip, ip
 8000e06:	eb5e 0e0e 	adcs.w	lr, lr, lr
 8000e0a:	f04c 4c00 	orr.w	ip, ip, #2147483648	; 0x80000000
 8000e0e:	f8c3 c01c 	str.w	ip, [r3, #28]
 8000e12:	f1ae 0c01 	sub.w	ip, lr, #1
 8000e16:	f06f 0e12 	mvn.w	lr, #18
 8000e1a:	fb0c fc0e 	mul.w	ip, ip, lr
 8000e1e:	f8d1 e000 	ldr.w	lr, [r1]
 8000e22:	f8d2 a000 	ldr.w	sl, [r2]
 8000e26:	fbe0 ec60 	umaal	lr, ip, r0, r0
 8000e2a:	ebba 0a0e 	subs.w	sl, sl, lr
 8000e2e:	f8c3 a000 	str.w	sl, [r3]
 8000e32:	f8d1 e004 	ldr.w	lr, [r1, #4]
 8000e36:	f8d2 a004 	ldr.w	sl, [r2, #4]
 8000e3a:	fbe0 ec60 	umaal	lr, ip, r0, r0
 8000e3e:	eb7a 0a0e 	sbcs.w	sl, sl, lr
 8000e42:	f8c3 a004 	str.w	sl, [r3, #4]
 8000e46:	f8d1 e008 	ldr.w	lr, [r1, #8]
 8000e4a:	f8d2 a008 	ldr.w	sl, [r2, #8]
 8000e4e:	fbe0 ec60 	umaal	lr, ip, r0, r0
 8000e52:	eb7a 0a0e 	sbcs.w	sl, sl, lr
 8000e56:	f8c3 a008 	str.w	sl, [r3, #8]
 8000e5a:	f8d1 e00c 	ldr.w	lr, [r1, #12]
 8000e5e:	f8d2 a00c 	ldr.w	sl, [r2, #12]
 8000e62:	fbe0 ec60 	umaal	lr, ip, r0, r0
 8000e66:	eb7a 0a0e 	sbcs.w	sl, sl, lr
 8000e6a:	f8c3 a00c 	str.w	sl, [r3, #12]
 8000e6e:	f8d1 e010 	ldr.w	lr, [r1, #16]
 8000e72:	f8d2 a010 	ldr.w	sl, [r2, #16]
 8000e76:	fbe0 ec60 	umaal	lr, ip, r0, r0
 8000e7a:	eb7a 0a0e 	sbcs.w	sl, sl, lr
 8000e7e:	f8c3 a010 	str.w	sl, [r3, #16]
 8000e82:	f8d1 e014 	ldr.w	lr, [r1, #20]
 8000e86:	f8d2 a014 	ldr.w	sl, [r2, #20]
 8000e8a:	fbe0 ec60 	umaal	lr, ip, r0, r0
 8000e8e:	eb7a 0a0e 	sbcs.w	sl, sl, lr
 8000e92:	f8c3 a014 	str.w	sl, [r3, #20]
 8000e96:	f8d1 e018 	ldr.w	lr, [r1, #24]
 8000e9a:	f8d2 a018 	ldr.w	sl, [r2, #24]
 8000e9e:	fbe0 ec60 	umaal	lr, ip, r0, r0
 8000ea2:	eb7a 0a0e 	sbcs.w	sl, sl, lr
 8000ea6:	f8c3 a018 	str.w	sl, [r3, #24]
 8000eaa:	f8d3 a01c 	ldr.w	sl, [r3, #28]
 8000eae:	eb7a 0a0c 	sbcs.w	sl, sl, ip
 8000eb2:	f8c3 a01c 	str.w	sl, [r3, #28]
 8000eb6:	2001      	movs	r0, #1
 8000eb8:	462b      	mov	r3, r5
 8000eba:	4642      	mov	r2, r8
 8000ebc:	4649      	mov	r1, r9
 8000ebe:	f8d2 e01c 	ldr.w	lr, [r2, #28]
 8000ec2:	f8d1 c01c 	ldr.w	ip, [r1, #28]
 8000ec6:	46e2      	mov	sl, ip
 8000ec8:	fbee ea60 	umaal	lr, sl, lr, r0
 8000ecc:	fbec ea00 	umlal	lr, sl, ip, r0
 8000ed0:	f04f 0c13 	mov.w	ip, #19
 8000ed4:	fb0a fc0c 	mul.w	ip, sl, ip
 8000ed8:	f8d2 a000 	ldr.w	sl, [r2]
 8000edc:	f8d1 b000 	ldr.w	fp, [r1]
 8000ee0:	fbe0 ab6c 	umaal	sl, fp, r0, ip
 8000ee4:	f8c3 a000 	str.w	sl, [r3]
 8000ee8:	f8d2 c004 	ldr.w	ip, [r2, #4]
 8000eec:	f8d1 a004 	ldr.w	sl, [r1, #4]
 8000ef0:	fbe0 ab6c 	umaal	sl, fp, r0, ip
 8000ef4:	f8c3 a004 	str.w	sl, [r3, #4]
 8000ef8:	f8d2 c008 	ldr.w	ip, [r2, #8]
 8000efc:	f8d1 a008 	ldr.w	sl, [r1, #8]
 8000f00:	fbe0 ab6c 	umaal	sl, fp, r0, ip
 8000f04:	f8c3 a008 	str.w	sl, [r3, #8]
 8000f08:	f8d2 c00c 	ldr.w	ip, [r2, #12]
 8000f0c:	f8d1 a00c 	ldr.w	sl, [r1, #12]
 8000f10:	fbe0 ab6c 	umaal	sl, fp, r0, ip
 8000f14:	f8c3 a00c 	str.w	sl, [r3, #12]
 8000f18:	f8d2 c010 	ldr.w	ip, [r2, #16]
 8000f1c:	f8d1 a010 	ldr.w	sl, [r1, #16]
 8000f20:	fbe0 ab6c 	umaal	sl, fp, r0, ip
 8000f24:	f8c3 a010 	str.w	sl, [r3, #16]
 8000f28:	f8d2 c014 	ldr.w	ip, [r2, #20]
 8000f2c:	f8d1 a014 	ldr.w	sl, [r1, #20]
 8000f30:	fbe0 ab6c 	umaal	sl, fp, r0, ip
 8000f34:	f8c3 a014 	str.w	sl, [r3, #20]
 8000f38:	f8d2 c018 	ldr.w	ip, [r2, #24]
 8000f3c:	f8d1 a018 	ldr.w	sl, [r1, #24]
 8000f40:	fbe0 ab6c 	umaal	sl, fp, r0, ip
 8000f44:	f8c3 a018 	str.w	sl, [r3, #24]
 8000f48:	eb0b 0b5e 	add.w	fp, fp, lr, lsr #1
 8000f4c:	f8c3 b01c 	str.w	fp, [r3, #28]
 8000f50:	4633      	mov	r3, r6
 8000f52:	4642      	mov	r2, r8
 8000f54:	4649      	mov	r1, r9
 8000f56:	4620      	mov	r0, r4
 8000f58:	f8d2 c01c 	ldr.w	ip, [r2, #28]
 8000f5c:	f8d1 e01c 	ldr.w	lr, [r1, #28]
 8000f60:	ebbc 0c0e 	subs.w	ip, ip, lr
 8000f64:	eb7e 0e0e 	sbcs.w	lr, lr, lr
 8000f68:	eb1c 0a0c 	adds.w	sl, ip, ip
 8000f6c:	eb5e 0e0e 	adcs.w	lr, lr, lr
 8000f70:	f04c 4c00 	orr.w	ip, ip, #2147483648	; 0x80000000
 8000f74:	f8c3 c01c 	str.w	ip, [r3, #28]
 8000f78:	f1ae 0c01 	sub.w	ip, lr, #1
 8000f7c:	f06f 0e12 	mvn.w	lr, #18
 8000f80:	fb0c fc0e 	mul.w	ip, ip, lr
 8000f84:	f8d1 e000 	ldr.w	lr, [r1]
 8000f88:	f8d2 a000 	ldr.w	sl, [r2]
 8000f8c:	fbe0 ec60 	umaal	lr, ip, r0, r0
 8000f90:	ebba 0a0e 	subs.w	sl, sl, lr
 8000f94:	f8c3 a000 	str.w	sl, [r3]
 8000f98:	f8d1 e004 	ldr.w	lr, [r1, #4]
 8000f9c:	f8d2 a004 	ldr.w	sl, [r2, #4]
 8000fa0:	fbe0 ec60 	umaal	lr, ip, r0, r0
 8000fa4:	eb7a 0a0e 	sbcs.w	sl, sl, lr
 8000fa8:	f8c3 a004 	str.w	sl, [r3, #4]
 8000fac:	f8d1 e008 	ldr.w	lr, [r1, #8]
 8000fb0:	f8d2 a008 	ldr.w	sl, [r2, #8]
 8000fb4:	fbe0 ec60 	umaal	lr, ip, r0, r0
 8000fb8:	eb7a 0a0e 	sbcs.w	sl, sl, lr
 8000fbc:	f8c3 a008 	str.w	sl, [r3, #8]
 8000fc0:	f8d1 e00c 	ldr.w	lr, [r1, #12]
 8000fc4:	f8d2 a00c 	ldr.w	sl, [r2, #12]
 8000fc8:	fbe0 ec60 	umaal	lr, ip, r0, r0
 8000fcc:	eb7a 0a0e 	sbcs.w	sl, sl, lr
 8000fd0:	f8c3 a00c 	str.w	sl, [r3, #12]
 8000fd4:	f8d1 e010 	ldr.w	lr, [r1, #16]
 8000fd8:	f8d2 a010 	ldr.w	sl, [r2, #16]
 8000fdc:	fbe0 ec60 	umaal	lr, ip, r0, r0
 8000fe0:	eb7a 0a0e 	sbcs.w	sl, sl, lr
 8000fe4:	f8c3 a010 	str.w	sl, [r3, #16]
 8000fe8:	f8d1 e014 	ldr.w	lr, [r1, #20]
 8000fec:	f8d2 a014 	ldr.w	sl, [r2, #20]
 8000ff0:	fbe0 ec60 	umaal	lr, ip, r0, r0
 8000ff4:	eb7a 0a0e 	sbcs.w	sl, sl, lr
 8000ff8:	f8c3 a014 	str.w	sl, [r3, #20]
 8000ffc:	f8d1 e018 	ldr.w	lr, [r1, #24]
 8001000:	f8d2 a018 	ldr.w	sl, [r2, #24]
 8001004:	fbe0 ec60 	umaal	lr, ip, r0, r0
 8001008:	eb7a 0a0e 	sbcs.w	sl, sl, lr
 800100c:	f8c3 a018 	str.w	sl, [r3, #24]
 8001010:	f8d3 a01c 	ldr.w	sl, [r3, #28]
 8001014:	eb7a 0a0c 	sbcs.w	sl, sl, ip
 8001018:	f8c3 a01c 	str.w	sl, [r3, #28]
 800101c:	466a      	mov	r2, sp
 800101e:	4631      	mov	r1, r6
 8001020:	4640      	mov	r0, r8
 8001022:	f7ff fc1d 	bl	8000860 <fe25519_mul_asm>
 8001026:	aa08      	add	r2, sp, #32
 8001028:	4629      	mov	r1, r5
 800102a:	4630      	mov	r0, r6
 800102c:	f7ff fc18 	bl	8000860 <fe25519_mul_asm>
 8001030:	2301      	movs	r3, #1
 8001032:	462a      	mov	r2, r5
 8001034:	4631      	mov	r1, r6
 8001036:	4640      	mov	r0, r8
 8001038:	f8d1 e01c 	ldr.w	lr, [r1, #28]
 800103c:	f8d0 c01c 	ldr.w	ip, [r0, #28]
 8001040:	46e2      	mov	sl, ip
 8001042:	fbee ea63 	umaal	lr, sl, lr, r3
 8001046:	fbec ea03 	umlal	lr, sl, ip, r3
 800104a:	f04f 0c13 	mov.w	ip, #19
 800104e:	fb0a fc0c 	mul.w	ip, sl, ip
 8001052:	f8d1 a000 	ldr.w	sl, [r1]
 8001056:	f8d0 b000 	ldr.w	fp, [r0]
 800105a:	fbe3 ab6c 	umaal	sl, fp, r3, ip
 800105e:	f8c2 a000 	str.w	sl, [r2]
 8001062:	f8d1 c004 	ldr.w	ip, [r1, #4]
 8001066:	f8d0 a004 	ldr.w	sl, [r0, #4]
 800106a:	fbe3 ab6c 	umaal	sl, fp, r3, ip
 800106e:	f8c2 a004 	str.w	sl, [r2, #4]
 8001072:	f8d1 c008 	ldr.w	ip, [r1, #8]
 8001076:	f8d0 a008 	ldr.w	sl, [r0, #8]
 800107a:	fbe3 ab6c 	umaal	sl, fp, r3, ip
 800107e:	f8c2 a008 	str.w	sl, [r2, #8]
 8001082:	f8d1 c00c 	ldr.w	ip, [r1, #12]
 8001086:	f8d0 a00c 	ldr.w	sl, [r0, #12]
 800108a:	fbe3 ab6c 	umaal	sl, fp, r3, ip
 800108e:	f8c2 a00c 	str.w	sl, [r2, #12]
 8001092:	f8d1 c010 	ldr.w	ip, [r1, #16]
 8001096:	f8d0 a010 	ldr.w	sl, [r0, #16]
 800109a:	fbe3 ab6c 	umaal	sl, fp, r3, ip
 800109e:	f8c2 a010 	str.w	sl, [r2, #16]
 80010a2:	f8d1 c014 	ldr.w	ip, [r1, #20]
 80010a6:	f8d0 a014 	ldr.w	sl, [r0, #20]
 80010aa:	fbe3 ab6c 	umaal	sl, fp, r3, ip
 80010ae:	f8c2 a014 	str.w	sl, [r2, #20]
 80010b2:	f8d1 c018 	ldr.w	ip, [r1, #24]
 80010b6:	f8d0 a018 	ldr.w	sl, [r0, #24]
 80010ba:	fbe3 ab6c 	umaal	sl, fp, r3, ip
 80010be:	f8c2 a018 	str.w	sl, [r2, #24]
 80010c2:	eb0b 0b5e 	add.w	fp, fp, lr, lsr #1
 80010c6:	f8c2 b01c 	str.w	fp, [r2, #28]
 80010ca:	464b      	mov	r3, r9
 80010cc:	4642      	mov	r2, r8
 80010ce:	4631      	mov	r1, r6
 80010d0:	4620      	mov	r0, r4
 80010d2:	f8d2 c01c 	ldr.w	ip, [r2, #28]
 80010d6:	f8d1 e01c 	ldr.w	lr, [r1, #28]
 80010da:	ebbc 0c0e 	subs.w	ip, ip, lr
 80010de:	eb7e 0e0e 	sbcs.w	lr, lr, lr
 80010e2:	eb1c 0a0c 	adds.w	sl, ip, ip
 80010e6:	eb5e 0e0e 	adcs.w	lr, lr, lr
 80010ea:	f04c 4c00 	orr.w	ip, ip, #2147483648	; 0x80000000
 80010ee:	f8c3 c01c 	str.w	ip, [r3, #28]
 80010f2:	f1ae 0c01 	sub.w	ip, lr, #1
 80010f6:	f06f 0e12 	mvn.w	lr, #18
 80010fa:	fb0c fc0e 	mul.w	ip, ip, lr
 80010fe:	f8d1 e000 	ldr.w	lr, [r1]
 8001102:	f8d2 a000 	ldr.w	sl, [r2]
 8001106:	fbe0 ec60 	umaal	lr, ip, r0, r0
 800110a:	ebba 0a0e 	subs.w	sl, sl, lr
 800110e:	f8c3 a000 	str.w	sl, [r3]
 8001112:	f8d1 e004 	ldr.w	lr, [r1, #4]
 8001116:	f8d2 a004 	ldr.w	sl, [r2, #4]
 800111a:	fbe0 ec60 	umaal	lr, ip, r0, r0
 800111e:	eb7a 0a0e 	sbcs.w	sl, sl, lr
 8001122:	f8c3 a004 	str.w	sl, [r3, #4]
 8001126:	f8d1 e008 	ldr.w	lr, [r1, #8]
 800112a:	f8d2 a008 	ldr.w	sl, [r2, #8]
 800112e:	fbe0 ec60 	umaal	lr, ip, r0, r0
 8001132:	eb7a 0a0e 	sbcs.w	sl, sl, lr
 8001136:	f8c3 a008 	str.w	sl, [r3, #8]
 800113a:	f8d1 e00c 	ldr.w	lr, [r1, #12]
 800113e:	f8d2 a00c 	ldr.w	sl, [r2, #12]
 8001142:	fbe0 ec60 	umaal	lr, ip, r0, r0
 8001146:	eb7a 0a0e 	sbcs.w	sl, sl, lr
 800114a:	f8c3 a00c 	str.w	sl, [r3, #12]
 800114e:	f8d1 e010 	ldr.w	lr, [r1, #16]
 8001152:	f8d2 a010 	ldr.w	sl, [r2, #16]
 8001156:	fbe0 ec60 	umaal	lr, ip, r0, r0
 800115a:	eb7a 0a0e 	sbcs.w	sl, sl, lr
 800115e:	f8c3 a010 	str.w	sl, [r3, #16]
 8001162:	f8d1 e014 	ldr.w	lr, [r1, #20]
 8001166:	f8d2 a014 	ldr.w	sl, [r2, #20]
 800116a:	fbe0 ec60 	umaal	lr, ip, r0, r0
 800116e:	eb7a 0a0e 	sbcs.w	sl, sl, lr
 8001172:	f8c3 a014 	str.w	sl, [r3, #20]
 8001176:	f8d1 e018 	ldr.w	lr, [r1, #24]
 800117a:	f8d2 a018 	ldr.w	sl, [r2, #24]
 800117e:	fbe0 ec60 	umaal	lr, ip, r0, r0
 8001182:	eb7a 0a0e 	sbcs.w	sl, sl, lr
 8001186:	f8c3 a018 	str.w	sl, [r3, #24]
 800118a:	f8d3 a01c 	ldr.w	sl, [r3, #28]
 800118e:	eb7a 0a0c 	sbcs.w	sl, sl, ip
 8001192:	f8c3 a01c 	str.w	sl, [r3, #28]
 8001196:	4640      	mov	r0, r8
 8001198:	4629      	mov	r1, r5
 800119a:	f7ff fa93 	bl	80006c4 <fe25519_square_asm>
 800119e:	4649      	mov	r1, r9
 80011a0:	4628      	mov	r0, r5
 80011a2:	f7ff fa8f 	bl	80006c4 <fe25519_square_asm>
 80011a6:	463a      	mov	r2, r7
 80011a8:	4629      	mov	r1, r5
 80011aa:	4648      	mov	r0, r9
 80011ac:	f7ff fb58 	bl	8000860 <fe25519_mul_asm>
 80011b0:	4669      	mov	r1, sp
 80011b2:	4628      	mov	r0, r5
 80011b4:	f7ff fa86 	bl	80006c4 <fe25519_square_asm>
 80011b8:	a908      	add	r1, sp, #32
 80011ba:	4668      	mov	r0, sp
 80011bc:	f7ff fa82 	bl	80006c4 <fe25519_square_asm>
 80011c0:	4633      	mov	r3, r6
 80011c2:	462a      	mov	r2, r5
 80011c4:	4669      	mov	r1, sp
 80011c6:	69d0      	ldr	r0, [r2, #28]
 80011c8:	69cf      	ldr	r7, [r1, #28]
 80011ca:	1bc0      	subs	r0, r0, r7
 80011cc:	41bf      	sbcs	r7, r7
 80011ce:	eb10 0c00 	adds.w	ip, r0, r0
 80011d2:	417f      	adcs	r7, r7
 80011d4:	f040 4000 	orr.w	r0, r0, #2147483648	; 0x80000000
 80011d8:	61d8      	str	r0, [r3, #28]
 80011da:	f1a7 0001 	sub.w	r0, r7, #1
 80011de:	f06f 0712 	mvn.w	r7, #18
 80011e2:	fb00 f007 	mul.w	r0, r0, r7
 80011e6:	680f      	ldr	r7, [r1, #0]
 80011e8:	f8d2 c000 	ldr.w	ip, [r2]
 80011ec:	fbe4 7064 	umaal	r7, r0, r4, r4
 80011f0:	ebbc 0c07 	subs.w	ip, ip, r7
 80011f4:	f8c3 c000 	str.w	ip, [r3]
 80011f8:	684f      	ldr	r7, [r1, #4]
 80011fa:	f8d2 c004 	ldr.w	ip, [r2, #4]
 80011fe:	fbe4 7064 	umaal	r7, r0, r4, r4
 8001202:	eb7c 0c07 	sbcs.w	ip, ip, r7
 8001206:	f8c3 c004 	str.w	ip, [r3, #4]
 800120a:	688f      	ldr	r7, [r1, #8]
 800120c:	f8d2 c008 	ldr.w	ip, [r2, #8]
 8001210:	fbe4 7064 	umaal	r7, r0, r4, r4
 8001214:	eb7c 0c07 	sbcs.w	ip, ip, r7
 8001218:	f8c3 c008 	str.w	ip, [r3, #8]
 800121c:	68cf      	ldr	r7, [r1, #12]
 800121e:	f8d2 c00c 	ldr.w	ip, [r2, #12]
 8001222:	fbe4 7064 	umaal	r7, r0, r4, r4
 8001226:	eb7c 0c07 	sbcs.w	ip, ip, r7
 800122a:	f8c3 c00c 	str.w	ip, [r3, #12]
 800122e:	690f      	ldr	r7, [r1, #16]
 8001230:	f8d2 c010 	ldr.w	ip, [r2, #16]
 8001234:	fbe4 7064 	umaal	r7, r0, r4, r4
 8001238:	eb7c 0c07 	sbcs.w	ip, ip, r7
 800123c:	f8c3 c010 	str.w	ip, [r3, #16]
 8001240:	694f      	ldr	r7, [r1, #20]
 8001242:	f8d2 c014 	ldr.w	ip, [r2, #20]
 8001246:	fbe4 7064 	umaal	r7, r0, r4, r4
 800124a:	eb7c 0c07 	sbcs.w	ip, ip, r7
 800124e:	f8c3 c014 	str.w	ip, [r3, #20]
 8001252:	698f      	ldr	r7, [r1, #24]
 8001254:	f8d2 c018 	ldr.w	ip, [r2, #24]
 8001258:	fbe4 7064 	umaal	r7, r0, r4, r4
 800125c:	eb7c 0c07 	sbcs.w	ip, ip, r7
 8001260:	f8c3 c018 	str.w	ip, [r3, #24]
 8001264:	f8d3 c01c 	ldr.w	ip, [r3, #28]
 8001268:	eb7c 0c00 	sbcs.w	ip, ip, r0
 800126c:	f8c3 c01c 	str.w	ip, [r3, #28]
 8001270:	462a      	mov	r2, r5
 8001272:	4628      	mov	r0, r5
 8001274:	4669      	mov	r1, sp
 8001276:	f7ff faf3 	bl	8000860 <fe25519_mul_asm>
 800127a:	4a22      	ldr	r2, [pc, #136]	; (8001304 <curve25519_ladderstep+0x5c0>)
 800127c:	466b      	mov	r3, sp
 800127e:	a908      	add	r1, sp, #32
 8001280:	4630      	mov	r0, r6
 8001282:	69dc      	ldr	r4, [r3, #28]
 8001284:	69c7      	ldr	r7, [r0, #28]
 8001286:	eb02 0c02 	add.w	ip, r2, r2
 800128a:	4625      	mov	r5, r4
 800128c:	fbec 4567 	umaal	r4, r5, ip, r7
 8001290:	f04f 0713 	mov.w	r7, #19
 8001294:	fb07 f505 	mul.w	r5, r7, r5
 8001298:	f8d0 c000 	ldr.w	ip, [r0]
 800129c:	681f      	ldr	r7, [r3, #0]
 800129e:	fbe2 756c 	umaal	r7, r5, r2, ip
 80012a2:	600f      	str	r7, [r1, #0]
 80012a4:	f8d0 c004 	ldr.w	ip, [r0, #4]
 80012a8:	685f      	ldr	r7, [r3, #4]
 80012aa:	fbe2 756c 	umaal	r7, r5, r2, ip
 80012ae:	604f      	str	r7, [r1, #4]
 80012b0:	f8d0 c008 	ldr.w	ip, [r0, #8]
 80012b4:	689f      	ldr	r7, [r3, #8]
 80012b6:	fbe2 756c 	umaal	r7, r5, r2, ip
 80012ba:	608f      	str	r7, [r1, #8]
 80012bc:	f8d0 c00c 	ldr.w	ip, [r0, #12]
 80012c0:	68df      	ldr	r7, [r3, #12]
 80012c2:	fbe2 756c 	umaal	r7, r5, r2, ip
 80012c6:	60cf      	str	r7, [r1, #12]
 80012c8:	f8d0 c010 	ldr.w	ip, [r0, #16]
 80012cc:	691f      	ldr	r7, [r3, #16]
 80012ce:	fbe2 756c 	umaal	r7, r5, r2, ip
 80012d2:	610f      	str	r7, [r1, #16]
 80012d4:	f8d0 c014 	ldr.w	ip, [r0, #20]
 80012d8:	695f      	ldr	r7, [r3, #20]
 80012da:	fbe2 756c 	umaal	r7, r5, r2, ip
 80012de:	614f      	str	r7, [r1, #20]
 80012e0:	f8d0 c018 	ldr.w	ip, [r0, #24]
 80012e4:	699f      	ldr	r7, [r3, #24]
 80012e6:	fbe2 756c 	umaal	r7, r5, r2, ip
 80012ea:	618f      	str	r7, [r1, #24]
 80012ec:	eb05 0454 	add.w	r4, r5, r4, lsr #1
 80012f0:	61cc      	str	r4, [r1, #28]
 80012f2:	a908      	add	r1, sp, #32
 80012f4:	4632      	mov	r2, r6
 80012f6:	4630      	mov	r0, r6
 80012f8:	f7ff fab2 	bl	8000860 <fe25519_mul_asm>
 80012fc:	b011      	add	sp, #68	; 0x44
 80012fe:	e8bd 8ff0 	ldmia.w	sp!, {r4, r5, r6, r7, r8, r9, sl, fp, pc}
 8001302:	bf00      	nop
 8001304:	0001db42 	.word	0x0001db42

08001308 <curve25519_doublePointP>:
 8001308:	e92d 47f0 	stmdb	sp!, {r4, r5, r6, r7, r8, r9, sl, lr}
 800130c:	f100 0460 	add.w	r4, r0, #96	; 0x60
 8001310:	f100 0920 	add.w	r9, r0, #32
 8001314:	f100 0840 	add.w	r8, r0, #64	; 0x40
 8001318:	2601      	movs	r6, #1
 800131a:	f100 0580 	add.w	r5, r0, #128	; 0x80
 800131e:	4623      	mov	r3, r4
 8001320:	4649      	mov	r1, r9
 8001322:	4642      	mov	r2, r8
 8001324:	4630      	mov	r0, r6
 8001326:	f8d1 c01c 	ldr.w	ip, [r1, #28]
 800132a:	69d7      	ldr	r7, [r2, #28]
 800132c:	46be      	mov	lr, r7
 800132e:	fbec ce60 	umaal	ip, lr, ip, r0
 8001332:	fbe7 ce00 	umlal	ip, lr, r7, r0
 8001336:	f04f 0713 	mov.w	r7, #19
 800133a:	fb0e f707 	mul.w	r7, lr, r7
 800133e:	f8d1 e000 	ldr.w	lr, [r1]
 8001342:	f8d2 a000 	ldr.w	sl, [r2]
 8001346:	fbe0 ea67 	umaal	lr, sl, r0, r7
 800134a:	f8c3 e000 	str.w	lr, [r3]
 800134e:	684f      	ldr	r7, [r1, #4]
 8001350:	f8d2 e004 	ldr.w	lr, [r2, #4]
 8001354:	fbe0 ea67 	umaal	lr, sl, r0, r7
 8001358:	f8c3 e004 	str.w	lr, [r3, #4]
 800135c:	688f      	ldr	r7, [r1, #8]
 800135e:	f8d2 e008 	ldr.w	lr, [r2, #8]
 8001362:	fbe0 ea67 	umaal	lr, sl, r0, r7
 8001366:	f8c3 e008 	str.w	lr, [r3, #8]
 800136a:	68cf      	ldr	r7, [r1, #12]
 800136c:	f8d2 e00c 	ldr.w	lr, [r2, #12]
 8001370:	fbe0 ea67 	umaal	lr, sl, r0, r7
 8001374:	f8c3 e00c 	str.w	lr, [r3, #12]
 8001378:	690f      	ldr	r7, [r1, #16]
 800137a:	f8d2 e010 	ldr.w	lr, [r2, #16]
 800137e:	fbe0 ea67 	umaal	lr, sl, r0, r7
 8001382:	f8c3 e010 	str.w	lr, [r3, #16]
 8001386:	694f      	ldr	r7, [r1, #20]
 8001388:	f8d2 e014 	ldr.w	lr, [r2, #20]
 800138c:	fbe0 ea67 	umaal	lr, sl, r0, r7
 8001390:	f8c3 e014 	str.w	lr, [r3, #20]
 8001394:	698f      	ldr	r7, [r1, #24]
 8001396:	f8d2 e018 	ldr.w	lr, [r2, #24]
 800139a:	fbe0 ea67 	umaal	lr, sl, r0, r7
 800139e:	f8c3 e018 	str.w	lr, [r3, #24]
 80013a2:	eb0a 0a5c 	add.w	sl, sl, ip, lsr #1
 80013a6:	f8c3 a01c 	str.w	sl, [r3, #28]
 80013aa:	2700      	movs	r7, #0
 80013ac:	4621      	mov	r1, r4
 80013ae:	4620      	mov	r0, r4
 80013b0:	f7ff f988 	bl	80006c4 <fe25519_square_asm>
 80013b4:	462b      	mov	r3, r5
 80013b6:	464a      	mov	r2, r9
 80013b8:	4641      	mov	r1, r8
 80013ba:	4638      	mov	r0, r7
 80013bc:	f8d2 c01c 	ldr.w	ip, [r2, #28]
 80013c0:	f8d1 e01c 	ldr.w	lr, [r1, #28]
 80013c4:	ebbc 0c0e 	subs.w	ip, ip, lr
 80013c8:	eb7e 0e0e 	sbcs.w	lr, lr, lr
 80013cc:	eb1c 0a0c 	adds.w	sl, ip, ip
 80013d0:	eb5e 0e0e 	adcs.w	lr, lr, lr
 80013d4:	f04c 4c00 	orr.w	ip, ip, #2147483648	; 0x80000000
 80013d8:	f8c3 c01c 	str.w	ip, [r3, #28]
 80013dc:	f1ae 0c01 	sub.w	ip, lr, #1
 80013e0:	f06f 0e12 	mvn.w	lr, #18
 80013e4:	fb0c fc0e 	mul.w	ip, ip, lr
 80013e8:	f8d1 e000 	ldr.w	lr, [r1]
 80013ec:	f8d2 a000 	ldr.w	sl, [r2]
 80013f0:	fbe0 ec60 	umaal	lr, ip, r0, r0
 80013f4:	ebba 0a0e 	subs.w	sl, sl, lr
 80013f8:	f8c3 a000 	str.w	sl, [r3]
 80013fc:	f8d1 e004 	ldr.w	lr, [r1, #4]
 8001400:	f8d2 a004 	ldr.w	sl, [r2, #4]
 8001404:	fbe0 ec60 	umaal	lr, ip, r0, r0
 8001408:	eb7a 0a0e 	sbcs.w	sl, sl, lr
 800140c:	f8c3 a004 	str.w	sl, [r3, #4]
 8001410:	f8d1 e008 	ldr.w	lr, [r1, #8]
 8001414:	f8d2 a008 	ldr.w	sl, [r2, #8]
 8001418:	fbe0 ec60 	umaal	lr, ip, r0, r0
 800141c:	eb7a 0a0e 	sbcs.w	sl, sl, lr
 8001420:	f8c3 a008 	str.w	sl, [r3, #8]
 8001424:	f8d1 e00c 	ldr.w	lr, [r1, #12]
 8001428:	f8d2 a00c 	ldr.w	sl, [r2, #12]
 800142c:	fbe0 ec60 	umaal	lr, ip, r0, r0
 8001430:	eb7a 0a0e 	sbcs.w	sl, sl, lr
 8001434:	f8c3 a00c 	str.w	sl, [r3, #12]
 8001438:	f8d1 e010 	ldr.w	lr, [r1, #16]
 800143c:	f8d2 a010 	ldr.w	sl, [r2, #16]
 8001440:	fbe0 ec60 	umaal	lr, ip, r0, r0
 8001444:	eb7a 0a0e 	sbcs.w	sl, sl, lr
 8001448:	f8c3 a010 	str.w	sl, [r3, #16]
 800144c:	f8d1 e014 	ldr.w	lr, [r1, #20]
 8001450:	f8d2 a014 	ldr.w	sl, [r2, #20]
 8001454:	fbe0 ec60 	umaal	lr, ip, r0, r0
 8001458:	eb7a 0a0e 	sbcs.w	sl, sl, lr
 800145c:	f8c3 a014 	str.w	sl, [r3, #20]
 8001460:	f8d1 e018 	ldr.w	lr, [r1, #24]
 8001464:	f8d2 a018 	ldr.w	sl, [r2, #24]
 8001468:	fbe0 ec60 	umaal	lr, ip, r0, r0
 800146c:	eb7a 0a0e 	sbcs.w	sl, sl, lr
 8001470:	f8c3 a018 	str.w	sl, [r3, #24]
 8001474:	f8d3 a01c 	ldr.w	sl, [r3, #28]
 8001478:	eb7a 0a0c 	sbcs.w	sl, sl, ip
 800147c:	f8c3 a01c 	str.w	sl, [r3, #28]
 8001480:	4629      	mov	r1, r5
 8001482:	4628      	mov	r0, r5
 8001484:	f7ff f91e 	bl	80006c4 <fe25519_square_asm>
 8001488:	462a      	mov	r2, r5
 800148a:	4621      	mov	r1, r4
 800148c:	4648      	mov	r0, r9
 800148e:	f7ff f9e7 	bl	8000860 <fe25519_mul_asm>
 8001492:	463b      	mov	r3, r7
 8001494:	4642      	mov	r2, r8
 8001496:	4621      	mov	r1, r4
 8001498:	4628      	mov	r0, r5
 800149a:	69cf      	ldr	r7, [r1, #28]
 800149c:	f8d0 c01c 	ldr.w	ip, [r0, #28]
 80014a0:	ebb7 070c 	subs.w	r7, r7, ip
 80014a4:	eb7c 0c0c 	sbcs.w	ip, ip, ip
 80014a8:	eb17 0e07 	adds.w	lr, r7, r7
 80014ac:	eb5c 0c0c 	adcs.w	ip, ip, ip
 80014b0:	f047 4700 	orr.w	r7, r7, #2147483648	; 0x80000000
 80014b4:	61d7      	str	r7, [r2, #28]
 80014b6:	f1ac 0701 	sub.w	r7, ip, #1
 80014ba:	f06f 0c12 	mvn.w	ip, #18
 80014be:	fb07 f70c 	mul.w	r7, r7, ip
 80014c2:	f8d0 c000 	ldr.w	ip, [r0]
 80014c6:	f8d1 e000 	ldr.w	lr, [r1]
 80014ca:	fbe3 c763 	umaal	ip, r7, r3, r3
 80014ce:	ebbe 0e0c 	subs.w	lr, lr, ip
 80014d2:	f8c2 e000 	str.w	lr, [r2]
 80014d6:	f8d0 c004 	ldr.w	ip, [r0, #4]
 80014da:	f8d1 e004 	ldr.w	lr, [r1, #4]
 80014de:	fbe3 c763 	umaal	ip, r7, r3, r3
 80014e2:	eb7e 0e0c 	sbcs.w	lr, lr, ip
 80014e6:	f8c2 e004 	str.w	lr, [r2, #4]
 80014ea:	f8d0 c008 	ldr.w	ip, [r0, #8]
 80014ee:	f8d1 e008 	ldr.w	lr, [r1, #8]
 80014f2:	fbe3 c763 	umaal	ip, r7, r3, r3
 80014f6:	eb7e 0e0c 	sbcs.w	lr, lr, ip
 80014fa:	f8c2 e008 	str.w	lr, [r2, #8]
 80014fe:	f8d0 c00c 	ldr.w	ip, [r0, #12]
 8001502:	f8d1 e00c 	ldr.w	lr, [r1, #12]
 8001506:	fbe3 c763 	umaal	ip, r7, r3, r3
 800150a:	eb7e 0e0c 	sbcs.w	lr, lr, ip
 800150e:	f8c2 e00c 	str.w	lr, [r2, #12]
 8001512:	f8d0 c010 	ldr.w	ip, [r0, #16]
 8001516:	f8d1 e010 	ldr.w	lr, [r1, #16]
 800151a:	fbe3 c763 	umaal	ip, r7, r3, r3
 800151e:	eb7e 0e0c 	sbcs.w	lr, lr, ip
 8001522:	f8c2 e010 	str.w	lr, [r2, #16]
 8001526:	f8d0 c014 	ldr.w	ip, [r0, #20]
 800152a:	f8d1 e014 	ldr.w	lr, [r1, #20]
 800152e:	fbe3 c763 	umaal	ip, r7, r3, r3
 8001532:	eb7e 0e0c 	sbcs.w	lr, lr, ip
 8001536:	f8c2 e014 	str.w	lr, [r2, #20]
 800153a:	f8d0 c018 	ldr.w	ip, [r0, #24]
 800153e:	f8d1 e018 	ldr.w	lr, [r1, #24]
 8001542:	fbe3 c763 	umaal	ip, r7, r3, r3
 8001546:	eb7e 0e0c 	sbcs.w	lr, lr, ip
 800154a:	f8c2 e018 	str.w	lr, [r2, #24]
 800154e:	f8d2 e01c 	ldr.w	lr, [r2, #28]
 8001552:	eb7e 0e07 	sbcs.w	lr, lr, r7
 8001556:	f8c2 e01c 	str.w	lr, [r2, #28]
 800155a:	4641      	mov	r1, r8
 800155c:	4620      	mov	r0, r4
 800155e:	f7ff fb67 	bl	8000c30 <fe25519_mpyWith121666_asm>
 8001562:	4621      	mov	r1, r4
 8001564:	4632      	mov	r2, r6
 8001566:	462b      	mov	r3, r5
 8001568:	46ac      	mov	ip, r5
 800156a:	69cc      	ldr	r4, [r1, #28]
 800156c:	f8dc 001c 	ldr.w	r0, [ip, #28]
 8001570:	4606      	mov	r6, r0
 8001572:	fbe4 4662 	umaal	r4, r6, r4, r2
 8001576:	fbe0 4602 	umlal	r4, r6, r0, r2
 800157a:	f04f 0013 	mov.w	r0, #19
 800157e:	fb06 f000 	mul.w	r0, r6, r0
 8001582:	680e      	ldr	r6, [r1, #0]
 8001584:	f8dc 7000 	ldr.w	r7, [ip]
 8001588:	fbe2 6760 	umaal	r6, r7, r2, r0
 800158c:	601e      	str	r6, [r3, #0]
 800158e:	6848      	ldr	r0, [r1, #4]
 8001590:	f8dc 6004 	ldr.w	r6, [ip, #4]
 8001594:	fbe2 6760 	umaal	r6, r7, r2, r0
 8001598:	605e      	str	r6, [r3, #4]
 800159a:	6888      	ldr	r0, [r1, #8]
 800159c:	f8dc 6008 	ldr.w	r6, [ip, #8]
 80015a0:	fbe2 6760 	umaal	r6, r7, r2, r0
 80015a4:	609e      	str	r6, [r3, #8]
 80015a6:	68c8      	ldr	r0, [r1, #12]
 80015a8:	f8dc 600c 	ldr.w	r6, [ip, #12]
 80015ac:	fbe2 6760 	umaal	r6, r7, r2, r0
 80015b0:	60de      	str	r6, [r3, #12]
 80015b2:	6908      	ldr	r0, [r1, #16]
 80015b4:	f8dc 6010 	ldr.w	r6, [ip, #16]
 80015b8:	fbe2 6760 	umaal	r6, r7, r2, r0
 80015bc:	611e      	str	r6, [r3, #16]
 80015be:	6948      	ldr	r0, [r1, #20]
 80015c0:	f8dc 6014 	ldr.w	r6, [ip, #20]
 80015c4:	fbe2 6760 	umaal	r6, r7, r2, r0
 80015c8:	615e      	str	r6, [r3, #20]
 80015ca:	6988      	ldr	r0, [r1, #24]
 80015cc:	f8dc 6018 	ldr.w	r6, [ip, #24]
 80015d0:	fbe2 6760 	umaal	r6, r7, r2, r0
 80015d4:	619e      	str	r6, [r3, #24]
 80015d6:	eb07 0754 	add.w	r7, r7, r4, lsr #1
 80015da:	61df      	str	r7, [r3, #28]
 80015dc:	462a      	mov	r2, r5
 80015de:	4641      	mov	r1, r8
 80015e0:	4640      	mov	r0, r8
 80015e2:	e8bd 47f0 	ldmia.w	sp!, {r4, r5, r6, r7, r8, r9, sl, lr}
 80015e6:	f7ff b93b 	b.w	8000860 <fe25519_mul_asm>
 80015ea:	bf00      	nop

080015ec <maskScalarBitsWithRandomAndCswap>:
 80015ec:	b5f0      	push	{r4, r5, r6, r7, lr}
 80015ee:	b085      	sub	sp, #20
 80015f0:	4605      	mov	r5, r0
 80015f2:	4616      	mov	r6, r2
 80015f4:	a802      	add	r0, sp, #8
 80015f6:	2400      	movs	r4, #0
 80015f8:	2208      	movs	r2, #8
 80015fa:	2300      	movs	r3, #0
 80015fc:	460f      	mov	r7, r1
 80015fe:	e9cd 4402 	strd	r4, r4, [sp, #8]
 8001602:	f7ff fb51 	bl	8000ca8 <randombytes>
 8001606:	e9dd 4302 	ldrd	r4, r3, [sp, #8]
 800160a:	2101      	movs	r1, #1
 800160c:	40b1      	lsls	r1, r6
 800160e:	ea24 0401 	bic.w	r4, r4, r1
 8001612:	ea84 0107 	eor.w	r1, r4, r7
 8001616:	fa61 f006 	ror.w	r0, r1, r6
 800161a:	f105 0260 	add.w	r2, r5, #96	; 0x60
 800161e:	f105 0120 	add.w	r1, r5, #32
 8001622:	9001      	str	r0, [sp, #4]
 8001624:	f001 fdf0 	bl	8003208 <cSwapAndRandomize_asm>
 8001628:	9801      	ldr	r0, [sp, #4]
 800162a:	9b03      	ldr	r3, [sp, #12]
 800162c:	f105 0280 	add.w	r2, r5, #128	; 0x80
 8001630:	f105 0140 	add.w	r1, r5, #64	; 0x40
 8001634:	f001 fde8 	bl	8003208 <cSwapAndRandomize_asm>
 8001638:	b005      	add	sp, #20
 800163a:	bdf0      	pop	{r4, r5, r6, r7, pc}

0800163c <crypto_scalarmult_curve25519>:
 800163c:	b5f0      	push	{r4, r5, r6, r7, lr}
 800163e:	b0d1      	sub	sp, #324	; 0x144
 8001640:	23ff      	movs	r3, #255	; 0xff
 8001642:	f88d 3013 	strb.w	r3, [sp, #19]
 8001646:	9203      	str	r2, [sp, #12]
 8001648:	2300      	movs	r3, #0
 800164a:	2500      	movs	r5, #0
 800164c:	2220      	movs	r2, #32
 800164e:	460c      	mov	r4, r1
 8001650:	4606      	mov	r6, r0
 8001652:	af46      	add	r7, sp, #280	; 0x118
 8001654:	9505      	str	r5, [sp, #20]
 8001656:	f7ff fb27 	bl	8000ca8 <randombytes>
 800165a:	9903      	ldr	r1, [sp, #12]
 800165c:	3c01      	subs	r4, #1
 800165e:	463b      	mov	r3, r7
 8001660:	a84e      	add	r0, sp, #312	; 0x138
 8001662:	f814 5f01 	ldrb.w	r5, [r4, #1]!
 8001666:	f803 5b01 	strb.w	r5, [r3], #1
 800166a:	4298      	cmp	r0, r3
 800166c:	d1f9      	bne.n	8001662 <crypto_scalarmult_curve25519+0x26>
 800166e:	a816      	add	r0, sp, #88	; 0x58
 8001670:	f000 f914 	bl	800189c <fe25519_unpack>
 8001674:	a82e      	add	r0, sp, #184	; 0xb8
 8001676:	f000 f951 	bl	800191c <fe25519_setone>
 800167a:	a836      	add	r0, sp, #216	; 0xd8
 800167c:	f000 f944 	bl	8001908 <fe25519_setzero>
 8001680:	a916      	add	r1, sp, #88	; 0x58
 8001682:	a81e      	add	r0, sp, #120	; 0x78
 8001684:	f000 f91c 	bl	80018c0 <fe25519_cpy>
 8001688:	a826      	add	r0, sp, #152	; 0x98
 800168a:	f000 f947 	bl	800191c <fe25519_setone>
 800168e:	f89d 3137 	ldrb.w	r3, [sp, #311]	; 0x137
 8001692:	f003 037f 	and.w	r3, r3, #127	; 0x7f
 8001696:	f043 0340 	orr.w	r3, r3, #64	; 0x40
 800169a:	4638      	mov	r0, r7
 800169c:	f88d 3137 	strb.w	r3, [sp, #311]	; 0x137
 80016a0:	f001 fd86 	bl	80031b0 <shiftRightOne>
 80016a4:	4638      	mov	r0, r7
 80016a6:	f001 fd83 	bl	80031b0 <shiftRightOne>
 80016aa:	2400      	movs	r4, #0
 80016ac:	4638      	mov	r0, r7
 80016ae:	f001 fd7f 	bl	80031b0 <shiftRightOne>
 80016b2:	4623      	mov	r3, r4
 80016b4:	aa05      	add	r2, sp, #20
 80016b6:	6813      	ldr	r3, [r2, #0]
 80016b8:	f103 03a3 	add.w	r3, r3, #163	; 0xa3
 80016bc:	6013      	str	r3, [r2, #0]
 80016be:	a816      	add	r0, sp, #88	; 0x58
 80016c0:	f7ff fe22 	bl	8001308 <curve25519_doublePointP>
 80016c4:	a816      	add	r0, sp, #88	; 0x58
 80016c6:	f7ff fe1f 	bl	8001308 <curve25519_doublePointP>
 80016ca:	a816      	add	r0, sp, #88	; 0x58
 80016cc:	f7ff fe1c 	bl	8001308 <curve25519_doublePointP>
 80016d0:	4623      	mov	r3, r4
 80016d2:	aa05      	add	r2, sp, #20
 80016d4:	6813      	ldr	r3, [r2, #0]
 80016d6:	f103 03a3 	add.w	r3, r3, #163	; 0xa3
 80016da:	6013      	str	r3, [r2, #0]
 80016dc:	a826      	add	r0, sp, #152	; 0x98
 80016de:	f000 f9f3 	bl	8001ac8 <fe25519_iszero>
 80016e2:	b978      	cbnz	r0, 8001704 <crypto_scalarmult_curve25519+0xc8>
 80016e4:	21ff      	movs	r1, #255	; 0xff
 80016e6:	2220      	movs	r2, #32
 80016e8:	2300      	movs	r3, #0
 80016ea:	a81e      	add	r0, sp, #120	; 0x78
 80016ec:	f88d 1013 	strb.w	r1, [sp, #19]
 80016f0:	f7ff fada 	bl	8000ca8 <randombytes>
 80016f4:	4630      	mov	r0, r6
 80016f6:	a91e      	add	r1, sp, #120	; 0x78
 80016f8:	f000 f9b4 	bl	8001a64 <fe25519_pack>
 80016fc:	f89d 0013 	ldrb.w	r0, [sp, #19]
 8001700:	b051      	add	sp, #324	; 0x144
 8001702:	bdf0      	pop	{r4, r5, r6, r7, pc}
 8001704:	a926      	add	r1, sp, #152	; 0x98
 8001706:	ab16      	add	r3, sp, #88	; 0x58
 8001708:	4608      	mov	r0, r1
 800170a:	9300      	str	r3, [sp, #0]
 800170c:	aa2e      	add	r2, sp, #184	; 0xb8
 800170e:	ab36      	add	r3, sp, #216	; 0xd8
 8001710:	f000 fb12 	bl	8001d38 <fe25519_invert_useProvidedScratchBuffers>
 8001714:	a91e      	add	r1, sp, #120	; 0x78
 8001716:	aa26      	add	r2, sp, #152	; 0x98
 8001718:	4608      	mov	r0, r1
 800171a:	f7ff f8a1 	bl	8000860 <fe25519_mul_asm>
 800171e:	a81e      	add	r0, sp, #120	; 0x78
 8001720:	f000 f966 	bl	80019f0 <fe25519_reduceCompletely>
 8001724:	a91e      	add	r1, sp, #120	; 0x78
 8001726:	a816      	add	r0, sp, #88	; 0x58
 8001728:	f000 f8ca 	bl	80018c0 <fe25519_cpy>
 800172c:	2240      	movs	r2, #64	; 0x40
 800172e:	2300      	movs	r3, #0
 8001730:	a806      	add	r0, sp, #24
 8001732:	f7ff fab9 	bl	8000ca8 <randombytes>
 8001736:	a906      	add	r1, sp, #24
 8001738:	a826      	add	r0, sp, #152	; 0x98
 800173a:	f7fe ff37 	bl	80005ac <fe25519_reduceTo256Bits_asm>
 800173e:	a826      	add	r0, sp, #152	; 0x98
 8001740:	f000 f956 	bl	80019f0 <fe25519_reduceCompletely>
 8001744:	f89d 30b7 	ldrb.w	r3, [sp, #183]	; 0xb7
 8001748:	a926      	add	r1, sp, #152	; 0x98
 800174a:	f063 037f 	orn	r3, r3, #127	; 0x7f
 800174e:	aa16      	add	r2, sp, #88	; 0x58
 8001750:	a81e      	add	r0, sp, #120	; 0x78
 8001752:	f88d 30b7 	strb.w	r3, [sp, #183]	; 0xb7
 8001756:	f7ff f883 	bl	8000860 <fe25519_mul_asm>
 800175a:	a82e      	add	r0, sp, #184	; 0xb8
 800175c:	f000 f8de 	bl	800191c <fe25519_setone>
 8001760:	a836      	add	r0, sp, #216	; 0xd8
 8001762:	f000 f8d1 	bl	8001908 <fe25519_setzero>
 8001766:	a816      	add	r0, sp, #88	; 0x58
 8001768:	f7ff faec 	bl	8000d44 <curve25519_ladderstep>
 800176c:	23fb      	movs	r3, #251	; 0xfb
 800176e:	934e      	str	r3, [sp, #312]	; 0x138
 8001770:	a94d      	add	r1, sp, #308	; 0x134
 8001772:	680a      	ldr	r2, [r1, #0]
 8001774:	f851 3d04 	ldr.w	r3, [r1, #-4]!
 8001778:	0c1b      	lsrs	r3, r3, #16
 800177a:	ea43 4302 	orr.w	r3, r3, r2, lsl #16
 800177e:	ea83 0343 	eor.w	r3, r3, r3, lsl #1
 8001782:	ea82 0242 	eor.w	r2, r2, r2, lsl #1
 8001786:	0c1b      	lsrs	r3, r3, #16
 8001788:	0c12      	lsrs	r2, r2, #16
 800178a:	428f      	cmp	r7, r1
 800178c:	808b      	strh	r3, [r1, #4]
 800178e:	80ca      	strh	r2, [r1, #6]
 8001790:	d1ef      	bne.n	8001772 <crypto_scalarmult_curve25519+0x136>
 8001792:	9b46      	ldr	r3, [sp, #280]	; 0x118
 8001794:	2400      	movs	r4, #0
 8001796:	ea83 0343 	eor.w	r3, r3, r3, lsl #1
 800179a:	9346      	str	r3, [sp, #280]	; 0x118
 800179c:	aa05      	add	r2, sp, #20
 800179e:	4623      	mov	r3, r4
 80017a0:	6813      	ldr	r3, [r2, #0]
 80017a2:	f103 03a3 	add.w	r3, r3, #163	; 0xa3
 80017a6:	6013      	str	r3, [r2, #0]
 80017a8:	9a4e      	ldr	r2, [sp, #312]	; 0x138
 80017aa:	42a2      	cmp	r2, r4
 80017ac:	db1c      	blt.n	80017e8 <crypto_scalarmult_curve25519+0x1ac>
 80017ae:	f3c2 1347 	ubfx	r3, r2, #5, #8
 80017b2:	a950      	add	r1, sp, #320	; 0x140
 80017b4:	eb01 0383 	add.w	r3, r1, r3, lsl #2
 80017b8:	f002 021f 	and.w	r2, r2, #31
 80017bc:	f853 1c28 	ldr.w	r1, [r3, #-40]
 80017c0:	a816      	add	r0, sp, #88	; 0x58
 80017c2:	f7ff ff13 	bl	80015ec <maskScalarBitsWithRandomAndCswap>
 80017c6:	9a4e      	ldr	r2, [sp, #312]	; 0x138
 80017c8:	2a00      	cmp	r2, #0
 80017ca:	dd09      	ble.n	80017e0 <crypto_scalarmult_curve25519+0x1a4>
 80017cc:	a816      	add	r0, sp, #88	; 0x58
 80017ce:	f7ff fab9 	bl	8000d44 <curve25519_ladderstep>
 80017d2:	4623      	mov	r3, r4
 80017d4:	aa05      	add	r2, sp, #20
 80017d6:	6813      	ldr	r3, [r2, #0]
 80017d8:	f103 0309 	add.w	r3, r3, #9
 80017dc:	6013      	str	r3, [r2, #0]
 80017de:	9a4e      	ldr	r2, [sp, #312]	; 0x138
 80017e0:	3a01      	subs	r2, #1
 80017e2:	2a00      	cmp	r2, #0
 80017e4:	924e      	str	r2, [sp, #312]	; 0x138
 80017e6:	dae2      	bge.n	80017ae <crypto_scalarmult_curve25519+0x172>
 80017e8:	a926      	add	r1, sp, #152	; 0x98
 80017ea:	ab16      	add	r3, sp, #88	; 0x58
 80017ec:	9300      	str	r3, [sp, #0]
 80017ee:	aa2e      	add	r2, sp, #184	; 0xb8
 80017f0:	ab36      	add	r3, sp, #216	; 0xd8
 80017f2:	4608      	mov	r0, r1
 80017f4:	f000 faa0 	bl	8001d38 <fe25519_invert_useProvidedScratchBuffers>
 80017f8:	a91e      	add	r1, sp, #120	; 0x78
 80017fa:	aa26      	add	r2, sp, #152	; 0x98
 80017fc:	4608      	mov	r0, r1
 80017fe:	f7ff f82f 	bl	8000860 <fe25519_mul_asm>
 8001802:	a81e      	add	r0, sp, #120	; 0x78
 8001804:	f000 f8f4 	bl	80019f0 <fe25519_reduceCompletely>
 8001808:	2100      	movs	r1, #0
 800180a:	460b      	mov	r3, r1
 800180c:	aa05      	add	r2, sp, #20
 800180e:	6813      	ldr	r3, [r2, #0]
 8001810:	f103 03a3 	add.w	r3, r3, #163	; 0xa3
 8001814:	6013      	str	r3, [r2, #0]
 8001816:	9a05      	ldr	r2, [sp, #20]
 8001818:	f640 335f 	movw	r3, #2911	; 0xb5f
 800181c:	429a      	cmp	r2, r3
 800181e:	f47f af61 	bne.w	80016e4 <crypto_scalarmult_curve25519+0xa8>
 8001822:	f88d 1013 	strb.w	r1, [sp, #19]
 8001826:	e765      	b.n	80016f4 <crypto_scalarmult_curve25519+0xb8>

08001828 <crypto_scalarmult_base_curve25519>:
 8001828:	4a01      	ldr	r2, [pc, #4]	; (8001830 <crypto_scalarmult_base_curve25519+0x8>)
 800182a:	f7ff bf07 	b.w	800163c <crypto_scalarmult_curve25519>
 800182e:	bf00      	nop
 8001830:	08008d1c 	.word	0x08008d1c

08001834 <cycles_cswap>:
 8001834:	4814      	ldr	r0, [pc, #80]	; (8001888 <cycles_cswap+0x54>)
 8001836:	4a15      	ldr	r2, [pc, #84]	; (800188c <cycles_cswap+0x58>)
 8001838:	6803      	ldr	r3, [r0, #0]
 800183a:	4915      	ldr	r1, [pc, #84]	; (8001890 <cycles_cswap+0x5c>)
 800183c:	b530      	push	{r4, r5, lr}
 800183e:	f043 7380 	orr.w	r3, r3, #16777216	; 0x1000000
 8001842:	2400      	movs	r4, #0
 8001844:	6003      	str	r3, [r0, #0]
 8001846:	6014      	str	r4, [r2, #0]
 8001848:	680b      	ldr	r3, [r1, #0]
 800184a:	f043 0301 	orr.w	r3, r3, #1
 800184e:	600b      	str	r3, [r1, #0]
 8001850:	6815      	ldr	r5, [r2, #0]
 8001852:	b0d5      	sub	sp, #340	; 0x154
 8001854:	f44f 747a 	mov.w	r4, #1000	; 0x3e8
 8001858:	220a      	movs	r2, #10
 800185a:	4611      	mov	r1, r2
 800185c:	a81a      	add	r0, sp, #104	; 0x68
 800185e:	f7ff fec5 	bl	80015ec <maskScalarBitsWithRandomAndCswap>
 8001862:	3c01      	subs	r4, #1
 8001864:	d1f8      	bne.n	8001858 <cycles_cswap+0x24>
 8001866:	4a09      	ldr	r2, [pc, #36]	; (800188c <cycles_cswap+0x58>)
 8001868:	4b0a      	ldr	r3, [pc, #40]	; (8001894 <cycles_cswap+0x60>)
 800186a:	6812      	ldr	r2, [r2, #0]
 800186c:	490a      	ldr	r1, [pc, #40]	; (8001898 <cycles_cswap+0x64>)
 800186e:	1b52      	subs	r2, r2, r5
 8001870:	fba3 3202 	umull	r3, r2, r3, r2
 8001874:	0992      	lsrs	r2, r2, #6
 8001876:	a801      	add	r0, sp, #4
 8001878:	f001 fd66 	bl	8003348 <sprintf>
 800187c:	a801      	add	r0, sp, #4
 800187e:	f7fe fddf 	bl	8000440 <send_USART_str>
 8001882:	b055      	add	sp, #340	; 0x154
 8001884:	bd30      	pop	{r4, r5, pc}
 8001886:	bf00      	nop
 8001888:	e000edfc 	.word	0xe000edfc
 800188c:	e0001004 	.word	0xe0001004
 8001890:	e0001000 	.word	0xe0001000
 8001894:	10624dd3 	.word	0x10624dd3
 8001898:	08008d0c 	.word	0x08008d0c

0800189c <fe25519_unpack>:
 800189c:	b410      	push	{r4}
 800189e:	1e4b      	subs	r3, r1, #1
 80018a0:	f101 041f 	add.w	r4, r1, #31
 80018a4:	1e42      	subs	r2, r0, #1
 80018a6:	f813 1f01 	ldrb.w	r1, [r3, #1]!
 80018aa:	f802 1f01 	strb.w	r1, [r2, #1]!
 80018ae:	42a3      	cmp	r3, r4
 80018b0:	d1f9      	bne.n	80018a6 <fe25519_unpack+0xa>
 80018b2:	7fc3      	ldrb	r3, [r0, #31]
 80018b4:	f85d 4b04 	ldr.w	r4, [sp], #4
 80018b8:	f003 037f 	and.w	r3, r3, #127	; 0x7f
 80018bc:	77c3      	strb	r3, [r0, #31]
 80018be:	4770      	bx	lr

080018c0 <fe25519_cpy>:
 80018c0:	1f0b      	subs	r3, r1, #4
 80018c2:	3804      	subs	r0, #4
 80018c4:	311c      	adds	r1, #28
 80018c6:	f853 2f04 	ldr.w	r2, [r3, #4]!
 80018ca:	f840 2f04 	str.w	r2, [r0, #4]!
 80018ce:	428b      	cmp	r3, r1
 80018d0:	d1f9      	bne.n	80018c6 <fe25519_cpy+0x6>
 80018d2:	4770      	bx	lr

080018d4 <fe25519_cmov>:
 80018d4:	b2d2      	uxtb	r2, r2
 80018d6:	f001 bc47 	b.w	8003168 <conditionalMove_256bitValue>
 80018da:	bf00      	nop

080018dc <fe25519_cswap>:
 80018dc:	b470      	push	{r4, r5, r6}
 80018de:	3904      	subs	r1, #4
 80018e0:	4252      	negs	r2, r2
 80018e2:	1f04      	subs	r4, r0, #4
 80018e4:	f100 061c 	add.w	r6, r0, #28
 80018e8:	f854 0f04 	ldr.w	r0, [r4, #4]!
 80018ec:	f851 5f04 	ldr.w	r5, [r1, #4]!
 80018f0:	ea80 0305 	eor.w	r3, r0, r5
 80018f4:	4013      	ands	r3, r2
 80018f6:	4058      	eors	r0, r3
 80018f8:	42b4      	cmp	r4, r6
 80018fa:	ea83 0305 	eor.w	r3, r3, r5
 80018fe:	6020      	str	r0, [r4, #0]
 8001900:	600b      	str	r3, [r1, #0]
 8001902:	d1f1      	bne.n	80018e8 <fe25519_cswap+0xc>
 8001904:	bc70      	pop	{r4, r5, r6}
 8001906:	4770      	bx	lr

08001908 <fe25519_setzero>:
 8001908:	2300      	movs	r3, #0
 800190a:	e9c0 3300 	strd	r3, r3, [r0]
 800190e:	e9c0 3302 	strd	r3, r3, [r0, #8]
 8001912:	e9c0 3304 	strd	r3, r3, [r0, #16]
 8001916:	e9c0 3306 	strd	r3, r3, [r0, #24]
 800191a:	4770      	bx	lr

0800191c <fe25519_setone>:
 800191c:	2300      	movs	r3, #0
 800191e:	2201      	movs	r2, #1
 8001920:	e9c0 2300 	strd	r2, r3, [r0]
 8001924:	e9c0 3302 	strd	r3, r3, [r0, #8]
 8001928:	e9c0 3304 	strd	r3, r3, [r0, #16]
 800192c:	e9c0 3306 	strd	r3, r3, [r0, #24]
 8001930:	4770      	bx	lr
 8001932:	bf00      	nop

08001934 <fe25519_neg>:
 8001934:	b5f0      	push	{r4, r5, r6, r7, lr}
 8001936:	69cc      	ldr	r4, [r1, #28]
 8001938:	4264      	negs	r4, r4
 800193a:	eb65 0505 	sbc.w	r5, r5, r5
 800193e:	0fe2      	lsrs	r2, r4, #31
 8001940:	ea42 0245 	orr.w	r2, r2, r5, lsl #1
 8001944:	3a01      	subs	r2, #1
 8001946:	eb02 03c2 	add.w	r3, r2, r2, lsl #3
 800194a:	eb02 0243 	add.w	r2, r2, r3, lsl #1
 800194e:	1f0e      	subs	r6, r1, #4
 8001950:	f101 0c18 	add.w	ip, r1, #24
 8001954:	f044 4e00 	orr.w	lr, r4, #2147483648	; 0x80000000
 8001958:	17d3      	asrs	r3, r2, #31
 800195a:	1f01      	subs	r1, r0, #4
 800195c:	f856 7f04 	ldr.w	r7, [r6, #4]!
 8001960:	1bd4      	subs	r4, r2, r7
 8001962:	f163 0500 	sbc.w	r5, r3, #0
 8001966:	4566      	cmp	r6, ip
 8001968:	f841 4f04 	str.w	r4, [r1, #4]!
 800196c:	462a      	mov	r2, r5
 800196e:	ea4f 73e5 	mov.w	r3, r5, asr #31
 8001972:	d1f3      	bne.n	800195c <fe25519_neg+0x28>
 8001974:	eb15 020e 	adds.w	r2, r5, lr
 8001978:	61c2      	str	r2, [r0, #28]
 800197a:	bdf0      	pop	{r4, r5, r6, r7, pc}

0800197c <fe25519_mpyWith_uint16>:
 800197c:	69c3      	ldr	r3, [r0, #28]
 800197e:	0c1a      	lsrs	r2, r3, #16
 8001980:	fb01 f202 	mul.w	r2, r1, r2
 8001984:	b29b      	uxth	r3, r3
 8001986:	e92d 43f0 	stmdb	sp!, {r4, r5, r6, r7, r8, r9, lr}
 800198a:	fb01 f303 	mul.w	r3, r1, r3
 800198e:	0414      	lsls	r4, r2, #16
 8001990:	18e4      	adds	r4, r4, r3
 8001992:	ea4f 4512 	mov.w	r5, r2, lsr #16
 8001996:	f145 0500 	adc.w	r5, r5, #0
 800199a:	0fe3      	lsrs	r3, r4, #31
 800199c:	ea43 0345 	orr.w	r3, r3, r5, lsl #1
 80019a0:	eb03 02c3 	add.w	r2, r3, r3, lsl #3
 80019a4:	f04f 0c00 	mov.w	ip, #0
 80019a8:	eb03 0242 	add.w	r2, r3, r2, lsl #1
 80019ac:	f024 4e00 	bic.w	lr, r4, #2147483648	; 0x80000000
 80019b0:	1f06      	subs	r6, r0, #4
 80019b2:	f100 0818 	add.w	r8, r0, #24
 80019b6:	4667      	mov	r7, ip
 80019b8:	f856 3f04 	ldr.w	r3, [r6, #4]!
 80019bc:	ea4f 4913 	mov.w	r9, r3, lsr #16
 80019c0:	fb01 f909 	mul.w	r9, r1, r9
 80019c4:	b29b      	uxth	r3, r3
 80019c6:	fb01 f303 	mul.w	r3, r1, r3
 80019ca:	ea4f 4409 	mov.w	r4, r9, lsl #16
 80019ce:	18e4      	adds	r4, r4, r3
 80019d0:	ea4f 4519 	mov.w	r5, r9, lsr #16
 80019d4:	f145 0500 	adc.w	r5, r5, #0
 80019d8:	18a3      	adds	r3, r4, r2
 80019da:	eb45 020c 	adc.w	r2, r5, ip
 80019de:	45b0      	cmp	r8, r6
 80019e0:	6033      	str	r3, [r6, #0]
 80019e2:	46bc      	mov	ip, r7
 80019e4:	d1e8      	bne.n	80019b8 <fe25519_mpyWith_uint16+0x3c>
 80019e6:	4472      	add	r2, lr
 80019e8:	61c2      	str	r2, [r0, #28]
 80019ea:	e8bd 83f0 	ldmia.w	sp!, {r4, r5, r6, r7, r8, r9, pc}
 80019ee:	bf00      	nop

080019f0 <fe25519_reduceCompletely>:
 80019f0:	e92d 03f0 	stmdb	sp!, {r4, r5, r6, r7, r8, r9}
 80019f4:	69c7      	ldr	r7, [r0, #28]
 80019f6:	0ffa      	lsrs	r2, r7, #31
 80019f8:	3201      	adds	r2, #1
 80019fa:	eb02 03c2 	add.w	r3, r2, r2, lsl #3
 80019fe:	1f01      	subs	r1, r0, #4
 8001a00:	eb02 0243 	add.w	r2, r2, r3, lsl #1
 8001a04:	460c      	mov	r4, r1
 8001a06:	2300      	movs	r3, #0
 8001a08:	f100 0618 	add.w	r6, r0, #24
 8001a0c:	f854 5f04 	ldr.w	r5, [r4, #4]!
 8001a10:	eb12 0805 	adds.w	r8, r2, r5
 8001a14:	f143 0900 	adc.w	r9, r3, #0
 8001a18:	42a6      	cmp	r6, r4
 8001a1a:	464a      	mov	r2, r9
 8001a1c:	f04f 0300 	mov.w	r3, #0
 8001a20:	d1f4      	bne.n	8001a0c <fe25519_reduceCompletely+0x1c>
 8001a22:	eb19 0207 	adds.w	r2, r9, r7
 8001a26:	f143 0300 	adc.w	r3, r3, #0
 8001a2a:	0fd4      	lsrs	r4, r2, #31
 8001a2c:	ea44 0443 	orr.w	r4, r4, r3, lsl #1
 8001a30:	eb04 03c4 	add.w	r3, r4, r4, lsl #3
 8001a34:	eb04 0243 	add.w	r2, r4, r3, lsl #1
 8001a38:	46bc      	mov	ip, r7
 8001a3a:	2300      	movs	r3, #0
 8001a3c:	f851 7f04 	ldr.w	r7, [r1, #4]!
 8001a40:	19d4      	adds	r4, r2, r7
 8001a42:	f143 0500 	adc.w	r5, r3, #0
 8001a46:	428e      	cmp	r6, r1
 8001a48:	462a      	mov	r2, r5
 8001a4a:	600c      	str	r4, [r1, #0]
 8001a4c:	f04f 0300 	mov.w	r3, #0
 8001a50:	d1f4      	bne.n	8001a3c <fe25519_reduceCompletely+0x4c>
 8001a52:	eb1c 0205 	adds.w	r2, ip, r5
 8001a56:	f022 4200 	bic.w	r2, r2, #2147483648	; 0x80000000
 8001a5a:	e8bd 03f0 	ldmia.w	sp!, {r4, r5, r6, r7, r8, r9}
 8001a5e:	61c2      	str	r2, [r0, #28]
 8001a60:	4770      	bx	lr
 8001a62:	bf00      	nop

08001a64 <fe25519_pack>:
 8001a64:	b538      	push	{r3, r4, r5, lr}
 8001a66:	460d      	mov	r5, r1
 8001a68:	4604      	mov	r4, r0
 8001a6a:	4608      	mov	r0, r1
 8001a6c:	f7ff ffc0 	bl	80019f0 <fe25519_reduceCompletely>
 8001a70:	1e62      	subs	r2, r4, #1
 8001a72:	1e6b      	subs	r3, r5, #1
 8001a74:	f105 001f 	add.w	r0, r5, #31
 8001a78:	f813 1f01 	ldrb.w	r1, [r3, #1]!
 8001a7c:	f802 1f01 	strb.w	r1, [r2, #1]!
 8001a80:	4283      	cmp	r3, r0
 8001a82:	d1f9      	bne.n	8001a78 <fe25519_pack+0x14>
 8001a84:	bd38      	pop	{r3, r4, r5, pc}
 8001a86:	bf00      	nop

08001a88 <fe25519_iseq_vartime>:
 8001a88:	b538      	push	{r3, r4, r5, lr}
 8001a8a:	69c2      	ldr	r2, [r0, #28]
 8001a8c:	69cb      	ldr	r3, [r1, #28]
 8001a8e:	429a      	cmp	r2, r3
 8001a90:	460c      	mov	r4, r1
 8001a92:	4605      	mov	r5, r0
 8001a94:	d10d      	bne.n	8001ab2 <fe25519_iseq_vartime+0x2a>
 8001a96:	1f21      	subs	r1, r4, #4
 8001a98:	1f2b      	subs	r3, r5, #4
 8001a9a:	f105 0018 	add.w	r0, r5, #24
 8001a9e:	f853 4f04 	ldr.w	r4, [r3, #4]!
 8001aa2:	f851 2f04 	ldr.w	r2, [r1, #4]!
 8001aa6:	4294      	cmp	r4, r2
 8001aa8:	d10c      	bne.n	8001ac4 <fe25519_iseq_vartime+0x3c>
 8001aaa:	4283      	cmp	r3, r0
 8001aac:	d1f7      	bne.n	8001a9e <fe25519_iseq_vartime+0x16>
 8001aae:	2001      	movs	r0, #1
 8001ab0:	bd38      	pop	{r3, r4, r5, pc}
 8001ab2:	f7ff ff9d 	bl	80019f0 <fe25519_reduceCompletely>
 8001ab6:	4620      	mov	r0, r4
 8001ab8:	f7ff ff9a 	bl	80019f0 <fe25519_reduceCompletely>
 8001abc:	69ea      	ldr	r2, [r5, #28]
 8001abe:	69e3      	ldr	r3, [r4, #28]
 8001ac0:	429a      	cmp	r2, r3
 8001ac2:	d0e8      	beq.n	8001a96 <fe25519_iseq_vartime+0xe>
 8001ac4:	2000      	movs	r0, #0
 8001ac6:	bd38      	pop	{r3, r4, r5, pc}

08001ac8 <fe25519_iszero>:
 8001ac8:	b510      	push	{r4, lr}
 8001aca:	f7ff ff91 	bl	80019f0 <fe25519_reduceCompletely>
 8001ace:	1d03      	adds	r3, r0, #4
 8001ad0:	f100 0120 	add.w	r1, r0, #32
 8001ad4:	2000      	movs	r0, #0
 8001ad6:	f853 2b04 	ldr.w	r2, [r3], #4
 8001ada:	428b      	cmp	r3, r1
 8001adc:	ea40 0002 	orr.w	r0, r0, r2
 8001ae0:	d1f9      	bne.n	8001ad6 <fe25519_iszero+0xe>
 8001ae2:	bd10      	pop	{r4, pc}

08001ae4 <fe25519_getparity>:
 8001ae4:	b510      	push	{r4, lr}
 8001ae6:	f7ff ff83 	bl	80019f0 <fe25519_reduceCompletely>
 8001aea:	7800      	ldrb	r0, [r0, #0]
 8001aec:	f000 0001 	and.w	r0, r0, #1
 8001af0:	bd10      	pop	{r4, pc}
 8001af2:	bf00      	nop

08001af4 <fe25519_generateRandomValue>:
 8001af4:	2220      	movs	r2, #32
 8001af6:	2300      	movs	r3, #0
 8001af8:	f7ff b8d6 	b.w	8000ca8 <randombytes>

08001afc <fe25519_squareroot>:
 8001afc:	e92d 43f0 	stmdb	sp!, {r4, r5, r6, r7, r8, r9, lr}
 8001b00:	4e8c      	ldr	r6, [pc, #560]	; (8001d34 <fe25519_squareroot+0x238>)
 8001b02:	4689      	mov	r9, r1
 8001b04:	4605      	mov	r5, r0
 8001b06:	ce0f      	ldmia	r6!, {r0, r1, r2, r3}
 8001b08:	b0a9      	sub	sp, #164	; 0xa4
 8001b0a:	ac18      	add	r4, sp, #96	; 0x60
 8001b0c:	c40f      	stmia	r4!, {r0, r1, r2, r3}
 8001b0e:	e896 000f 	ldmia.w	r6, {r0, r1, r2, r3}
 8001b12:	f1a9 0704 	sub.w	r7, r9, #4
 8001b16:	f1ad 0804 	sub.w	r8, sp, #4
 8001b1a:	e884 000f 	stmia.w	r4, {r0, r1, r2, r3}
 8001b1e:	f109 061c 	add.w	r6, r9, #28
 8001b22:	463b      	mov	r3, r7
 8001b24:	4642      	mov	r2, r8
 8001b26:	f853 1f04 	ldr.w	r1, [r3, #4]!
 8001b2a:	f842 1f04 	str.w	r1, [r2, #4]!
 8001b2e:	429e      	cmp	r6, r3
 8001b30:	d1f9      	bne.n	8001b26 <fe25519_squareroot+0x2a>
 8001b32:	2300      	movs	r3, #0
 8001b34:	2201      	movs	r2, #1
 8001b36:	e9cd 2310 	strd	r2, r3, [sp, #64]	; 0x40
 8001b3a:	e9cd 3312 	strd	r3, r3, [sp, #72]	; 0x48
 8001b3e:	e9cd 3314 	strd	r3, r3, [sp, #80]	; 0x50
 8001b42:	e9cd 3316 	strd	r3, r3, [sp, #88]	; 0x58
 8001b46:	aa07      	add	r2, sp, #28
 8001b48:	463b      	mov	r3, r7
 8001b4a:	f853 1f04 	ldr.w	r1, [r3, #4]!
 8001b4e:	f842 1f04 	str.w	r1, [r2, #4]!
 8001b52:	429e      	cmp	r6, r3
 8001b54:	d1f9      	bne.n	8001b4a <fe25519_squareroot+0x4e>
 8001b56:	4669      	mov	r1, sp
 8001b58:	4668      	mov	r0, sp
 8001b5a:	f7fe fdb3 	bl	80006c4 <fe25519_square_asm>
 8001b5e:	aa08      	add	r2, sp, #32
 8001b60:	4610      	mov	r0, r2
 8001b62:	4669      	mov	r1, sp
 8001b64:	f7fe fe7c 	bl	8000860 <fe25519_mul_asm>
 8001b68:	4669      	mov	r1, sp
 8001b6a:	4668      	mov	r0, sp
 8001b6c:	f7fe fdaa 	bl	80006c4 <fe25519_square_asm>
 8001b70:	24fa      	movs	r4, #250	; 0xfa
 8001b72:	4669      	mov	r1, sp
 8001b74:	4668      	mov	r0, sp
 8001b76:	f7fe fda5 	bl	80006c4 <fe25519_square_asm>
 8001b7a:	aa08      	add	r2, sp, #32
 8001b7c:	4669      	mov	r1, sp
 8001b7e:	4610      	mov	r0, r2
 8001b80:	f7fe fe6e 	bl	8000860 <fe25519_mul_asm>
 8001b84:	3c01      	subs	r4, #1
 8001b86:	d1f4      	bne.n	8001b72 <fe25519_squareroot+0x76>
 8001b88:	a910      	add	r1, sp, #64	; 0x40
 8001b8a:	a808      	add	r0, sp, #32
 8001b8c:	f7ff ff7c 	bl	8001a88 <fe25519_iseq_vartime>
 8001b90:	4604      	mov	r4, r0
 8001b92:	b1f8      	cbz	r0, 8001bd4 <fe25519_squareroot+0xd8>
 8001b94:	f857 3f04 	ldr.w	r3, [r7, #4]!
 8001b98:	f848 3f04 	str.w	r3, [r8, #4]!
 8001b9c:	42b7      	cmp	r7, r6
 8001b9e:	d1f9      	bne.n	8001b94 <fe25519_squareroot+0x98>
 8001ba0:	2300      	movs	r3, #0
 8001ba2:	2201      	movs	r2, #1
 8001ba4:	e9c5 2300 	strd	r2, r3, [r5]
 8001ba8:	e9c5 3302 	strd	r3, r3, [r5, #8]
 8001bac:	e9c5 3304 	strd	r3, r3, [r5, #16]
 8001bb0:	e9c5 3306 	strd	r3, r3, [r5, #24]
 8001bb4:	24fb      	movs	r4, #251	; 0xfb
 8001bb6:	4669      	mov	r1, sp
 8001bb8:	4668      	mov	r0, sp
 8001bba:	f7fe fd83 	bl	80006c4 <fe25519_square_asm>
 8001bbe:	466a      	mov	r2, sp
 8001bc0:	4629      	mov	r1, r5
 8001bc2:	4628      	mov	r0, r5
 8001bc4:	f7fe fe4c 	bl	8000860 <fe25519_mul_asm>
 8001bc8:	3c01      	subs	r4, #1
 8001bca:	d1f4      	bne.n	8001bb6 <fe25519_squareroot+0xba>
 8001bcc:	4620      	mov	r0, r4
 8001bce:	b029      	add	sp, #164	; 0xa4
 8001bd0:	e8bd 83f0 	ldmia.w	sp!, {r4, r5, r6, r7, r8, r9, pc}
 8001bd4:	a918      	add	r1, sp, #96	; 0x60
 8001bd6:	a808      	add	r0, sp, #32
 8001bd8:	f7ff ff56 	bl	8001a88 <fe25519_iseq_vartime>
 8001bdc:	2800      	cmp	r0, #0
 8001bde:	f000 80a5 	beq.w	8001d2c <fe25519_squareroot+0x230>
 8001be2:	2201      	movs	r2, #1
 8001be4:	ab20      	add	r3, sp, #128	; 0x80
 8001be6:	4611      	mov	r1, r2
 8001be8:	46ce      	mov	lr, r9
 8001bea:	f8d9 601c 	ldr.w	r6, [r9, #28]
 8001bee:	f8de 001c 	ldr.w	r0, [lr, #28]
 8001bf2:	4607      	mov	r7, r0
 8001bf4:	fbe6 6761 	umaal	r6, r7, r6, r1
 8001bf8:	fbe0 6701 	umlal	r6, r7, r0, r1
 8001bfc:	f04f 0013 	mov.w	r0, #19
 8001c00:	fb07 f000 	mul.w	r0, r7, r0
 8001c04:	f8d9 7000 	ldr.w	r7, [r9]
 8001c08:	f8de c000 	ldr.w	ip, [lr]
 8001c0c:	fbe1 7c60 	umaal	r7, ip, r1, r0
 8001c10:	601f      	str	r7, [r3, #0]
 8001c12:	f8d9 0004 	ldr.w	r0, [r9, #4]
 8001c16:	f8de 7004 	ldr.w	r7, [lr, #4]
 8001c1a:	fbe1 7c60 	umaal	r7, ip, r1, r0
 8001c1e:	605f      	str	r7, [r3, #4]
 8001c20:	f8d9 0008 	ldr.w	r0, [r9, #8]
 8001c24:	f8de 7008 	ldr.w	r7, [lr, #8]
 8001c28:	fbe1 7c60 	umaal	r7, ip, r1, r0
 8001c2c:	609f      	str	r7, [r3, #8]
 8001c2e:	f8d9 000c 	ldr.w	r0, [r9, #12]
 8001c32:	f8de 700c 	ldr.w	r7, [lr, #12]
 8001c36:	fbe1 7c60 	umaal	r7, ip, r1, r0
 8001c3a:	60df      	str	r7, [r3, #12]
 8001c3c:	f8d9 0010 	ldr.w	r0, [r9, #16]
 8001c40:	f8de 7010 	ldr.w	r7, [lr, #16]
 8001c44:	fbe1 7c60 	umaal	r7, ip, r1, r0
 8001c48:	611f      	str	r7, [r3, #16]
 8001c4a:	f8d9 0014 	ldr.w	r0, [r9, #20]
 8001c4e:	f8de 7014 	ldr.w	r7, [lr, #20]
 8001c52:	fbe1 7c60 	umaal	r7, ip, r1, r0
 8001c56:	615f      	str	r7, [r3, #20]
 8001c58:	f8d9 0018 	ldr.w	r0, [r9, #24]
 8001c5c:	f8de 7018 	ldr.w	r7, [lr, #24]
 8001c60:	fbe1 7c60 	umaal	r7, ip, r1, r0
 8001c64:	619f      	str	r7, [r3, #24]
 8001c66:	eb0c 0c56 	add.w	ip, ip, r6, lsr #1
 8001c6a:	f8c3 c01c 	str.w	ip, [r3, #28]
 8001c6e:	ab20      	add	r3, sp, #128	; 0x80
 8001c70:	4629      	mov	r1, r5
 8001c72:	469e      	mov	lr, r3
 8001c74:	69de      	ldr	r6, [r3, #28]
 8001c76:	f8de 001c 	ldr.w	r0, [lr, #28]
 8001c7a:	4607      	mov	r7, r0
 8001c7c:	fbe6 6762 	umaal	r6, r7, r6, r2
 8001c80:	fbe0 6702 	umlal	r6, r7, r0, r2
 8001c84:	f04f 0013 	mov.w	r0, #19
 8001c88:	fb07 f000 	mul.w	r0, r7, r0
 8001c8c:	681f      	ldr	r7, [r3, #0]
 8001c8e:	f8de c000 	ldr.w	ip, [lr]
 8001c92:	fbe2 7c60 	umaal	r7, ip, r2, r0
 8001c96:	600f      	str	r7, [r1, #0]
 8001c98:	6858      	ldr	r0, [r3, #4]
 8001c9a:	f8de 7004 	ldr.w	r7, [lr, #4]
 8001c9e:	fbe2 7c60 	umaal	r7, ip, r2, r0
 8001ca2:	604f      	str	r7, [r1, #4]
 8001ca4:	6898      	ldr	r0, [r3, #8]
 8001ca6:	f8de 7008 	ldr.w	r7, [lr, #8]
 8001caa:	fbe2 7c60 	umaal	r7, ip, r2, r0
 8001cae:	608f      	str	r7, [r1, #8]
 8001cb0:	68d8      	ldr	r0, [r3, #12]
 8001cb2:	f8de 700c 	ldr.w	r7, [lr, #12]
 8001cb6:	fbe2 7c60 	umaal	r7, ip, r2, r0
 8001cba:	60cf      	str	r7, [r1, #12]
 8001cbc:	6918      	ldr	r0, [r3, #16]
 8001cbe:	f8de 7010 	ldr.w	r7, [lr, #16]
 8001cc2:	fbe2 7c60 	umaal	r7, ip, r2, r0
 8001cc6:	610f      	str	r7, [r1, #16]
 8001cc8:	6958      	ldr	r0, [r3, #20]
 8001cca:	f8de 7014 	ldr.w	r7, [lr, #20]
 8001cce:	fbe2 7c60 	umaal	r7, ip, r2, r0
 8001cd2:	614f      	str	r7, [r1, #20]
 8001cd4:	6998      	ldr	r0, [r3, #24]
 8001cd6:	f8de 7018 	ldr.w	r7, [lr, #24]
 8001cda:	fbe2 7c60 	umaal	r7, ip, r2, r0
 8001cde:	618f      	str	r7, [r1, #24]
 8001ce0:	eb0c 0c56 	add.w	ip, ip, r6, lsr #1
 8001ce4:	f8c1 c01c 	str.w	ip, [r1, #28]
 8001ce8:	1f2b      	subs	r3, r5, #4
 8001cea:	f105 011c 	add.w	r1, r5, #28
 8001cee:	f853 2f04 	ldr.w	r2, [r3, #4]!
 8001cf2:	f848 2f04 	str.w	r2, [r8, #4]!
 8001cf6:	4299      	cmp	r1, r3
 8001cf8:	d1f9      	bne.n	8001cee <fe25519_squareroot+0x1f2>
 8001cfa:	4669      	mov	r1, sp
 8001cfc:	4668      	mov	r0, sp
 8001cfe:	f7fe fce1 	bl	80006c4 <fe25519_square_asm>
 8001d02:	26fa      	movs	r6, #250	; 0xfa
 8001d04:	4669      	mov	r1, sp
 8001d06:	4668      	mov	r0, sp
 8001d08:	f7fe fcdc 	bl	80006c4 <fe25519_square_asm>
 8001d0c:	466a      	mov	r2, sp
 8001d0e:	4629      	mov	r1, r5
 8001d10:	4628      	mov	r0, r5
 8001d12:	f7fe fda5 	bl	8000860 <fe25519_mul_asm>
 8001d16:	3e01      	subs	r6, #1
 8001d18:	d1f4      	bne.n	8001d04 <fe25519_squareroot+0x208>
 8001d1a:	4628      	mov	r0, r5
 8001d1c:	aa20      	add	r2, sp, #128	; 0x80
 8001d1e:	4629      	mov	r1, r5
 8001d20:	f7fe fd9e 	bl	8000860 <fe25519_mul_asm>
 8001d24:	4620      	mov	r0, r4
 8001d26:	b029      	add	sp, #164	; 0xa4
 8001d28:	e8bd 83f0 	ldmia.w	sp!, {r4, r5, r6, r7, r8, r9, pc}
 8001d2c:	f04f 34ff 	mov.w	r4, #4294967295	; 0xffffffff
 8001d30:	e74c      	b.n	8001bcc <fe25519_squareroot+0xd0>
 8001d32:	bf00      	nop
 8001d34:	08008d40 	.word	0x08008d40

08001d38 <fe25519_invert_useProvidedScratchBuffers>:
 8001d38:	e92d 41f0 	stmdb	sp!, {r4, r5, r6, r7, r8, lr}
 8001d3c:	b082      	sub	sp, #8
 8001d3e:	4614      	mov	r4, r2
 8001d40:	9e08      	ldr	r6, [sp, #32]
 8001d42:	9101      	str	r1, [sp, #4]
 8001d44:	4607      	mov	r7, r0
 8001d46:	4630      	mov	r0, r6
 8001d48:	4698      	mov	r8, r3
 8001d4a:	f7fe fcbb 	bl	80006c4 <fe25519_square_asm>
 8001d4e:	4631      	mov	r1, r6
 8001d50:	4620      	mov	r0, r4
 8001d52:	f7fe fcb7 	bl	80006c4 <fe25519_square_asm>
 8001d56:	4621      	mov	r1, r4
 8001d58:	4620      	mov	r0, r4
 8001d5a:	f7fe fcb3 	bl	80006c4 <fe25519_square_asm>
 8001d5e:	9a01      	ldr	r2, [sp, #4]
 8001d60:	4621      	mov	r1, r4
 8001d62:	4640      	mov	r0, r8
 8001d64:	f7fe fd7c 	bl	8000860 <fe25519_mul_asm>
 8001d68:	4632      	mov	r2, r6
 8001d6a:	4641      	mov	r1, r8
 8001d6c:	4638      	mov	r0, r7
 8001d6e:	f7fe fd77 	bl	8000860 <fe25519_mul_asm>
 8001d72:	4639      	mov	r1, r7
 8001d74:	4620      	mov	r0, r4
 8001d76:	f7fe fca5 	bl	80006c4 <fe25519_square_asm>
 8001d7a:	4642      	mov	r2, r8
 8001d7c:	4621      	mov	r1, r4
 8001d7e:	4640      	mov	r0, r8
 8001d80:	f7fe fd6e 	bl	8000860 <fe25519_mul_asm>
 8001d84:	4641      	mov	r1, r8
 8001d86:	4620      	mov	r0, r4
 8001d88:	f7fe fc9c 	bl	80006c4 <fe25519_square_asm>
 8001d8c:	4621      	mov	r1, r4
 8001d8e:	4620      	mov	r0, r4
 8001d90:	f7fe fc98 	bl	80006c4 <fe25519_square_asm>
 8001d94:	4621      	mov	r1, r4
 8001d96:	4620      	mov	r0, r4
 8001d98:	f7fe fc94 	bl	80006c4 <fe25519_square_asm>
 8001d9c:	4621      	mov	r1, r4
 8001d9e:	4620      	mov	r0, r4
 8001da0:	f7fe fc90 	bl	80006c4 <fe25519_square_asm>
 8001da4:	4621      	mov	r1, r4
 8001da6:	4620      	mov	r0, r4
 8001da8:	f7fe fc8c 	bl	80006c4 <fe25519_square_asm>
 8001dac:	4642      	mov	r2, r8
 8001dae:	4621      	mov	r1, r4
 8001db0:	4640      	mov	r0, r8
 8001db2:	f7fe fd55 	bl	8000860 <fe25519_mul_asm>
 8001db6:	4641      	mov	r1, r8
 8001db8:	4620      	mov	r0, r4
 8001dba:	f7fe fc83 	bl	80006c4 <fe25519_square_asm>
 8001dbe:	2509      	movs	r5, #9
 8001dc0:	4621      	mov	r1, r4
 8001dc2:	4620      	mov	r0, r4
 8001dc4:	f7fe fc7e 	bl	80006c4 <fe25519_square_asm>
 8001dc8:	1e6b      	subs	r3, r5, #1
 8001dca:	f013 05ff 	ands.w	r5, r3, #255	; 0xff
 8001dce:	d1f7      	bne.n	8001dc0 <fe25519_invert_useProvidedScratchBuffers+0x88>
 8001dd0:	4642      	mov	r2, r8
 8001dd2:	4621      	mov	r1, r4
 8001dd4:	4630      	mov	r0, r6
 8001dd6:	f7fe fd43 	bl	8000860 <fe25519_mul_asm>
 8001dda:	4631      	mov	r1, r6
 8001ddc:	4620      	mov	r0, r4
 8001dde:	f7fe fc71 	bl	80006c4 <fe25519_square_asm>
 8001de2:	2513      	movs	r5, #19
 8001de4:	4621      	mov	r1, r4
 8001de6:	4620      	mov	r0, r4
 8001de8:	f7fe fc6c 	bl	80006c4 <fe25519_square_asm>
 8001dec:	1e6b      	subs	r3, r5, #1
 8001dee:	f013 05ff 	ands.w	r5, r3, #255	; 0xff
 8001df2:	d1f7      	bne.n	8001de4 <fe25519_invert_useProvidedScratchBuffers+0xac>
 8001df4:	4632      	mov	r2, r6
 8001df6:	4621      	mov	r1, r4
 8001df8:	4620      	mov	r0, r4
 8001dfa:	f7fe fd31 	bl	8000860 <fe25519_mul_asm>
 8001dfe:	4621      	mov	r1, r4
 8001e00:	4620      	mov	r0, r4
 8001e02:	f7fe fc5f 	bl	80006c4 <fe25519_square_asm>
 8001e06:	2509      	movs	r5, #9
 8001e08:	4621      	mov	r1, r4
 8001e0a:	4620      	mov	r0, r4
 8001e0c:	f7fe fc5a 	bl	80006c4 <fe25519_square_asm>
 8001e10:	1e6b      	subs	r3, r5, #1
 8001e12:	f013 05ff 	ands.w	r5, r3, #255	; 0xff
 8001e16:	d1f7      	bne.n	8001e08 <fe25519_invert_useProvidedScratchBuffers+0xd0>
 8001e18:	4642      	mov	r2, r8
 8001e1a:	4621      	mov	r1, r4
 8001e1c:	4630      	mov	r0, r6
 8001e1e:	f7fe fd1f 	bl	8000860 <fe25519_mul_asm>
 8001e22:	4631      	mov	r1, r6
 8001e24:	4620      	mov	r0, r4
 8001e26:	f7fe fc4d 	bl	80006c4 <fe25519_square_asm>
 8001e2a:	2531      	movs	r5, #49	; 0x31
 8001e2c:	4621      	mov	r1, r4
 8001e2e:	4620      	mov	r0, r4
 8001e30:	f7fe fc48 	bl	80006c4 <fe25519_square_asm>
 8001e34:	1e6a      	subs	r2, r5, #1
 8001e36:	f012 05ff 	ands.w	r5, r2, #255	; 0xff
 8001e3a:	d1f7      	bne.n	8001e2c <fe25519_invert_useProvidedScratchBuffers+0xf4>
 8001e3c:	4632      	mov	r2, r6
 8001e3e:	4621      	mov	r1, r4
 8001e40:	4640      	mov	r0, r8
 8001e42:	f7fe fd0d 	bl	8000860 <fe25519_mul_asm>
 8001e46:	4641      	mov	r1, r8
 8001e48:	4620      	mov	r0, r4
 8001e4a:	f7fe fc3b 	bl	80006c4 <fe25519_square_asm>
 8001e4e:	2563      	movs	r5, #99	; 0x63
 8001e50:	4621      	mov	r1, r4
 8001e52:	4620      	mov	r0, r4
 8001e54:	f7fe fc36 	bl	80006c4 <fe25519_square_asm>
 8001e58:	1e6a      	subs	r2, r5, #1
 8001e5a:	f012 05ff 	ands.w	r5, r2, #255	; 0xff
 8001e5e:	d1f7      	bne.n	8001e50 <fe25519_invert_useProvidedScratchBuffers+0x118>
 8001e60:	4642      	mov	r2, r8
 8001e62:	4621      	mov	r1, r4
 8001e64:	4620      	mov	r0, r4
 8001e66:	f7fe fcfb 	bl	8000860 <fe25519_mul_asm>
 8001e6a:	2532      	movs	r5, #50	; 0x32
 8001e6c:	4621      	mov	r1, r4
 8001e6e:	4620      	mov	r0, r4
 8001e70:	f7fe fc28 	bl	80006c4 <fe25519_square_asm>
 8001e74:	1e6b      	subs	r3, r5, #1
 8001e76:	f013 05ff 	ands.w	r5, r3, #255	; 0xff
 8001e7a:	d1f7      	bne.n	8001e6c <fe25519_invert_useProvidedScratchBuffers+0x134>
 8001e7c:	4632      	mov	r2, r6
 8001e7e:	4621      	mov	r1, r4
 8001e80:	4620      	mov	r0, r4
 8001e82:	f7fe fced 	bl	8000860 <fe25519_mul_asm>
 8001e86:	2505      	movs	r5, #5
 8001e88:	4621      	mov	r1, r4
 8001e8a:	4620      	mov	r0, r4
 8001e8c:	f7fe fc1a 	bl	80006c4 <fe25519_square_asm>
 8001e90:	1e6b      	subs	r3, r5, #1
 8001e92:	f013 05ff 	ands.w	r5, r3, #255	; 0xff
 8001e96:	d1f7      	bne.n	8001e88 <fe25519_invert_useProvidedScratchBuffers+0x150>
 8001e98:	4621      	mov	r1, r4
 8001e9a:	463a      	mov	r2, r7
 8001e9c:	4638      	mov	r0, r7
 8001e9e:	b002      	add	sp, #8
 8001ea0:	e8bd 41f0 	ldmia.w	sp!, {r4, r5, r6, r7, r8, lr}
 8001ea4:	f7fe bcdc 	b.w	8000860 <fe25519_mul_asm>

08001ea8 <fe25519_invert>:
 8001ea8:	b500      	push	{lr}
 8001eaa:	b09b      	sub	sp, #108	; 0x6c
 8001eac:	ab12      	add	r3, sp, #72	; 0x48
 8001eae:	9300      	str	r3, [sp, #0]
 8001eb0:	aa02      	add	r2, sp, #8
 8001eb2:	ab0a      	add	r3, sp, #40	; 0x28
 8001eb4:	f7ff ff40 	bl	8001d38 <fe25519_invert_useProvidedScratchBuffers>
 8001eb8:	b01b      	add	sp, #108	; 0x6c
 8001eba:	f85d fb04 	ldr.w	pc, [sp], #4
 8001ebe:	bf00      	nop

08001ec0 <multiply32x64>:
 8001ec0:	e92d 4ff0 	stmdb	sp!, {r4, r5, r6, r7, r8, r9, sl, fp, lr}
 8001ec4:	e9d2 4200 	ldrd	r4, r2, [r2]
 8001ec8:	fa1f f981 	uxth.w	r9, r1
 8001ecc:	b2a5      	uxth	r5, r4
 8001ece:	0c09      	lsrs	r1, r1, #16
 8001ed0:	0c24      	lsrs	r4, r4, #16
 8001ed2:	fb01 fc05 	mul.w	ip, r1, r5
 8001ed6:	fb04 f309 	mul.w	r3, r4, r9
 8001eda:	ea4f 4e03 	mov.w	lr, r3, lsl #16
 8001ede:	ea4f 4b0c 	mov.w	fp, ip, lsl #16
 8001ee2:	ea4f 4812 	mov.w	r8, r2, lsr #16
 8001ee6:	fb05 fa09 	mul.w	sl, r5, r9
 8001eea:	b292      	uxth	r2, r2
 8001eec:	eb1e 050b 	adds.w	r5, lr, fp
 8001ef0:	ea4f 4313 	mov.w	r3, r3, lsr #16
 8001ef4:	ea4f 4e1c 	mov.w	lr, ip, lsr #16
 8001ef8:	fb04 f401 	mul.w	r4, r4, r1
 8001efc:	eb43 030e 	adc.w	r3, r3, lr
 8001f00:	fb09 fc08 	mul.w	ip, r9, r8
 8001f04:	fb01 fe02 	mul.w	lr, r1, r2
 8001f08:	eb15 050a 	adds.w	r5, r5, sl
 8001f0c:	eb44 0303 	adc.w	r3, r4, r3
 8001f10:	ea4f 4a0c 	mov.w	sl, ip, lsl #16
 8001f14:	ea4f 440e 	mov.w	r4, lr, lsl #16
 8001f18:	eb1a 0404 	adds.w	r4, sl, r4
 8001f1c:	fb09 f202 	mul.w	r2, r9, r2
 8001f20:	ea4f 4c1c 	mov.w	ip, ip, lsr #16
 8001f24:	ea4f 4e1e 	mov.w	lr, lr, lsr #16
 8001f28:	eb4c 0c0e 	adc.w	ip, ip, lr
 8001f2c:	fb01 f108 	mul.w	r1, r1, r8
 8001f30:	18a6      	adds	r6, r4, r2
 8001f32:	eb4c 0701 	adc.w	r7, ip, r1
 8001f36:	18f6      	adds	r6, r6, r3
 8001f38:	f147 0700 	adc.w	r7, r7, #0
 8001f3c:	e880 00e0 	stmia.w	r0, {r5, r6, r7}
 8001f40:	e8bd 8ff0 	ldmia.w	sp!, {r4, r5, r6, r7, r8, r9, sl, fp, pc}

08001f44 <multiply64x64>:
 8001f44:	e92d 4ff0 	stmdb	sp!, {r4, r5, r6, r7, r8, r9, sl, fp, lr}
 8001f48:	f8b2 c000 	ldrh.w	ip, [r2]
 8001f4c:	f8b1 8002 	ldrh.w	r8, [r1, #2]
 8001f50:	880c      	ldrh	r4, [r1, #0]
 8001f52:	8857      	ldrh	r7, [r2, #2]
 8001f54:	fb08 f50c 	mul.w	r5, r8, ip
 8001f58:	fb07 fa04 	mul.w	sl, r7, r4
 8001f5c:	042e      	lsls	r6, r5, #16
 8001f5e:	ea4f 430a 	mov.w	r3, sl, lsl #16
 8001f62:	fb0c f404 	mul.w	r4, ip, r4
 8001f66:	199b      	adds	r3, r3, r6
 8001f68:	ea4f 4515 	mov.w	r5, r5, lsr #16
 8001f6c:	ea4f 4a1a 	mov.w	sl, sl, lsr #16
 8001f70:	eb4a 0a05 	adc.w	sl, sl, r5
 8001f74:	191b      	adds	r3, r3, r4
 8001f76:	6003      	str	r3, [r0, #0]
 8001f78:	b087      	sub	sp, #28
 8001f7a:	f8b2 9004 	ldrh.w	r9, [r2, #4]
 8001f7e:	88cc      	ldrh	r4, [r1, #6]
 8001f80:	f8b1 e004 	ldrh.w	lr, [r1, #4]
 8001f84:	88d6      	ldrh	r6, [r2, #6]
 8001f86:	9403      	str	r4, [sp, #12]
 8001f88:	f04f 0500 	mov.w	r5, #0
 8001f8c:	fb04 f409 	mul.w	r4, r4, r9
 8001f90:	46a3      	mov	fp, r4
 8001f92:	46ac      	mov	ip, r5
 8001f94:	fbe6 bc0e 	umlal	fp, ip, r6, lr
 8001f98:	ea4f 450c 	mov.w	r5, ip, lsl #16
 8001f9c:	fb07 f708 	mul.w	r7, r7, r8
 8001fa0:	ea45 451b 	orr.w	r5, r5, fp, lsr #16
 8001fa4:	ea4f 440b 	mov.w	r4, fp, lsl #16
 8001fa8:	fbee 4509 	umlal	r4, r5, lr, r9
 8001fac:	eb4a 0a07 	adc.w	sl, sl, r7
 8001fb0:	46a3      	mov	fp, r4
 8001fb2:	eb13 030a 	adds.w	r3, r3, sl
 8001fb6:	f04f 0700 	mov.w	r7, #0
 8001fba:	463c      	mov	r4, r7
 8001fbc:	eb47 0e07 	adc.w	lr, r7, r7
 8001fc0:	eb1b 0703 	adds.w	r7, fp, r3
 8001fc4:	eb44 030e 	adc.w	r3, r4, lr
 8001fc8:	eb1a 0a0b 	adds.w	sl, sl, fp
 8001fcc:	eb44 0e04 	adc.w	lr, r4, r4
 8001fd0:	eb1a 0303 	adds.w	r3, sl, r3
 8001fd4:	9300      	str	r3, [sp, #0]
 8001fd6:	eb4e 0304 	adc.w	r3, lr, r4
 8001fda:	9301      	str	r3, [sp, #4]
 8001fdc:	e9dd 8900 	ldrd	r8, r9, [sp]
 8001fe0:	46ac      	mov	ip, r5
 8001fe2:	9d03      	ldr	r5, [sp, #12]
 8001fe4:	6047      	str	r7, [r0, #4]
 8001fe6:	fb05 c606 	mla	r6, r5, r6, ip
 8001fea:	eb18 0806 	adds.w	r8, r8, r6
 8001fee:	f149 0900 	adc.w	r9, r9, #0
 8001ff2:	444e      	add	r6, r9
 8001ff4:	e9c0 8602 	strd	r8, r6, [r0, #8]
 8001ff8:	e9d1 a900 	ldrd	sl, r9, [r1]
 8001ffc:	e9d2 2b00 	ldrd	r2, fp, [r2]
 8002000:	ebaa 0309 	sub.w	r3, sl, r9
 8002004:	ebab 0102 	sub.w	r1, fp, r2
 8002008:	0c1e      	lsrs	r6, r3, #16
 800200a:	9103      	str	r1, [sp, #12]
 800200c:	fa1f fc81 	uxth.w	ip, r1
 8002010:	0c0d      	lsrs	r5, r1, #16
 8002012:	ebbb 0102 	subs.w	r1, fp, r2
 8002016:	fb06 f80c 	mul.w	r8, r6, ip
 800201a:	eb6b 020b 	sbc.w	r2, fp, fp
 800201e:	e9cd 1200 	strd	r1, r2, [sp]
 8002022:	4641      	mov	r1, r8
 8002024:	2200      	movs	r2, #0
 8002026:	e9cd 1204 	strd	r1, r2, [sp, #16]
 800202a:	ebba 0a09 	subs.w	sl, sl, r9
 800202e:	e9dd 8904 	ldrd	r8, r9, [sp, #16]
 8002032:	fa1f fe83 	uxth.w	lr, r3
 8002036:	9901      	ldr	r1, [sp, #4]
 8002038:	fb05 f20e 	mul.w	r2, r5, lr
 800203c:	eb6a 0b0a 	sbc.w	fp, sl, sl
 8002040:	e9cd ab04 	strd	sl, fp, [sp, #16]
 8002044:	eb18 0802 	adds.w	r8, r8, r2
 8002048:	465a      	mov	r2, fp
 800204a:	e9d0 ab02 	ldrd	sl, fp, [r0, #8]
 800204e:	ea03 0301 	and.w	r3, r3, r1
 8002052:	9903      	ldr	r1, [sp, #12]
 8002054:	f149 0900 	adc.w	r9, r9, #0
 8002058:	4011      	ands	r1, r2
 800205a:	ebba 0a03 	subs.w	sl, sl, r3
 800205e:	f16b 0b00 	sbc.w	fp, fp, #0
 8002062:	ebba 0a01 	subs.w	sl, sl, r1
 8002066:	9905      	ldr	r1, [sp, #20]
 8002068:	fb0c fc0e 	mul.w	ip, ip, lr
 800206c:	468e      	mov	lr, r1
 800206e:	9901      	ldr	r1, [sp, #4]
 8002070:	f16b 0b00 	sbc.w	fp, fp, #0
 8002074:	fb01 b10e 	mla	r1, r1, lr, fp
 8002078:	e9c0 a102 	strd	sl, r1, [r0, #8]
 800207c:	ea4f 4309 	mov.w	r3, r9, lsl #16
 8002080:	ea4f 4208 	mov.w	r2, r8, lsl #16
 8002084:	eb12 020c 	adds.w	r2, r2, ip
 8002088:	ea43 4318 	orr.w	r3, r3, r8, lsr #16
 800208c:	e9d0 8902 	ldrd	r8, r9, [r0, #8]
 8002090:	f143 0300 	adc.w	r3, r3, #0
 8002094:	fb06 3505 	mla	r5, r6, r5, r3
 8002098:	19d7      	adds	r7, r2, r7
 800209a:	eb44 0204 	adc.w	r2, r4, r4
 800209e:	eb18 0805 	adds.w	r8, r8, r5
 80020a2:	f149 0900 	adc.w	r9, r9, #0
 80020a6:	eb18 0202 	adds.w	r2, r8, r2
 80020aa:	eb49 0404 	adc.w	r4, r9, r4
 80020ae:	e9c0 2402 	strd	r2, r4, [r0, #8]
 80020b2:	6047      	str	r7, [r0, #4]
 80020b4:	b007      	add	sp, #28
 80020b6:	e8bd 8ff0 	ldmia.w	sp!, {r4, r5, r6, r7, r8, r9, sl, fp, pc}
 80020ba:	bf00      	nop

080020bc <multiply96x96_c>:
 80020bc:	e92d 4ff0 	stmdb	sp!, {r4, r5, r6, r7, r8, r9, sl, fp, lr}
 80020c0:	4614      	mov	r4, r2
 80020c2:	b097      	sub	sp, #92	; 0x5c
 80020c4:	8827      	ldrh	r7, [r4, #0]
 80020c6:	f8b1 c002 	ldrh.w	ip, [r1, #2]
 80020ca:	880b      	ldrh	r3, [r1, #0]
 80020cc:	8852      	ldrh	r2, [r2, #2]
 80020ce:	688e      	ldr	r6, [r1, #8]
 80020d0:	9607      	str	r6, [sp, #28]
 80020d2:	fb0c f507 	mul.w	r5, ip, r7
 80020d6:	fb02 f603 	mul.w	r6, r2, r3
 80020da:	9406      	str	r4, [sp, #24]
 80020dc:	ea4f 4e05 	mov.w	lr, r5, lsl #16
 80020e0:	0434      	lsls	r4, r6, #16
 80020e2:	eb14 040e 	adds.w	r4, r4, lr
 80020e6:	fb07 f303 	mul.w	r3, r7, r3
 80020ea:	ea4f 4515 	mov.w	r5, r5, lsr #16
 80020ee:	ea4f 4616 	mov.w	r6, r6, lsr #16
 80020f2:	eb45 0606 	adc.w	r6, r5, r6
 80020f6:	18e3      	adds	r3, r4, r3
 80020f8:	9c06      	ldr	r4, [sp, #24]
 80020fa:	6003      	str	r3, [r0, #0]
 80020fc:	888f      	ldrh	r7, [r1, #4]
 80020fe:	f8b4 9006 	ldrh.w	r9, [r4, #6]
 8002102:	f8b4 e004 	ldrh.w	lr, [r4, #4]
 8002106:	4680      	mov	r8, r0
 8002108:	88c8      	ldrh	r0, [r1, #6]
 800210a:	fb09 f407 	mul.w	r4, r9, r7
 800210e:	f04f 0500 	mov.w	r5, #0
 8002112:	fbee 4500 	umlal	r4, r5, lr, r0
 8002116:	ea4f 4b05 	mov.w	fp, r5, lsl #16
 800211a:	fb02 f20c 	mul.w	r2, r2, ip
 800211e:	ea4b 4b14 	orr.w	fp, fp, r4, lsr #16
 8002122:	ea4f 4a04 	mov.w	sl, r4, lsl #16
 8002126:	fbe7 ab0e 	umlal	sl, fp, r7, lr
 800212a:	eb42 0606 	adc.w	r6, r2, r6
 800212e:	4654      	mov	r4, sl
 8002130:	199a      	adds	r2, r3, r6
 8002132:	465d      	mov	r5, fp
 8002134:	f04f 0b00 	mov.w	fp, #0
 8002138:	e9cd 4508 	strd	r4, r5, [sp, #32]
 800213c:	eb4b 030b 	adc.w	r3, fp, fp
 8002140:	1915      	adds	r5, r2, r4
 8002142:	eb43 030b 	adc.w	r3, r3, fp
 8002146:	1936      	adds	r6, r6, r4
 8002148:	eb4b 020b 	adc.w	r2, fp, fp
 800214c:	199f      	adds	r7, r3, r6
 800214e:	465b      	mov	r3, fp
 8002150:	eb43 0202 	adc.w	r2, r3, r2
 8002154:	9700      	str	r7, [sp, #0]
 8002156:	9201      	str	r2, [sp, #4]
 8002158:	e9dd 2300 	ldrd	r2, r3, [sp]
 800215c:	9c09      	ldr	r4, [sp, #36]	; 0x24
 800215e:	f8c8 5004 	str.w	r5, [r8, #4]
 8002162:	fb09 4000 	mla	r0, r9, r0, r4
 8002166:	1812      	adds	r2, r2, r0
 8002168:	f143 0300 	adc.w	r3, r3, #0
 800216c:	4418      	add	r0, r3
 800216e:	e9c8 2002 	strd	r2, r0, [r8, #8]
 8002172:	9b06      	ldr	r3, [sp, #24]
 8002174:	950c      	str	r5, [sp, #48]	; 0x30
 8002176:	e9d1 5400 	ldrd	r5, r4, [r1]
 800217a:	685a      	ldr	r2, [r3, #4]
 800217c:	681b      	ldr	r3, [r3, #0]
 800217e:	f8cd b034 	str.w	fp, [sp, #52]	; 0x34
 8002182:	eba5 0a04 	sub.w	sl, r5, r4
 8002186:	eba2 0e03 	sub.w	lr, r2, r3
 800218a:	ea4f 461a 	mov.w	r6, sl, lsr #16
 800218e:	fa1f f08e 	uxth.w	r0, lr
 8002192:	ebb2 0b03 	subs.w	fp, r2, r3
 8002196:	fb06 f900 	mul.w	r9, r6, r0
 800219a:	fa1f f78a 	uxth.w	r7, sl
 800219e:	9608      	str	r6, [sp, #32]
 80021a0:	ea4f 461e 	mov.w	r6, lr, lsr #16
 80021a4:	eb62 0c02 	sbc.w	ip, r2, r2
 80021a8:	1b2c      	subs	r4, r5, r4
 80021aa:	464a      	mov	r2, r9
 80021ac:	fb06 f907 	mul.w	r9, r6, r7
 80021b0:	e9cd bc0a 	strd	fp, ip, [sp, #40]	; 0x28
 80021b4:	eb65 0505 	sbc.w	r5, r5, r5
 80021b8:	2300      	movs	r3, #0
 80021ba:	eb12 0b09 	adds.w	fp, r2, r9
 80021be:	e9cd 4500 	strd	r4, r5, [sp]
 80021c2:	ea0a 040c 	and.w	r4, sl, ip
 80021c6:	f143 0c00 	adc.w	ip, r3, #0
 80021ca:	e9d8 2302 	ldrd	r2, r3, [r8, #8]
 80021ce:	9d01      	ldr	r5, [sp, #4]
 80021d0:	1b12      	subs	r2, r2, r4
 80021d2:	ea0e 0e05 	and.w	lr, lr, r5
 80021d6:	f163 0300 	sbc.w	r3, r3, #0
 80021da:	4664      	mov	r4, ip
 80021dc:	ebb2 090e 	subs.w	r9, r2, lr
 80021e0:	f163 0a00 	sbc.w	sl, r3, #0
 80021e4:	0423      	lsls	r3, r4, #16
 80021e6:	465c      	mov	r4, fp
 80021e8:	fb00 f007 	mul.w	r0, r0, r7
 80021ec:	0422      	lsls	r2, r4, #16
 80021ee:	1812      	adds	r2, r2, r0
 80021f0:	9c0b      	ldr	r4, [sp, #44]	; 0x2c
 80021f2:	9806      	ldr	r0, [sp, #24]
 80021f4:	ea43 431b 	orr.w	r3, r3, fp, lsr #16
 80021f8:	f143 0300 	adc.w	r3, r3, #0
 80021fc:	fb04 a405 	mla	r4, r4, r5, sl
 8002200:	461d      	mov	r5, r3
 8002202:	9b08      	ldr	r3, [sp, #32]
 8002204:	f8dd a030 	ldr.w	sl, [sp, #48]	; 0x30
 8002208:	6880      	ldr	r0, [r0, #8]
 800220a:	e9c8 9402 	strd	r9, r4, [r8, #8]
 800220e:	fb03 5606 	mla	r6, r3, r6, r5
 8002212:	9b07      	ldr	r3, [sp, #28]
 8002214:	eb1a 0a02 	adds.w	sl, sl, r2
 8002218:	b29f      	uxth	r7, r3
 800221a:	ea4f 4413 	mov.w	r4, r3, lsr #16
 800221e:	e9d8 2302 	ldrd	r2, r3, [r8, #8]
 8002222:	f04f 0b00 	mov.w	fp, #0
 8002226:	eb4b 050b 	adc.w	r5, fp, fp
 800222a:	1992      	adds	r2, r2, r6
 800222c:	f143 0300 	adc.w	r3, r3, #0
 8002230:	ea4f 4e10 	mov.w	lr, r0, lsr #16
 8002234:	e9cd 2300 	strd	r2, r3, [sp]
 8002238:	b280      	uxth	r0, r0
 800223a:	fb0e fc07 	mul.w	ip, lr, r7
 800223e:	fb04 f600 	mul.w	r6, r4, r0
 8002242:	9b01      	ldr	r3, [sp, #4]
 8002244:	f8c8 a004 	str.w	sl, [r8, #4]
 8002248:	1955      	adds	r5, r2, r5
 800224a:	ea4f 4906 	mov.w	r9, r6, lsl #16
 800224e:	ea4f 420c 	mov.w	r2, ip, lsl #16
 8002252:	eb43 030b 	adc.w	r3, r3, fp
 8002256:	ea4f 4c1c 	mov.w	ip, ip, lsr #16
 800225a:	eb12 0209 	adds.w	r2, r2, r9
 800225e:	ea4f 4616 	mov.w	r6, r6, lsr #16
 8002262:	fb00 f907 	mul.w	r9, r0, r7
 8002266:	eb4c 0606 	adc.w	r6, ip, r6
 800226a:	eb12 0209 	adds.w	r2, r2, r9
 800226e:	fb0e fc04 	mul.w	ip, lr, r4
 8002272:	eb46 060c 	adc.w	r6, r6, ip
 8002276:	e9c8 5302 	strd	r5, r3, [r8, #8]
 800227a:	e9c8 2604 	strd	r2, r6, [r8, #16]
 800227e:	9600      	str	r6, [sp, #0]
 8002280:	e9d1 6100 	ldrd	r6, r1, [r1]
 8002284:	b2b3      	uxth	r3, r6
 8002286:	0c36      	lsrs	r6, r6, #16
 8002288:	fb00 f206 	mul.w	r2, r0, r6
 800228c:	fb0e f503 	mul.w	r5, lr, r3
 8002290:	ea4f 4911 	mov.w	r9, r1, lsr #16
 8002294:	ea4f 4c02 	mov.w	ip, r2, lsl #16
 8002298:	ea4f 4a05 	mov.w	sl, r5, lsl #16
 800229c:	b289      	uxth	r1, r1
 800229e:	fb00 fb03 	mul.w	fp, r0, r3
 80022a2:	0c2d      	lsrs	r5, r5, #16
 80022a4:	eb1c 030a 	adds.w	r3, ip, sl
 80022a8:	ea4f 4212 	mov.w	r2, r2, lsr #16
 80022ac:	fb00 fc09 	mul.w	ip, r0, r9
 80022b0:	fb0e fa01 	mul.w	sl, lr, r1
 80022b4:	fb0e f606 	mul.w	r6, lr, r6
 80022b8:	eb45 0202 	adc.w	r2, r5, r2
 80022bc:	eb13 030b 	adds.w	r3, r3, fp
 80022c0:	ea4f 450c 	mov.w	r5, ip, lsl #16
 80022c4:	ea4f 4b0a 	mov.w	fp, sl, lsl #16
 80022c8:	eb46 0202 	adc.w	r2, r6, r2
 80022cc:	fb00 f001 	mul.w	r0, r0, r1
 80022d0:	eb15 050b 	adds.w	r5, r5, fp
 80022d4:	ea4f 4a1a 	mov.w	sl, sl, lsr #16
 80022d8:	ea4f 4c1c 	mov.w	ip, ip, lsr #16
 80022dc:	eb4c 0c0a 	adc.w	ip, ip, sl
 80022e0:	fb0e fe09 	mul.w	lr, lr, r9
 80022e4:	1829      	adds	r1, r5, r0
 80022e6:	9102      	str	r1, [sp, #8]
 80022e8:	eb4c 010e 	adc.w	r1, ip, lr
 80022ec:	9103      	str	r1, [sp, #12]
 80022ee:	e9dd 0102 	ldrd	r0, r1, [sp, #8]
 80022f2:	1880      	adds	r0, r0, r2
 80022f4:	9a06      	ldr	r2, [sp, #24]
 80022f6:	e9cd 300e 	strd	r3, r0, [sp, #56]	; 0x38
 80022fa:	6813      	ldr	r3, [r2, #0]
 80022fc:	6850      	ldr	r0, [r2, #4]
 80022fe:	f141 0100 	adc.w	r1, r1, #0
 8002302:	ea4f 4c13 	mov.w	ip, r3, lsr #16
 8002306:	b29b      	uxth	r3, r3
 8002308:	fb04 fe03 	mul.w	lr, r4, r3
 800230c:	9110      	str	r1, [sp, #64]	; 0x40
 800230e:	fb07 f10c 	mul.w	r1, r7, ip
 8002312:	040d      	lsls	r5, r1, #16
 8002314:	ea4f 460e 	mov.w	r6, lr, lsl #16
 8002318:	ea4f 4910 	mov.w	r9, r0, lsr #16
 800231c:	b280      	uxth	r0, r0
 800231e:	fb07 f203 	mul.w	r2, r7, r3
 8002322:	ea4f 4e1e 	mov.w	lr, lr, lsr #16
 8002326:	19ab      	adds	r3, r5, r6
 8002328:	ea4f 4a11 	mov.w	sl, r1, lsr #16
 800232c:	fb07 f509 	mul.w	r5, r7, r9
 8002330:	fb04 f600 	mul.w	r6, r4, r0
 8002334:	eb4a 010e 	adc.w	r1, sl, lr
 8002338:	fb04 fc0c 	mul.w	ip, r4, ip
 800233c:	189b      	adds	r3, r3, r2
 800233e:	ea4f 4e05 	mov.w	lr, r5, lsl #16
 8002342:	ea4f 4206 	mov.w	r2, r6, lsl #16
 8002346:	eb41 010c 	adc.w	r1, r1, ip
 800234a:	fb07 f700 	mul.w	r7, r7, r0
 800234e:	eb1e 0202 	adds.w	r2, lr, r2
 8002352:	ea4f 4616 	mov.w	r6, r6, lsr #16
 8002356:	ea4f 4515 	mov.w	r5, r5, lsr #16
 800235a:	eb46 0505 	adc.w	r5, r6, r5
 800235e:	fb04 f409 	mul.w	r4, r4, r9
 8002362:	19d2      	adds	r2, r2, r7
 8002364:	9204      	str	r2, [sp, #16]
 8002366:	eb45 0204 	adc.w	r2, r5, r4
 800236a:	9205      	str	r2, [sp, #20]
 800236c:	e9dd 4504 	ldrd	r4, r5, [sp, #16]
 8002370:	1864      	adds	r4, r4, r1
 8002372:	e9cd 3412 	strd	r3, r4, [sp, #72]	; 0x48
 8002376:	f145 0500 	adc.w	r5, r5, #0
 800237a:	2300      	movs	r3, #0
 800237c:	9514      	str	r5, [sp, #80]	; 0x50
 800237e:	f108 0208 	add.w	r2, r8, #8
 8002382:	f108 0e14 	add.w	lr, r8, #20
 8002386:	af0e      	add	r7, sp, #56	; 0x38
 8002388:	ae12      	add	r6, sp, #72	; 0x48
 800238a:	461c      	mov	r4, r3
 800238c:	2100      	movs	r1, #0
 800238e:	f857 0b04 	ldr.w	r0, [r7], #4
 8002392:	f856 5b04 	ldr.w	r5, [r6], #4
 8002396:	468a      	mov	sl, r1
 8002398:	6811      	ldr	r1, [r2, #0]
 800239a:	eb10 0901 	adds.w	r9, r0, r1
 800239e:	f14a 0a00 	adc.w	sl, sl, #0
 80023a2:	eb19 0005 	adds.w	r0, r9, r5
 80023a6:	f14a 0100 	adc.w	r1, sl, #0
 80023aa:	18c3      	adds	r3, r0, r3
 80023ac:	f842 3b04 	str.w	r3, [r2], #4
 80023b0:	eb41 0304 	adc.w	r3, r1, r4
 80023b4:	4596      	cmp	lr, r2
 80023b6:	f04f 0400 	mov.w	r4, #0
 80023ba:	d1e7      	bne.n	800238c <multiply96x96_c+0x2d0>
 80023bc:	9a00      	ldr	r2, [sp, #0]
 80023be:	4413      	add	r3, r2
 80023c0:	f8c8 3014 	str.w	r3, [r8, #20]
 80023c4:	b017      	add	sp, #92	; 0x5c
 80023c6:	e8bd 8ff0 	ldmia.w	sp!, {r4, r5, r6, r7, r8, r9, sl, fp, pc}
 80023ca:	bf00      	nop

080023cc <square96_c>:
 80023cc:	e92d 4ff0 	stmdb	sp!, {r4, r5, r6, r7, r8, r9, sl, fp, lr}
 80023d0:	880d      	ldrh	r5, [r1, #0]
 80023d2:	884c      	ldrh	r4, [r1, #2]
 80023d4:	688b      	ldr	r3, [r1, #8]
 80023d6:	fb05 f404 	mul.w	r4, r5, r4
 80023da:	ea4f 39d4 	mov.w	r9, r4, lsr #15
 80023de:	ea4f 4844 	mov.w	r8, r4, lsl #17
 80023e2:	fbe5 8905 	umlal	r8, r9, r5, r5
 80023e6:	f8c0 8000 	str.w	r8, [r0]
 80023ea:	880f      	ldrh	r7, [r1, #0]
 80023ec:	88cc      	ldrh	r4, [r1, #6]
 80023ee:	f8b1 e002 	ldrh.w	lr, [r1, #2]
 80023f2:	f8b1 c004 	ldrh.w	ip, [r1, #4]
 80023f6:	fb07 f404 	mul.w	r4, r7, r4
 80023fa:	2500      	movs	r5, #0
 80023fc:	b08f      	sub	sp, #60	; 0x3c
 80023fe:	fbec 450e 	umlal	r4, r5, ip, lr
 8002402:	e9cd 4500 	strd	r4, r5, [sp]
 8002406:	9c00      	ldr	r4, [sp, #0]
 8002408:	fb07 fc0c 	mul.w	ip, r7, ip
 800240c:	f04f 0a02 	mov.w	sl, #2
 8002410:	fb0e f60e 	mul.w	r6, lr, lr
 8002414:	2700      	movs	r7, #0
 8002416:	fbea 670c 	umlal	r6, r7, sl, ip
 800241a:	ea4f 4c45 	mov.w	ip, r5, lsl #17
 800241e:	0465      	lsls	r5, r4, #17
 8002420:	19ad      	adds	r5, r5, r6
 8002422:	ea4c 3cd4 	orr.w	ip, ip, r4, lsr #15
 8002426:	eb4c 0c07 	adc.w	ip, ip, r7
 800242a:	eb15 0509 	adds.w	r5, r5, r9
 800242e:	6045      	str	r5, [r0, #4]
 8002430:	888f      	ldrh	r7, [r1, #4]
 8002432:	f8b1 9006 	ldrh.w	r9, [r1, #6]
 8002436:	f8b1 e002 	ldrh.w	lr, [r1, #2]
 800243a:	fb09 f807 	mul.w	r8, r9, r7
 800243e:	fb09 fe0e 	mul.w	lr, r9, lr
 8002442:	ea4f 35d8 	mov.w	r5, r8, lsr #15
 8002446:	ea4f 4448 	mov.w	r4, r8, lsl #17
 800244a:	f04f 0200 	mov.w	r2, #0
 800244e:	fbea 450e 	umlal	r4, r5, sl, lr
 8002452:	fbe7 4507 	umlal	r4, r5, r7, r7
 8002456:	eb4c 0c02 	adc.w	ip, ip, r2
 800245a:	fa1f fe83 	uxth.w	lr, r3
 800245e:	0c1f      	lsrs	r7, r3, #16
 8002460:	eb14 030c 	adds.w	r3, r4, ip
 8002464:	461c      	mov	r4, r3
 8002466:	6084      	str	r4, [r0, #8]
 8002468:	fb07 f30e 	mul.w	r3, r7, lr
 800246c:	f8b1 c006 	ldrh.w	ip, [r1, #6]
 8002470:	9409      	str	r4, [sp, #36]	; 0x24
 8002472:	ea4f 4403 	mov.w	r4, r3, lsl #16
 8002476:	eb45 0602 	adc.w	r6, r5, r2
 800247a:	fb0e f80e 	mul.w	r8, lr, lr
 800247e:	1924      	adds	r4, r4, r4
 8002480:	ea4f 4313 	mov.w	r3, r3, lsr #16
 8002484:	fb0c 6c0c 	mla	ip, ip, ip, r6
 8002488:	415b      	adcs	r3, r3
 800248a:	eb14 0408 	adds.w	r4, r4, r8
 800248e:	e9c0 c403 	strd	ip, r4, [r0, #12]
 8002492:	fb07 f507 	mul.w	r5, r7, r7
 8002496:	eb45 0303 	adc.w	r3, r5, r3
 800249a:	6143      	str	r3, [r0, #20]
 800249c:	e9d1 4500 	ldrd	r4, r5, [r1]
 80024a0:	fa1f fa84 	uxth.w	sl, r4
 80024a4:	ea4f 4814 	mov.w	r8, r4, lsr #16
 80024a8:	fb0e f408 	mul.w	r4, lr, r8
 80024ac:	fb07 f90a 	mul.w	r9, r7, sl
 80024b0:	ea4f 4b09 	mov.w	fp, r9, lsl #16
 80024b4:	0426      	lsls	r6, r4, #16
 80024b6:	fb0e fa0a 	mul.w	sl, lr, sl
 80024ba:	eb16 060b 	adds.w	r6, r6, fp
 80024be:	ea4f 4919 	mov.w	r9, r9, lsr #16
 80024c2:	ea4f 4b15 	mov.w	fp, r5, lsr #16
 80024c6:	ea4f 4414 	mov.w	r4, r4, lsr #16
 80024ca:	b2ad      	uxth	r5, r5
 80024cc:	fb07 f808 	mul.w	r8, r7, r8
 80024d0:	eb44 0409 	adc.w	r4, r4, r9
 80024d4:	eb16 060a 	adds.w	r6, r6, sl
 80024d8:	fb0e f90b 	mul.w	r9, lr, fp
 80024dc:	fb07 fa05 	mul.w	sl, r7, r5
 80024e0:	eb44 0408 	adc.w	r4, r4, r8
 80024e4:	fb0e f505 	mul.w	r5, lr, r5
 80024e8:	ea4f 4809 	mov.w	r8, r9, lsl #16
 80024ec:	ea4f 4e0a 	mov.w	lr, sl, lsl #16
 80024f0:	eb18 080e 	adds.w	r8, r8, lr
 80024f4:	ea4f 4a1a 	mov.w	sl, sl, lsr #16
 80024f8:	ea4f 4919 	mov.w	r9, r9, lsr #16
 80024fc:	eb49 090a 	adc.w	r9, r9, sl
 8002500:	fb07 f70b 	mul.w	r7, r7, fp
 8002504:	eb18 0505 	adds.w	r5, r8, r5
 8002508:	eb49 0707 	adc.w	r7, r9, r7
 800250c:	9502      	str	r5, [sp, #8]
 800250e:	9703      	str	r7, [sp, #12]
 8002510:	e9dd 8902 	ldrd	r8, r9, [sp, #8]
 8002514:	eb18 0804 	adds.w	r8, r8, r4
 8002518:	f149 0900 	adc.w	r9, r9, #0
 800251c:	eb18 0708 	adds.w	r7, r8, r8
 8002520:	9704      	str	r7, [sp, #16]
 8002522:	9c09      	ldr	r4, [sp, #36]	; 0x24
 8002524:	6901      	ldr	r1, [r0, #16]
 8002526:	9200      	str	r2, [sp, #0]
 8002528:	eb42 0702 	adc.w	r7, r2, r2
 800252c:	9705      	str	r7, [sp, #20]
 800252e:	4615      	mov	r5, r2
 8002530:	f04f 0a02 	mov.w	sl, #2
 8002534:	fbea 4506 	umlal	r4, r5, sl, r6
 8002538:	e9dd 6704 	ldrd	r6, r7, [sp, #16]
 800253c:	eb16 060c 	adds.w	r6, r6, ip
 8002540:	f147 0700 	adc.w	r7, r7, #0
 8002544:	1975      	adds	r5, r6, r5
 8002546:	eb47 0c02 	adc.w	ip, r7, r2
 800254a:	46a2      	mov	sl, r4
 800254c:	eb19 0409 	adds.w	r4, r9, r9
 8002550:	9406      	str	r4, [sp, #24]
 8002552:	eb42 0402 	adc.w	r4, r2, r2
 8002556:	9407      	str	r4, [sp, #28]
 8002558:	e9dd 6706 	ldrd	r6, r7, [sp, #24]
 800255c:	1876      	adds	r6, r6, r1
 800255e:	f147 0700 	adc.w	r7, r7, #0
 8002562:	eb16 010c 	adds.w	r1, r6, ip
 8002566:	4696      	mov	lr, r2
 8002568:	eb47 0202 	adc.w	r2, r7, r2
 800256c:	4413      	add	r3, r2
 800256e:	e9c0 a502 	strd	sl, r5, [r0, #8]
 8002572:	e9c0 1304 	strd	r1, r3, [r0, #16]
 8002576:	b00f      	add	sp, #60	; 0x3c
 8002578:	e8bd 8ff0 	ldmia.w	sp!, {r4, r5, r6, r7, r8, r9, sl, fp, pc}

0800257c <square128_c>:
 800257c:	e92d 4ff0 	stmdb	sp!, {r4, r5, r6, r7, r8, r9, sl, fp, lr}
 8002580:	880a      	ldrh	r2, [r1, #0]
 8002582:	884b      	ldrh	r3, [r1, #2]
 8002584:	fb02 f303 	mul.w	r3, r2, r3
 8002588:	0bdf      	lsrs	r7, r3, #15
 800258a:	045e      	lsls	r6, r3, #17
 800258c:	fbe2 6702 	umlal	r6, r7, r2, r2
 8002590:	b097      	sub	sp, #92	; 0x5c
 8002592:	6006      	str	r6, [r0, #0]
 8002594:	f8b1 c000 	ldrh.w	ip, [r1]
 8002598:	88ca      	ldrh	r2, [r1, #6]
 800259a:	e9cd 6700 	strd	r6, r7, [sp]
 800259e:	888e      	ldrh	r6, [r1, #4]
 80025a0:	4686      	mov	lr, r0
 80025a2:	fb0c f306 	mul.w	r3, ip, r6
 80025a6:	8848      	ldrh	r0, [r1, #2]
 80025a8:	18dc      	adds	r4, r3, r3
 80025aa:	fb0c f202 	mul.w	r2, ip, r2
 80025ae:	f04f 0300 	mov.w	r3, #0
 80025b2:	f04f 0c00 	mov.w	ip, #0
 80025b6:	fbe6 2300 	umlal	r2, r3, r6, r0
 80025ba:	eb4c 050c 	adc.w	r5, ip, ip
 80025be:	fbe0 4500 	umlal	r4, r5, r0, r0
 80025c2:	4692      	mov	sl, r2
 80025c4:	0456      	lsls	r6, r2, #17
 80025c6:	0458      	lsls	r0, r3, #17
 80025c8:	9b01      	ldr	r3, [sp, #4]
 80025ca:	1936      	adds	r6, r6, r4
 80025cc:	ea40 30da 	orr.w	r0, r0, sl, lsr #15
 80025d0:	eb45 0000 	adc.w	r0, r5, r0
 80025d4:	18f6      	adds	r6, r6, r3
 80025d6:	f8ce 6004 	str.w	r6, [lr, #4]
 80025da:	888c      	ldrh	r4, [r1, #4]
 80025dc:	88cd      	ldrh	r5, [r1, #6]
 80025de:	884f      	ldrh	r7, [r1, #2]
 80025e0:	fb05 f604 	mul.w	r6, r5, r4
 80025e4:	ea4f 33d6 	mov.w	r3, r6, lsr #15
 80025e8:	fb05 f507 	mul.w	r5, r5, r7
 80025ec:	ea4f 4246 	mov.w	r2, r6, lsl #17
 80025f0:	f04f 0602 	mov.w	r6, #2
 80025f4:	fbe6 2305 	umlal	r2, r3, r6, r5
 80025f8:	fbe4 2304 	umlal	r2, r3, r4, r4
 80025fc:	eb40 000c 	adc.w	r0, r0, ip
 8002600:	461d      	mov	r5, r3
 8002602:	1813      	adds	r3, r2, r0
 8002604:	f8ce 3008 	str.w	r3, [lr, #8]
 8002608:	88ca      	ldrh	r2, [r1, #6]
 800260a:	9311      	str	r3, [sp, #68]	; 0x44
 800260c:	eb45 030c 	adc.w	r3, r5, ip
 8002610:	fb02 3202 	mla	r2, r2, r2, r3
 8002614:	f8ce 200c 	str.w	r2, [lr, #12]
 8002618:	890c      	ldrh	r4, [r1, #8]
 800261a:	8948      	ldrh	r0, [r1, #10]
 800261c:	920d      	str	r2, [sp, #52]	; 0x34
 800261e:	fb04 f000 	mul.w	r0, r4, r0
 8002622:	0bc3      	lsrs	r3, r0, #15
 8002624:	0442      	lsls	r2, r0, #17
 8002626:	46e2      	mov	sl, ip
 8002628:	4693      	mov	fp, r2
 800262a:	469c      	mov	ip, r3
 800262c:	fbe4 bc04 	umlal	fp, ip, r4, r4
 8002630:	f8ce b010 	str.w	fp, [lr, #16]
 8002634:	898c      	ldrh	r4, [r1, #12]
 8002636:	890a      	ldrh	r2, [r1, #8]
 8002638:	89cd      	ldrh	r5, [r1, #14]
 800263a:	8948      	ldrh	r0, [r1, #10]
 800263c:	fb02 f304 	mul.w	r3, r2, r4
 8002640:	eb13 0803 	adds.w	r8, r3, r3
 8002644:	fb02 f205 	mul.w	r2, r2, r5
 8002648:	f04f 0300 	mov.w	r3, #0
 800264c:	fbe4 2300 	umlal	r2, r3, r4, r0
 8002650:	eb4a 090a 	adc.w	r9, sl, sl
 8002654:	fbe0 8900 	umlal	r8, r9, r0, r0
 8002658:	0456      	lsls	r6, r2, #17
 800265a:	0458      	lsls	r0, r3, #17
 800265c:	eb16 0608 	adds.w	r6, r6, r8
 8002660:	ea40 30d2 	orr.w	r0, r0, r2, lsr #15
 8002664:	eb40 0009 	adc.w	r0, r0, r9
 8002668:	eb16 040c 	adds.w	r4, r6, ip
 800266c:	f8ce 4014 	str.w	r4, [lr, #20]
 8002670:	89cf      	ldrh	r7, [r1, #14]
 8002672:	940f      	str	r4, [sp, #60]	; 0x3c
 8002674:	898c      	ldrh	r4, [r1, #12]
 8002676:	894d      	ldrh	r5, [r1, #10]
 8002678:	fb07 f604 	mul.w	r6, r7, r4
 800267c:	fb07 f505 	mul.w	r5, r7, r5
 8002680:	ea4f 33d6 	mov.w	r3, r6, lsr #15
 8002684:	ea4f 4246 	mov.w	r2, r6, lsl #17
 8002688:	f04f 0702 	mov.w	r7, #2
 800268c:	fbe7 2305 	umlal	r2, r3, r7, r5
 8002690:	fbe4 2304 	umlal	r2, r3, r4, r4
 8002694:	eb40 000a 	adc.w	r0, r0, sl
 8002698:	1810      	adds	r0, r2, r0
 800269a:	e9cd bc0a 	strd	fp, ip, [sp, #40]	; 0x28
 800269e:	9010      	str	r0, [sp, #64]	; 0x40
 80026a0:	f8ce 0018 	str.w	r0, [lr, #24]
 80026a4:	89ca      	ldrh	r2, [r1, #14]
 80026a6:	eb43 030a 	adc.w	r3, r3, sl
 80026aa:	fb02 3202 	mla	r2, r2, r2, r3
 80026ae:	f8ce 201c 	str.w	r2, [lr, #28]
 80026b2:	f8b1 9008 	ldrh.w	r9, [r1, #8]
 80026b6:	f8b1 8002 	ldrh.w	r8, [r1, #2]
 80026ba:	880a      	ldrh	r2, [r1, #0]
 80026bc:	8948      	ldrh	r0, [r1, #10]
 80026be:	f8b1 c004 	ldrh.w	ip, [r1, #4]
 80026c2:	89cf      	ldrh	r7, [r1, #14]
 80026c4:	88cd      	ldrh	r5, [r1, #6]
 80026c6:	f8b1 b00c 	ldrh.w	fp, [r1, #12]
 80026ca:	680e      	ldr	r6, [r1, #0]
 80026cc:	9600      	str	r6, [sp, #0]
 80026ce:	fb08 f309 	mul.w	r3, r8, r9
 80026d2:	9304      	str	r3, [sp, #16]
 80026d4:	fb00 f402 	mul.w	r4, r0, r2
 80026d8:	fb09 f902 	mul.w	r9, r9, r2
 80026dc:	9a04      	ldr	r2, [sp, #16]
 80026de:	970c      	str	r7, [sp, #48]	; 0x30
 80026e0:	fb07 f60c 	mul.w	r6, r7, ip
 80026e4:	0423      	lsls	r3, r4, #16
 80026e6:	0412      	lsls	r2, r2, #16
 80026e8:	2700      	movs	r7, #0
 80026ea:	fbeb 6705 	umlal	r6, r7, fp, r5
 80026ee:	9508      	str	r5, [sp, #32]
 80026f0:	189d      	adds	r5, r3, r2
 80026f2:	9b04      	ldr	r3, [sp, #16]
 80026f4:	ea4f 4313 	mov.w	r3, r3, lsr #16
 80026f8:	9304      	str	r3, [sp, #16]
 80026fa:	fb00 f808 	mul.w	r8, r0, r8
 80026fe:	9804      	ldr	r0, [sp, #16]
 8002700:	ea4f 4307 	mov.w	r3, r7, lsl #16
 8002704:	ea4f 4414 	mov.w	r4, r4, lsr #16
 8002708:	eb40 0404 	adc.w	r4, r0, r4
 800270c:	ea43 4316 	orr.w	r3, r3, r6, lsr #16
 8002710:	eb15 0909 	adds.w	r9, r5, r9
 8002714:	ea4f 4206 	mov.w	r2, r6, lsl #16
 8002718:	eb44 0008 	adc.w	r0, r4, r8
 800271c:	461c      	mov	r4, r3
 800271e:	4613      	mov	r3, r2
 8002720:	fbec 340b 	umlal	r3, r4, ip, fp
 8002724:	eb10 0509 	adds.w	r5, r0, r9
 8002728:	eb4a 020a 	adc.w	r2, sl, sl
 800272c:	eb15 0c03 	adds.w	ip, r5, r3
 8002730:	eb42 020a 	adc.w	r2, r2, sl
 8002734:	18c0      	adds	r0, r0, r3
 8002736:	e9cd 3404 	strd	r3, r4, [sp, #16]
 800273a:	f8cd c038 	str.w	ip, [sp, #56]	; 0x38
 800273e:	eb4a 040a 	adc.w	r4, sl, sl
 8002742:	eb12 0c00 	adds.w	ip, r2, r0
 8002746:	9f0c      	ldr	r7, [sp, #48]	; 0x30
 8002748:	9b05      	ldr	r3, [sp, #20]
 800274a:	f8cd c008 	str.w	ip, [sp, #8]
 800274e:	9d08      	ldr	r5, [sp, #32]
 8002750:	eb4a 0c04 	adc.w	ip, sl, r4
 8002754:	f8cd c00c 	str.w	ip, [sp, #12]
 8002758:	fb07 3505 	mla	r5, r7, r5, r3
 800275c:	e9dd 7802 	ldrd	r7, r8, [sp, #8]
 8002760:	1d08      	adds	r0, r1, #4
 8002762:	c813      	ldmia	r0, {r0, r1, r4}
 8002764:	197f      	adds	r7, r7, r5
 8002766:	463a      	mov	r2, r7
 8002768:	9f00      	ldr	r7, [sp, #0]
 800276a:	f148 0800 	adc.w	r8, r8, #0
 800276e:	1a3e      	subs	r6, r7, r0
 8002770:	4445      	add	r5, r8
 8002772:	e9cd 2514 	strd	r2, r5, [sp, #80]	; 0x50
 8002776:	4633      	mov	r3, r6
 8002778:	9d00      	ldr	r5, [sp, #0]
 800277a:	9302      	str	r3, [sp, #8]
 800277c:	1a63      	subs	r3, r4, r1
 800277e:	46d3      	mov	fp, sl
 8002780:	eba4 0a01 	sub.w	sl, r4, r1
 8002784:	eb64 0404 	sbc.w	r4, r4, r4
 8002788:	1a28      	subs	r0, r5, r0
 800278a:	eb65 0105 	sbc.w	r1, r5, r5
 800278e:	e9cd 0104 	strd	r0, r1, [sp, #16]
 8002792:	e9cd 3408 	strd	r3, r4, [sp, #32]
 8002796:	e9dd 0114 	ldrd	r0, r1, [sp, #80]	; 0x50
 800279a:	9b02      	ldr	r3, [sp, #8]
 800279c:	f8bd 8008 	ldrh.w	r8, [sp, #8]
 80027a0:	4023      	ands	r3, r4
 80027a2:	1ac0      	subs	r0, r0, r3
 80027a4:	ea4f 4c16 	mov.w	ip, r6, lsr #16
 80027a8:	fa1f f78a 	uxth.w	r7, sl
 80027ac:	ea4f 461a 	mov.w	r6, sl, lsr #16
 80027b0:	f161 0100 	sbc.w	r1, r1, #0
 80027b4:	e9cd 0100 	strd	r0, r1, [sp]
 80027b8:	fb0c f207 	mul.w	r2, ip, r7
 80027bc:	fb06 f008 	mul.w	r0, r6, r8
 80027c0:	1814      	adds	r4, r2, r0
 80027c2:	f04f 0300 	mov.w	r3, #0
 80027c6:	e9dd 1200 	ldrd	r1, r2, [sp]
 80027ca:	f143 0500 	adc.w	r5, r3, #0
 80027ce:	9b05      	ldr	r3, [sp, #20]
 80027d0:	ea0a 0a03 	and.w	sl, sl, r3
 80027d4:	ebb1 010a 	subs.w	r1, r1, sl
 80027d8:	f162 0200 	sbc.w	r2, r2, #0
 80027dc:	e9cd 1200 	strd	r1, r2, [sp]
 80027e0:	9909      	ldr	r1, [sp, #36]	; 0x24
 80027e2:	9801      	ldr	r0, [sp, #4]
 80027e4:	468a      	mov	sl, r1
 80027e6:	9905      	ldr	r1, [sp, #20]
 80027e8:	042b      	lsls	r3, r5, #16
 80027ea:	fb0a 0101 	mla	r1, sl, r1, r0
 80027ee:	9d00      	ldr	r5, [sp, #0]
 80027f0:	9115      	str	r1, [sp, #84]	; 0x54
 80027f2:	9514      	str	r5, [sp, #80]	; 0x50
 80027f4:	fb07 f708 	mul.w	r7, r7, r8
 80027f8:	0422      	lsls	r2, r4, #16
 80027fa:	19d2      	adds	r2, r2, r7
 80027fc:	990e      	ldr	r1, [sp, #56]	; 0x38
 80027fe:	e9dd 7814 	ldrd	r7, r8, [sp, #80]	; 0x50
 8002802:	ea43 4314 	orr.w	r3, r3, r4, lsr #16
 8002806:	f143 0300 	adc.w	r3, r3, #0
 800280a:	fb0c 3606 	mla	r6, ip, r6, r3
 800280e:	1889      	adds	r1, r1, r2
 8002810:	eb4b 040b 	adc.w	r4, fp, fp
 8002814:	19bf      	adds	r7, r7, r6
 8002816:	f148 0800 	adc.w	r8, r8, #0
 800281a:	9e11      	ldr	r6, [sp, #68]	; 0x44
 800281c:	9a0d      	ldr	r2, [sp, #52]	; 0x34
 800281e:	193c      	adds	r4, r7, r4
 8002820:	eb48 030b 	adc.w	r3, r8, fp
 8002824:	eb19 0509 	adds.w	r5, r9, r9
 8002828:	eb4b 000b 	adc.w	r0, fp, fp
 800282c:	1975      	adds	r5, r6, r5
 800282e:	eb4b 0600 	adc.w	r6, fp, r0
 8002832:	eb11 0c01 	adds.w	ip, r1, r1
 8002836:	f8cd c018 	str.w	ip, [sp, #24]
 800283a:	eb4b 0c0b 	adc.w	ip, fp, fp
 800283e:	f8cd c01c 	str.w	ip, [sp, #28]
 8002842:	e9dd 7806 	ldrd	r7, r8, [sp, #24]
 8002846:	18bf      	adds	r7, r7, r2
 8002848:	980a      	ldr	r0, [sp, #40]	; 0x28
 800284a:	f148 0800 	adc.w	r8, r8, #0
 800284e:	19be      	adds	r6, r7, r6
 8002850:	eb48 020b 	adc.w	r2, r8, fp
 8002854:	1924      	adds	r4, r4, r4
 8002856:	4617      	mov	r7, r2
 8002858:	eb4b 0c0b 	adc.w	ip, fp, fp
 800285c:	1822      	adds	r2, r4, r0
 800285e:	980f      	ldr	r0, [sp, #60]	; 0x3c
 8002860:	eb4c 040b 	adc.w	r4, ip, fp
 8002864:	4659      	mov	r1, fp
 8002866:	19d2      	adds	r2, r2, r7
 8002868:	f04f 0702 	mov.w	r7, #2
 800286c:	fbe7 0103 	umlal	r0, r1, r7, r3
 8002870:	eb44 040b 	adc.w	r4, r4, fp
 8002874:	1904      	adds	r4, r0, r4
 8002876:	465b      	mov	r3, fp
 8002878:	eb41 0303 	adc.w	r3, r1, r3
 800287c:	9910      	ldr	r1, [sp, #64]	; 0x40
 800287e:	f8ce 2010 	str.w	r2, [lr, #16]
 8002882:	18cb      	adds	r3, r1, r3
 8002884:	e9ce 5602 	strd	r5, r6, [lr, #8]
 8002888:	e9ce 4305 	strd	r4, r3, [lr, #20]
 800288c:	b017      	add	sp, #92	; 0x5c
 800288e:	e8bd 8ff0 	ldmia.w	sp!, {r4, r5, r6, r7, r8, r9, sl, fp, pc}
 8002892:	bf00      	nop

08002894 <multiply128x128_c>:
 8002894:	e92d 4ff0 	stmdb	sp!, {r4, r5, r6, r7, r8, r9, sl, fp, lr}
 8002898:	688c      	ldr	r4, [r1, #8]
 800289a:	680b      	ldr	r3, [r1, #0]
 800289c:	68cd      	ldr	r5, [r1, #12]
 800289e:	f8d2 b004 	ldr.w	fp, [r2, #4]
 80028a2:	6816      	ldr	r6, [r2, #0]
 80028a4:	6897      	ldr	r7, [r2, #8]
 80028a6:	6849      	ldr	r1, [r1, #4]
 80028a8:	b0b9      	sub	sp, #228	; 0xe4
 80028aa:	9506      	str	r5, [sp, #24]
 80028ac:	68d5      	ldr	r5, [r2, #12]
 80028ae:	950c      	str	r5, [sp, #48]	; 0x30
 80028b0:	4622      	mov	r2, r4
 80028b2:	1ad2      	subs	r2, r2, r3
 80028b4:	940a      	str	r4, [sp, #40]	; 0x28
 80028b6:	461c      	mov	r4, r3
 80028b8:	eb62 0302 	sbc.w	r3, r2, r2
 80028bc:	1bf5      	subs	r5, r6, r7
 80028be:	9108      	str	r1, [sp, #32]
 80028c0:	4631      	mov	r1, r6
 80028c2:	eb66 0606 	sbc.w	r6, r6, r6
 80028c6:	e9cd 5600 	strd	r5, r6, [sp]
 80028ca:	fa1f fc84 	uxth.w	ip, r4
 80028ce:	0c0d      	lsrs	r5, r1, #16
 80028d0:	4698      	mov	r8, r3
 80028d2:	ea4f 79e3 	mov.w	r9, r3, asr #31
 80028d6:	fb0c f305 	mul.w	r3, ip, r5
 80028da:	931a      	str	r3, [sp, #104]	; 0x68
 80028dc:	910b      	str	r1, [sp, #44]	; 0x2c
 80028de:	9b06      	ldr	r3, [sp, #24]
 80028e0:	f8bd 102c 	ldrh.w	r1, [sp, #44]	; 0x2c
 80028e4:	9e01      	ldr	r6, [sp, #4]
 80028e6:	940d      	str	r4, [sp, #52]	; 0x34
 80028e8:	eb18 0203 	adds.w	r2, r8, r3
 80028ec:	ea4f 4414 	mov.w	r4, r4, lsr #16
 80028f0:	fb01 fa04 	mul.w	sl, r1, r4
 80028f4:	f149 0300 	adc.w	r3, r9, #0
 80028f8:	e9cd 2300 	strd	r2, r3, [sp]
 80028fc:	9702      	str	r7, [sp, #8]
 80028fe:	ea4f 490a 	mov.w	r9, sl, lsl #16
 8002902:	17f7      	asrs	r7, r6, #31
 8002904:	eb16 060b 	adds.w	r6, r6, fp
 8002908:	f147 0700 	adc.w	r7, r7, #0
 800290c:	f8cd 906c 	str.w	r9, [sp, #108]	; 0x6c
 8002910:	e9dd 8900 	ldrd	r8, r9, [sp]
 8002914:	e9cd 6704 	strd	r6, r7, [sp, #16]
 8002918:	9e08      	ldr	r6, [sp, #32]
 800291a:	9f1a      	ldr	r7, [sp, #104]	; 0x68
 800291c:	ebb8 0806 	subs.w	r8, r8, r6
 8002920:	f169 0900 	sbc.w	r9, r9, #0
 8002924:	e9cd 8900 	strd	r8, r9, [sp]
 8002928:	ea4f 431b 	mov.w	r3, fp, lsr #16
 800292c:	e9dd 8904 	ldrd	r8, r9, [sp, #16]
 8002930:	931a      	str	r3, [sp, #104]	; 0x68
 8002932:	9b0c      	ldr	r3, [sp, #48]	; 0x30
 8002934:	ebb8 0803 	subs.w	r8, r8, r3
 8002938:	f169 0900 	sbc.w	r9, r9, #0
 800293c:	e9cd 8904 	strd	r8, r9, [sp, #16]
 8002940:	fa1f fe86 	uxth.w	lr, r6
 8002944:	fb0c f901 	mul.w	r9, ip, r1
 8002948:	9e1b      	ldr	r6, [sp, #108]	; 0x6c
 800294a:	991a      	ldr	r1, [sp, #104]	; 0x68
 800294c:	043a      	lsls	r2, r7, #16
 800294e:	1992      	adds	r2, r2, r6
 8002950:	fb0e f601 	mul.w	r6, lr, r1
 8002954:	9908      	ldr	r1, [sp, #32]
 8002956:	fa1f fc8b 	uxth.w	ip, fp
 800295a:	ea4f 4717 	mov.w	r7, r7, lsr #16
 800295e:	ea4f 431a 	mov.w	r3, sl, lsr #16
 8002962:	ea4f 4111 	mov.w	r1, r1, lsr #16
 8002966:	fb05 f404 	mul.w	r4, r5, r4
 800296a:	eb47 0303 	adc.w	r3, r7, r3
 800296e:	eb12 0209 	adds.w	r2, r2, r9
 8002972:	fb0c f901 	mul.w	r9, ip, r1
 8002976:	eb44 0303 	adc.w	r3, r4, r3
 800297a:	2700      	movs	r7, #0
 800297c:	eb16 0609 	adds.w	r6, r6, r9
 8002980:	f147 0700 	adc.w	r7, r7, #0
 8002984:	fb0c fc0e 	mul.w	ip, ip, lr
 8002988:	0434      	lsls	r4, r6, #16
 800298a:	043d      	lsls	r5, r7, #16
 800298c:	eb14 090c 	adds.w	r9, r4, ip
 8002990:	ea45 4516 	orr.w	r5, r5, r6, lsr #16
 8002994:	f04f 0e00 	mov.w	lr, #0
 8002998:	f145 0a00 	adc.w	sl, r5, #0
 800299c:	189e      	adds	r6, r3, r2
 800299e:	921b      	str	r2, [sp, #108]	; 0x6c
 80029a0:	eb4e 020e 	adc.w	r2, lr, lr
 80029a4:	eb16 0c09 	adds.w	ip, r6, r9
 80029a8:	eb42 020e 	adc.w	r2, r2, lr
 80029ac:	eb13 0309 	adds.w	r3, r3, r9
 80029b0:	f8cd c078 	str.w	ip, [sp, #120]	; 0x78
 80029b4:	eb4e 040e 	adc.w	r4, lr, lr
 80029b8:	eb12 0c03 	adds.w	ip, r2, r3
 80029bc:	9e08      	ldr	r6, [sp, #32]
 80029be:	9b1a      	ldr	r3, [sp, #104]	; 0x68
 80029c0:	f8cd c058 	str.w	ip, [sp, #88]	; 0x58
 80029c4:	9d0d      	ldr	r5, [sp, #52]	; 0x34
 80029c6:	eb4e 0c04 	adc.w	ip, lr, r4
 80029ca:	f8cd c05c 	str.w	ip, [sp, #92]	; 0x5c
 80029ce:	fb03 a101 	mla	r1, r3, r1, sl
 80029d2:	1baf      	subs	r7, r5, r6
 80029d4:	e9dd 9a16 	ldrd	r9, sl, [sp, #88]	; 0x58
 80029d8:	9e0b      	ldr	r6, [sp, #44]	; 0x2c
 80029da:	ebab 0606 	sub.w	r6, fp, r6
 80029de:	eb19 0901 	adds.w	r9, r9, r1
 80029e2:	ea4f 4316 	mov.w	r3, r6, lsr #16
 80029e6:	931a      	str	r3, [sp, #104]	; 0x68
 80029e8:	f14a 0a00 	adc.w	sl, sl, #0
 80029ec:	9b0b      	ldr	r3, [sp, #44]	; 0x2c
 80029ee:	4451      	add	r1, sl
 80029f0:	e9cd 9126 	strd	r9, r1, [sp, #152]	; 0x98
 80029f4:	0c3d      	lsrs	r5, r7, #16
 80029f6:	ebbb 0903 	subs.w	r9, fp, r3
 80029fa:	fa1f fc87 	uxth.w	ip, r7
 80029fe:	b2b4      	uxth	r4, r6
 8002a00:	ea4f 4116 	mov.w	r1, r6, lsr #16
 8002a04:	fb05 f204 	mul.w	r2, r5, r4
 8002a08:	eb6b 0a0b 	sbc.w	sl, fp, fp
 8002a0c:	fb01 f80c 	mul.w	r8, r1, ip
 8002a10:	e9cd 9a1c 	strd	r9, sl, [sp, #112]	; 0x70
 8002a14:	4651      	mov	r1, sl
 8002a16:	2300      	movs	r3, #0
 8002a18:	eb12 0a08 	adds.w	sl, r2, r8
 8002a1c:	f143 0b00 	adc.w	fp, r3, #0
 8002a20:	9a08      	ldr	r2, [sp, #32]
 8002a22:	9b0d      	ldr	r3, [sp, #52]	; 0x34
 8002a24:	400f      	ands	r7, r1
 8002a26:	ebb3 0802 	subs.w	r8, r3, r2
 8002a2a:	e9dd 1226 	ldrd	r1, r2, [sp, #152]	; 0x98
 8002a2e:	eb63 0903 	sbc.w	r9, r3, r3
 8002a32:	1bc9      	subs	r1, r1, r7
 8002a34:	f162 0200 	sbc.w	r2, r2, #0
 8002a38:	e9cd 1208 	strd	r1, r2, [sp, #32]
 8002a3c:	e9cd 8916 	strd	r8, r9, [sp, #88]	; 0x58
 8002a40:	ea06 0809 	and.w	r8, r6, r9
 8002a44:	e9dd 6708 	ldrd	r6, r7, [sp, #32]
 8002a48:	ebb6 0608 	subs.w	r6, r6, r8
 8002a4c:	991d      	ldr	r1, [sp, #116]	; 0x74
 8002a4e:	46b0      	mov	r8, r6
 8002a50:	9e17      	ldr	r6, [sp, #92]	; 0x5c
 8002a52:	f167 0700 	sbc.w	r7, r7, #0
 8002a56:	fb01 7706 	mla	r7, r1, r6, r7
 8002a5a:	e9cd 8726 	strd	r8, r7, [sp, #152]	; 0x98
 8002a5e:	fb04 f40c 	mul.w	r4, r4, ip
 8002a62:	ea4f 420a 	mov.w	r2, sl, lsl #16
 8002a66:	ea4f 430b 	mov.w	r3, fp, lsl #16
 8002a6a:	ea43 431a 	orr.w	r3, r3, sl, lsr #16
 8002a6e:	1911      	adds	r1, r2, r4
 8002a70:	9c1e      	ldr	r4, [sp, #120]	; 0x78
 8002a72:	e9dd ab26 	ldrd	sl, fp, [sp, #152]	; 0x98
 8002a76:	f143 0200 	adc.w	r2, r3, #0
 8002a7a:	9b1a      	ldr	r3, [sp, #104]	; 0x68
 8002a7c:	1861      	adds	r1, r4, r1
 8002a7e:	911e      	str	r1, [sp, #120]	; 0x78
 8002a80:	fb05 2103 	mla	r1, r5, r3, r2
 8002a84:	9a0a      	ldr	r2, [sp, #40]	; 0x28
 8002a86:	9f02      	ldr	r7, [sp, #8]
 8002a88:	f8bd 4008 	ldrh.w	r4, [sp, #8]
 8002a8c:	eb4e 030e 	adc.w	r3, lr, lr
 8002a90:	eb1a 0a01 	adds.w	sl, sl, r1
 8002a94:	f14b 0b00 	adc.w	fp, fp, #0
 8002a98:	eb1a 0603 	adds.w	r6, sl, r3
 8002a9c:	ea4f 4912 	mov.w	r9, r2, lsr #16
 8002aa0:	fa1f fc82 	uxth.w	ip, r2
 8002aa4:	ea4f 4517 	mov.w	r5, r7, lsr #16
 8002aa8:	961f      	str	r6, [sp, #124]	; 0x7c
 8002aaa:	9e0c      	ldr	r6, [sp, #48]	; 0x30
 8002aac:	4673      	mov	r3, lr
 8002aae:	fb0c f205 	mul.w	r2, ip, r5
 8002ab2:	fb04 f709 	mul.w	r7, r4, r9
 8002ab6:	f8dd e018 	ldr.w	lr, [sp, #24]
 8002aba:	971a      	str	r7, [sp, #104]	; 0x68
 8002abc:	eb4b 0a03 	adc.w	sl, fp, r3
 8002ac0:	0411      	lsls	r1, r2, #16
 8002ac2:	043f      	lsls	r7, r7, #16
 8002ac4:	0c36      	lsrs	r6, r6, #16
 8002ac6:	9608      	str	r6, [sp, #32]
 8002ac8:	f8cd a058 	str.w	sl, [sp, #88]	; 0x58
 8002acc:	eb11 0a07 	adds.w	sl, r1, r7
 8002ad0:	9f1a      	ldr	r7, [sp, #104]	; 0x68
 8002ad2:	9908      	ldr	r1, [sp, #32]
 8002ad4:	931c      	str	r3, [sp, #112]	; 0x70
 8002ad6:	fa1f f88e 	uxth.w	r8, lr
 8002ada:	fb0c f404 	mul.w	r4, ip, r4
 8002ade:	ea4f 4c1e 	mov.w	ip, lr, lsr #16
 8002ae2:	f8bd e030 	ldrh.w	lr, [sp, #48]	; 0x30
 8002ae6:	ea4f 4717 	mov.w	r7, r7, lsr #16
 8002aea:	ea4f 4212 	mov.w	r2, r2, lsr #16
 8002aee:	fb08 f601 	mul.w	r6, r8, r1
 8002af2:	fb05 f509 	mul.w	r5, r5, r9
 8002af6:	eb47 0202 	adc.w	r2, r7, r2
 8002afa:	fb0e f90c 	mul.w	r9, lr, ip
 8002afe:	eb1a 0104 	adds.w	r1, sl, r4
 8002b02:	eb45 0202 	adc.w	r2, r5, r2
 8002b06:	2700      	movs	r7, #0
 8002b08:	eb16 0a09 	adds.w	sl, r6, r9
 8002b0c:	f147 0b00 	adc.w	fp, r7, #0
 8002b10:	4656      	mov	r6, sl
 8002b12:	465f      	mov	r7, fp
 8002b14:	fb0e fe08 	mul.w	lr, lr, r8
 8002b18:	043d      	lsls	r5, r7, #16
 8002b1a:	0434      	lsls	r4, r6, #16
 8002b1c:	eb14 040e 	adds.w	r4, r4, lr
 8002b20:	ea45 451a 	orr.w	r5, r5, sl, lsr #16
 8002b24:	f145 0500 	adc.w	r5, r5, #0
 8002b28:	eb12 0e01 	adds.w	lr, r2, r1
 8002b2c:	911a      	str	r1, [sp, #104]	; 0x68
 8002b2e:	eb43 0103 	adc.w	r1, r3, r3
 8002b32:	eb1e 0e04 	adds.w	lr, lr, r4
 8002b36:	eb43 0101 	adc.w	r1, r3, r1
 8002b3a:	1912      	adds	r2, r2, r4
 8002b3c:	eb43 0403 	adc.w	r4, r3, r3
 8002b40:	eb11 0902 	adds.w	r9, r1, r2
 8002b44:	f8cd 9060 	str.w	r9, [sp, #96]	; 0x60
 8002b48:	eb43 0904 	adc.w	r9, r3, r4
 8002b4c:	f8cd 9064 	str.w	r9, [sp, #100]	; 0x64
 8002b50:	e9dd 9a18 	ldrd	r9, sl, [sp, #96]	; 0x60
 8002b54:	9a08      	ldr	r2, [sp, #32]
 8002b56:	990a      	ldr	r1, [sp, #40]	; 0x28
 8002b58:	9c06      	ldr	r4, [sp, #24]
 8002b5a:	9b0c      	ldr	r3, [sp, #48]	; 0x30
 8002b5c:	fb02 5c0c 	mla	ip, r2, ip, r5
 8002b60:	eb19 090c 	adds.w	r9, r9, ip
 8002b64:	f14a 0a00 	adc.w	sl, sl, #0
 8002b68:	eba1 0804 	sub.w	r8, r1, r4
 8002b6c:	eb0c 020a 	add.w	r2, ip, sl
 8002b70:	9902      	ldr	r1, [sp, #8]
 8002b72:	e9cd 922e 	strd	r9, r2, [sp, #184]	; 0xb8
 8002b76:	1a5c      	subs	r4, r3, r1
 8002b78:	0c22      	lsrs	r2, r4, #16
 8002b7a:	e9dd ab2e 	ldrd	sl, fp, [sp, #184]	; 0xb8
 8002b7e:	9208      	str	r2, [sp, #32]
 8002b80:	1a5a      	subs	r2, r3, r1
 8002b82:	eb63 0303 	sbc.w	r3, r3, r3
 8002b86:	e9cd 2318 	strd	r2, r3, [sp, #96]	; 0x60
 8002b8a:	ea08 0703 	and.w	r7, r8, r3
 8002b8e:	fa1f fc84 	uxth.w	ip, r4
 8002b92:	ea4f 4618 	mov.w	r6, r8, lsr #16
 8002b96:	fa1f f588 	uxth.w	r5, r8
 8002b9a:	0c23      	lsrs	r3, r4, #16
 8002b9c:	ebba 0a07 	subs.w	sl, sl, r7
 8002ba0:	fb03 f805 	mul.w	r8, r3, r5
 8002ba4:	960c      	str	r6, [sp, #48]	; 0x30
 8002ba6:	fb06 f60c 	mul.w	r6, r6, ip
 8002baa:	f16b 0b00 	sbc.w	fp, fp, #0
 8002bae:	2700      	movs	r7, #0
 8002bb0:	eb16 0908 	adds.w	r9, r6, r8
 8002bb4:	9e0a      	ldr	r6, [sp, #40]	; 0x28
 8002bb6:	4651      	mov	r1, sl
 8002bb8:	f147 0a00 	adc.w	sl, r7, #0
 8002bbc:	9f06      	ldr	r7, [sp, #24]
 8002bbe:	46c8      	mov	r8, r9
 8002bc0:	46d1      	mov	r9, sl
 8002bc2:	46b2      	mov	sl, r6
 8002bc4:	ebba 0607 	subs.w	r6, sl, r7
 8002bc8:	eb6a 070a 	sbc.w	r7, sl, sl
 8002bcc:	403c      	ands	r4, r7
 8002bce:	ebb1 0a04 	subs.w	sl, r1, r4
 8002bd2:	4649      	mov	r1, r9
 8002bd4:	fb0c fc05 	mul.w	ip, ip, r5
 8002bd8:	ea4f 4501 	mov.w	r5, r1, lsl #16
 8002bdc:	9919      	ldr	r1, [sp, #100]	; 0x64
 8002bde:	f16b 0b00 	sbc.w	fp, fp, #0
 8002be2:	fb01 b607 	mla	r6, r1, r7, fp
 8002be6:	4641      	mov	r1, r8
 8002be8:	040c      	lsls	r4, r1, #16
 8002bea:	eb14 040c 	adds.w	r4, r4, ip
 8002bee:	ea45 4518 	orr.w	r5, r5, r8, lsr #16
 8002bf2:	f145 0500 	adc.w	r5, r5, #0
 8002bf6:	e9cd a62e 	strd	sl, r6, [sp, #184]	; 0xb8
 8002bfa:	46ac      	mov	ip, r5
 8002bfc:	9e0a      	ldr	r6, [sp, #40]	; 0x28
 8002bfe:	9d0d      	ldr	r5, [sp, #52]	; 0x34
 8002c00:	f8bd 2000 	ldrh.w	r2, [sp]
 8002c04:	990c      	ldr	r1, [sp, #48]	; 0x30
 8002c06:	9f02      	ldr	r7, [sp, #8]
 8002c08:	eba6 0a05 	sub.w	sl, r6, r5
 8002c0c:	9d04      	ldr	r5, [sp, #16]
 8002c0e:	4616      	mov	r6, r2
 8002c10:	9a08      	ldr	r2, [sp, #32]
 8002c12:	960c      	str	r6, [sp, #48]	; 0x30
 8002c14:	eb1e 0404 	adds.w	r4, lr, r4
 8002c18:	fb01 c202 	mla	r2, r1, r2, ip
 8002c1c:	940d      	str	r4, [sp, #52]	; 0x34
 8002c1e:	e9dd bc2e 	ldrd	fp, ip, [sp, #184]	; 0xb8
 8002c22:	ea4f 4415 	mov.w	r4, r5, lsr #16
 8002c26:	9d0b      	ldr	r5, [sp, #44]	; 0x2c
 8002c28:	f8bd e010 	ldrh.w	lr, [sp, #16]
 8002c2c:	9408      	str	r4, [sp, #32]
 8002c2e:	eba5 0507 	sub.w	r5, r5, r7
 8002c32:	f04f 0300 	mov.w	r3, #0
 8002c36:	eb43 0703 	adc.w	r7, r3, r3
 8002c3a:	eb1b 0b02 	adds.w	fp, fp, r2
 8002c3e:	462b      	mov	r3, r5
 8002c40:	9a00      	ldr	r2, [sp, #0]
 8002c42:	930a      	str	r3, [sp, #40]	; 0x28
 8002c44:	ea4f 4815 	mov.w	r8, r5, lsr #16
 8002c48:	f14c 0c00 	adc.w	ip, ip, #0
 8002c4c:	0c11      	lsrs	r1, r2, #16
 8002c4e:	eb1b 0907 	adds.w	r9, fp, r7
 8002c52:	f8bd 2028 	ldrh.w	r2, [sp, #40]	; 0x28
 8002c56:	f8cd 9060 	str.w	r9, [sp, #96]	; 0x60
 8002c5a:	fb04 f406 	mul.w	r4, r4, r6
 8002c5e:	f04f 0500 	mov.w	r5, #0
 8002c62:	fbee 4501 	umlal	r4, r5, lr, r1
 8002c66:	e9cd bc06 	strd	fp, ip, [sp, #24]
 8002c6a:	ea4f 491a 	mov.w	r9, sl, lsr #16
 8002c6e:	fa1f f68a 	uxth.w	r6, sl
 8002c72:	fb06 f708 	mul.w	r7, r6, r8
 8002c76:	fb08 fb09 	mul.w	fp, r8, r9
 8002c7a:	9b07      	ldr	r3, [sp, #28]
 8002c7c:	fb06 f602 	mul.w	r6, r6, r2
 8002c80:	fb02 f209 	mul.w	r2, r2, r9
 8002c84:	ea4f 4905 	mov.w	r9, r5, lsl #16
 8002c88:	f04f 0c00 	mov.w	ip, #0
 8002c8c:	ea4f 4502 	mov.w	r5, r2, lsl #16
 8002c90:	ea49 4914 	orr.w	r9, r9, r4, lsr #16
 8002c94:	ea4f 4804 	mov.w	r8, r4, lsl #16
 8002c98:	ea4f 4407 	mov.w	r4, r7, lsl #16
 8002c9c:	eb43 030c 	adc.w	r3, r3, ip
 8002ca0:	0c12      	lsrs	r2, r2, #16
 8002ca2:	1964      	adds	r4, r4, r5
 8002ca4:	ea4f 4717 	mov.w	r7, r7, lsr #16
 8002ca8:	9306      	str	r3, [sp, #24]
 8002caa:	eb42 0707 	adc.w	r7, r2, r7
 8002cae:	9b0c      	ldr	r3, [sp, #48]	; 0x30
 8002cb0:	19a6      	adds	r6, r4, r6
 8002cb2:	eb47 070b 	adc.w	r7, r7, fp
 8002cb6:	fbe3 890e 	umlal	r8, r9, r3, lr
 8002cba:	19bd      	adds	r5, r7, r6
 8002cbc:	4663      	mov	r3, ip
 8002cbe:	eb4c 040c 	adc.w	r4, ip, ip
 8002cc2:	eb15 0c08 	adds.w	ip, r5, r8
 8002cc6:	9d08      	ldr	r5, [sp, #32]
 8002cc8:	f8cd c030 	str.w	ip, [sp, #48]	; 0x30
 8002ccc:	eb43 0404 	adc.w	r4, r3, r4
 8002cd0:	eb17 0708 	adds.w	r7, r7, r8
 8002cd4:	fb05 9101 	mla	r1, r5, r1, r9
 8002cd8:	eb43 0203 	adc.w	r2, r3, r3
 8002cdc:	eb17 0904 	adds.w	r9, r7, r4
 8002ce0:	9d0b      	ldr	r5, [sp, #44]	; 0x2c
 8002ce2:	f8cd 9050 	str.w	r9, [sp, #80]	; 0x50
 8002ce6:	eb42 0903 	adc.w	r9, r2, r3
 8002cea:	9a02      	ldr	r2, [sp, #8]
 8002cec:	f8cd 9054 	str.w	r9, [sp, #84]	; 0x54
 8002cf0:	469c      	mov	ip, r3
 8002cf2:	eba2 0e05 	sub.w	lr, r2, r5
 8002cf6:	e9dd 2314 	ldrd	r2, r3, [sp, #80]	; 0x50
 8002cfa:	1852      	adds	r2, r2, r1
 8002cfc:	e9dd 8900 	ldrd	r8, r9, [sp]
 8002d00:	9c04      	ldr	r4, [sp, #16]
 8002d02:	f143 0300 	adc.w	r3, r3, #0
 8002d06:	4419      	add	r1, r3
 8002d08:	e9cd 2136 	strd	r2, r1, [sp, #216]	; 0xd8
 8002d0c:	44a6      	add	lr, r4
 8002d0e:	9c04      	ldr	r4, [sp, #16]
 8002d10:	9d0a      	ldr	r5, [sp, #40]	; 0x28
 8002d12:	4643      	mov	r3, r8
 8002d14:	ebba 0303 	subs.w	r3, sl, r3
 8002d18:	46b3      	mov	fp, r6
 8002d1a:	4663      	mov	r3, ip
 8002d1c:	ebaa 0608 	sub.w	r6, sl, r8
 8002d20:	46a0      	mov	r8, r4
 8002d22:	eb63 0703 	sbc.w	r7, r3, r3
 8002d26:	ebb8 0805 	subs.w	r8, r8, r5
 8002d2a:	f163 0900 	sbc.w	r9, r3, #0
 8002d2e:	464d      	mov	r5, r9
 8002d30:	e9dd 8936 	ldrd	r8, r9, [sp, #216]	; 0xd8
 8002d34:	ea4f 421e 	mov.w	r2, lr, lsr #16
 8002d38:	9202      	str	r2, [sp, #8]
 8002d3a:	ea4f 4c16 	mov.w	ip, r6, lsr #16
 8002d3e:	b2b2      	uxth	r2, r6
 8002d40:	402e      	ands	r6, r5
 8002d42:	fa1f f18e 	uxth.w	r1, lr
 8002d46:	ebb8 0806 	subs.w	r8, r8, r6
 8002d4a:	ea0e 0e07 	and.w	lr, lr, r7
 8002d4e:	f169 0900 	sbc.w	r9, r9, #0
 8002d52:	ebb8 080e 	subs.w	r8, r8, lr
 8002d56:	f169 0900 	sbc.w	r9, r9, #0
 8002d5a:	fb05 9e07 	mla	lr, r5, r7, r9
 8002d5e:	9d02      	ldr	r5, [sp, #8]
 8002d60:	fb0c f601 	mul.w	r6, ip, r1
 8002d64:	fb05 f502 	mul.w	r5, r5, r2
 8002d68:	1976      	adds	r6, r6, r5
 8002d6a:	e9cd 8e36 	strd	r8, lr, [sp, #216]	; 0xd8
 8002d6e:	f04f 0700 	mov.w	r7, #0
 8002d72:	f147 0700 	adc.w	r7, r7, #0
 8002d76:	fb01 f102 	mul.w	r1, r1, r2
 8002d7a:	043d      	lsls	r5, r7, #16
 8002d7c:	0434      	lsls	r4, r6, #16
 8002d7e:	9a02      	ldr	r2, [sp, #8]
 8002d80:	f8dd e034 	ldr.w	lr, [sp, #52]	; 0x34
 8002d84:	1864      	adds	r4, r4, r1
 8002d86:	ea45 4516 	orr.w	r5, r5, r6, lsr #16
 8002d8a:	990c      	ldr	r1, [sp, #48]	; 0x30
 8002d8c:	e9dd 6736 	ldrd	r6, r7, [sp, #216]	; 0xd8
 8002d90:	f145 0500 	adc.w	r5, r5, #0
 8002d94:	fb0c 5202 	mla	r2, ip, r2, r5
 8002d98:	1909      	adds	r1, r1, r4
 8002d9a:	eb43 0503 	adc.w	r5, r3, r3
 8002d9e:	18b6      	adds	r6, r6, r2
 8002da0:	9c1f      	ldr	r4, [sp, #124]	; 0x7c
 8002da2:	f8dd c078 	ldr.w	ip, [sp, #120]	; 0x78
 8002da6:	f147 0700 	adc.w	r7, r7, #0
 8002daa:	1975      	adds	r5, r6, r5
 8002dac:	9e1b      	ldr	r6, [sp, #108]	; 0x6c
 8002dae:	eb47 0203 	adc.w	r2, r7, r3
 8002db2:	9f1a      	ldr	r7, [sp, #104]	; 0x68
 8002db4:	9208      	str	r2, [sp, #32]
 8002db6:	19a6      	adds	r6, r4, r6
 8002db8:	eb43 0203 	adc.w	r2, r3, r3
 8002dbc:	19be      	adds	r6, r7, r6
 8002dbe:	eb43 0202 	adc.w	r2, r3, r2
 8002dc2:	eb1b 0606 	adds.w	r6, fp, r6
 8002dc6:	eb43 0202 	adc.w	r2, r3, r2
 8002dca:	eb1c 0902 	adds.w	r9, ip, r2
 8002dce:	ea4f 72e2 	mov.w	r2, r2, asr #31
 8002dd2:	eb43 0202 	adc.w	r2, r3, r2
 8002dd6:	920f      	str	r2, [sp, #60]	; 0x3c
 8002dd8:	f8cd 9038 	str.w	r9, [sp, #56]	; 0x38
 8002ddc:	e9dd 890e 	ldrd	r8, r9, [sp, #56]	; 0x38
 8002de0:	9a16      	ldr	r2, [sp, #88]	; 0x58
 8002de2:	eb18 0802 	adds.w	r8, r8, r2
 8002de6:	f149 0900 	adc.w	r9, r9, #0
 8002dea:	eb1e 0208 	adds.w	r2, lr, r8
 8002dee:	eb43 0709 	adc.w	r7, r3, r9
 8002df2:	188a      	adds	r2, r1, r2
 8002df4:	991a      	ldr	r1, [sp, #104]	; 0x68
 8002df6:	eb43 0707 	adc.w	r7, r3, r7
 8002dfa:	19c9      	adds	r1, r1, r7
 8002dfc:	ea4f 78e7 	mov.w	r8, r7, asr #31
 8002e00:	9f18      	ldr	r7, [sp, #96]	; 0x60
 8002e02:	eb43 0808 	adc.w	r8, r3, r8
 8002e06:	1861      	adds	r1, r4, r1
 8002e08:	eb43 0808 	adc.w	r8, r3, r8
 8002e0c:	1879      	adds	r1, r7, r1
 8002e0e:	eb43 0808 	adc.w	r8, r3, r8
 8002e12:	186c      	adds	r4, r5, r1
 8002e14:	9410      	str	r4, [sp, #64]	; 0x40
 8002e16:	9c05      	ldr	r4, [sp, #20]
 8002e18:	ea0a 0a04 	and.w	sl, sl, r4
 8002e1c:	eb43 0408 	adc.w	r4, r3, r8
 8002e20:	e9dd 8900 	ldrd	r8, r9, [sp]
 8002e24:	9411      	str	r4, [sp, #68]	; 0x44
 8002e26:	9c0a      	ldr	r4, [sp, #40]	; 0x28
 8002e28:	ea04 0109 	and.w	r1, r4, r9
 8002e2c:	e9dd 4510 	ldrd	r4, r5, [sp, #64]	; 0x40
 8002e30:	ebb4 040a 	subs.w	r4, r4, sl
 8002e34:	f165 0500 	sbc.w	r5, r5, #0
 8002e38:	ebb4 0a01 	subs.w	sl, r4, r1
 8002e3c:	f165 0b00 	sbc.w	fp, r5, #0
 8002e40:	4659      	mov	r1, fp
 8002e42:	eb1e 040b 	adds.w	r4, lr, fp
 8002e46:	ea4f 71e1 	mov.w	r1, r1, asr #31
 8002e4a:	9412      	str	r4, [sp, #72]	; 0x48
 8002e4c:	eb43 0401 	adc.w	r4, r3, r1
 8002e50:	9413      	str	r4, [sp, #76]	; 0x4c
 8002e52:	e9cd ab02 	strd	sl, fp, [sp, #8]
 8002e56:	e9dd ab12 	ldrd	sl, fp, [sp, #72]	; 0x48
 8002e5a:	9d16      	ldr	r5, [sp, #88]	; 0x58
 8002e5c:	9908      	ldr	r1, [sp, #32]
 8002e5e:	60c2      	str	r2, [r0, #12]
 8002e60:	eb1a 0a05 	adds.w	sl, sl, r5
 8002e64:	9d06      	ldr	r5, [sp, #24]
 8002e66:	9a02      	ldr	r2, [sp, #8]
 8002e68:	f14b 0b00 	adc.w	fp, fp, #0
 8002e6c:	eb1a 0a05 	adds.w	sl, sl, r5
 8002e70:	f14b 0b00 	adc.w	fp, fp, #0
 8002e74:	eb1a 0401 	adds.w	r4, sl, r1
 8002e78:	f14b 0500 	adc.w	r5, fp, #0
 8002e7c:	9905      	ldr	r1, [sp, #20]
 8002e7e:	e9dd ab04 	ldrd	sl, fp, [sp, #16]
 8002e82:	ea01 0108 	and.w	r1, r1, r8
 8002e86:	1a64      	subs	r4, r4, r1
 8002e88:	ea09 010a 	and.w	r1, r9, sl
 8002e8c:	f165 0500 	sbc.w	r5, r5, #0
 8002e90:	1a64      	subs	r4, r4, r1
 8002e92:	9901      	ldr	r1, [sp, #4]
 8002e94:	f165 0500 	sbc.w	r5, r5, #0
 8002e98:	fb0b f101 	mul.w	r1, fp, r1
 8002e9c:	eb15 0801 	adds.w	r8, r5, r1
 8002ea0:	ea4f 79e5 	mov.w	r9, r5, asr #31
 8002ea4:	eb49 79e1 	adc.w	r9, r9, r1, asr #31
 8002ea8:	9906      	ldr	r1, [sp, #24]
 8002eaa:	eb17 0708 	adds.w	r7, r7, r8
 8002eae:	eb43 0309 	adc.w	r3, r3, r9
 8002eb2:	440b      	add	r3, r1
 8002eb4:	991b      	ldr	r1, [sp, #108]	; 0x6c
 8002eb6:	6001      	str	r1, [r0, #0]
 8002eb8:	46de      	mov	lr, fp
 8002eba:	e9c0 c601 	strd	ip, r6, [r0, #4]
 8002ebe:	e9c0 2404 	strd	r2, r4, [r0, #16]
 8002ec2:	e9c0 7306 	strd	r7, r3, [r0, #24]
 8002ec6:	b039      	add	sp, #228	; 0xe4
 8002ec8:	e8bd 8ff0 	ldmia.w	sp!, {r4, r5, r6, r7, r8, r9, sl, fp, pc}

08002ecc <multiply288x288>:
 8002ecc:	e92d 4ff0 	stmdb	sp!, {r4, r5, r6, r7, r8, r9, sl, fp, lr}
 8002ed0:	460e      	mov	r6, r1
 8002ed2:	b08f      	sub	sp, #60	; 0x3c
 8002ed4:	4614      	mov	r4, r2
 8002ed6:	4605      	mov	r5, r0
 8002ed8:	920a      	str	r2, [sp, #40]	; 0x28
 8002eda:	9009      	str	r0, [sp, #36]	; 0x24
 8002edc:	f7fd fdc8 	bl	8000a70 <multiply256x256_asm>
 8002ee0:	6a32      	ldr	r2, [r6, #32]
 8002ee2:	6a23      	ldr	r3, [r4, #32]
 8002ee4:	b291      	uxth	r1, r2
 8002ee6:	0c14      	lsrs	r4, r2, #16
 8002ee8:	ea4f 4913 	mov.w	r9, r3, lsr #16
 8002eec:	fa1f f883 	uxth.w	r8, r3
 8002ef0:	fb09 fb01 	mul.w	fp, r9, r1
 8002ef4:	fb04 f308 	mul.w	r3, r4, r8
 8002ef8:	041a      	lsls	r2, r3, #16
 8002efa:	ea4f 4a0b 	mov.w	sl, fp, lsl #16
 8002efe:	eb1a 0a02 	adds.w	sl, sl, r2
 8002f02:	ea4f 4313 	mov.w	r3, r3, lsr #16
 8002f06:	ea4f 4b1b 	mov.w	fp, fp, lsr #16
 8002f0a:	fb08 f201 	mul.w	r2, r8, r1
 8002f0e:	eb4b 0b03 	adc.w	fp, fp, r3
 8002f12:	9106      	str	r1, [sp, #24]
 8002f14:	fb09 f304 	mul.w	r3, r9, r4
 8002f18:	eb1a 0102 	adds.w	r1, sl, r2
 8002f1c:	f105 0720 	add.w	r7, r5, #32
 8002f20:	f04f 0e00 	mov.w	lr, #0
 8002f24:	9407      	str	r4, [sp, #28]
 8002f26:	f1a6 0604 	sub.w	r6, r6, #4
 8002f2a:	f105 0440 	add.w	r4, r5, #64	; 0x40
 8002f2e:	eb4b 0303 	adc.w	r3, fp, r3
 8002f32:	910b      	str	r1, [sp, #44]	; 0x2c
 8002f34:	930c      	str	r3, [sp, #48]	; 0x30
 8002f36:	46bc      	mov	ip, r7
 8002f38:	9408      	str	r4, [sp, #32]
 8002f3a:	4675      	mov	r5, lr
 8002f3c:	4671      	mov	r1, lr
 8002f3e:	9605      	str	r6, [sp, #20]
 8002f40:	970d      	str	r7, [sp, #52]	; 0x34
 8002f42:	9a05      	ldr	r2, [sp, #20]
 8002f44:	f8cd e004 	str.w	lr, [sp, #4]
 8002f48:	f852 3f04 	ldr.w	r3, [r2, #4]!
 8002f4c:	9205      	str	r2, [sp, #20]
 8002f4e:	b29f      	uxth	r7, r3
 8002f50:	0c1b      	lsrs	r3, r3, #16
 8002f52:	fb07 f009 	mul.w	r0, r7, r9
 8002f56:	fb03 fa08 	mul.w	sl, r3, r8
 8002f5a:	0402      	lsls	r2, r0, #16
 8002f5c:	ea4f 4b0a 	mov.w	fp, sl, lsl #16
 8002f60:	fb07 f708 	mul.w	r7, r7, r8
 8002f64:	eb12 020b 	adds.w	r2, r2, fp
 8002f68:	ea4f 4010 	mov.w	r0, r0, lsr #16
 8002f6c:	ea4f 4a1a 	mov.w	sl, sl, lsr #16
 8002f70:	eb40 0a0a 	adc.w	sl, r0, sl
 8002f74:	19d2      	adds	r2, r2, r7
 8002f76:	9200      	str	r2, [sp, #0]
 8002f78:	e9dd 6700 	ldrd	r6, r7, [sp]
 8002f7c:	fb03 f309 	mul.w	r3, r3, r9
 8002f80:	eb4a 0a03 	adc.w	sl, sl, r3
 8002f84:	f8dc 3000 	ldr.w	r3, [ip]
 8002f88:	18f6      	adds	r6, r6, r3
 8002f8a:	f147 0700 	adc.w	r7, r7, #0
 8002f8e:	1975      	adds	r5, r6, r5
 8002f90:	f84c 5b04 	str.w	r5, [ip], #4
 8002f94:	eb47 0101 	adc.w	r1, r7, r1
 8002f98:	eb1a 0501 	adds.w	r5, sl, r1
 8002f9c:	4671      	mov	r1, lr
 8002f9e:	4149      	adcs	r1, r1
 8002fa0:	4564      	cmp	r4, ip
 8002fa2:	d1ce      	bne.n	8002f42 <multiply288x288+0x76>
 8002fa4:	f8dd a02c 	ldr.w	sl, [sp, #44]	; 0x2c
 8002fa8:	9b0c      	ldr	r3, [sp, #48]	; 0x30
 8002faa:	9f0d      	ldr	r7, [sp, #52]	; 0x34
 8002fac:	eb1a 0a05 	adds.w	sl, sl, r5
 8002fb0:	eb4e 0101 	adc.w	r1, lr, r1
 8002fb4:	440b      	add	r3, r1
 8002fb6:	469b      	mov	fp, r3
 8002fb8:	e9dd 8906 	ldrd	r8, r9, [sp, #24]
 8002fbc:	9b0a      	ldr	r3, [sp, #40]	; 0x28
 8002fbe:	9d08      	ldr	r5, [sp, #32]
 8002fc0:	f8cd b000 	str.w	fp, [sp]
 8002fc4:	2600      	movs	r6, #0
 8002fc6:	f1a3 0e04 	sub.w	lr, r3, #4
 8002fca:	4630      	mov	r0, r6
 8002fcc:	46b4      	mov	ip, r6
 8002fce:	f8cd a014 	str.w	sl, [sp, #20]
 8002fd2:	f85e 3f04 	ldr.w	r3, [lr, #4]!
 8002fd6:	f8cd c00c 	str.w	ip, [sp, #12]
 8002fda:	b29c      	uxth	r4, r3
 8002fdc:	0c1b      	lsrs	r3, r3, #16
 8002fde:	fb04 fa09 	mul.w	sl, r4, r9
 8002fe2:	fb03 f108 	mul.w	r1, r3, r8
 8002fe6:	ea4f 420a 	mov.w	r2, sl, lsl #16
 8002fea:	ea4f 4b01 	mov.w	fp, r1, lsl #16
 8002fee:	eb12 020b 	adds.w	r2, r2, fp
 8002ff2:	ea4f 4111 	mov.w	r1, r1, lsr #16
 8002ff6:	fb04 f408 	mul.w	r4, r4, r8
 8002ffa:	ea4f 4a1a 	mov.w	sl, sl, lsr #16
 8002ffe:	eb4a 0a01 	adc.w	sl, sl, r1
 8003002:	1912      	adds	r2, r2, r4
 8003004:	9202      	str	r2, [sp, #8]
 8003006:	e9dd 1202 	ldrd	r1, r2, [sp, #8]
 800300a:	fb03 f309 	mul.w	r3, r3, r9
 800300e:	eb4a 0a03 	adc.w	sl, sl, r3
 8003012:	683b      	ldr	r3, [r7, #0]
 8003014:	18c9      	adds	r1, r1, r3
 8003016:	f142 0200 	adc.w	r2, r2, #0
 800301a:	198e      	adds	r6, r1, r6
 800301c:	f847 6b04 	str.w	r6, [r7], #4
 8003020:	eb42 0000 	adc.w	r0, r2, r0
 8003024:	eb1a 0600 	adds.w	r6, sl, r0
 8003028:	4660      	mov	r0, ip
 800302a:	4140      	adcs	r0, r0
 800302c:	42bd      	cmp	r5, r7
 800302e:	d1d0      	bne.n	8002fd2 <multiply288x288+0x106>
 8003030:	f8dd a014 	ldr.w	sl, [sp, #20]
 8003034:	f8dd b000 	ldr.w	fp, [sp]
 8003038:	9b09      	ldr	r3, [sp, #36]	; 0x24
 800303a:	eb16 060a 	adds.w	r6, r6, sl
 800303e:	eb40 0c0c 	adc.w	ip, r0, ip
 8003042:	eb0b 000c 	add.w	r0, fp, ip
 8003046:	6458      	str	r0, [r3, #68]	; 0x44
 8003048:	641e      	str	r6, [r3, #64]	; 0x40
 800304a:	b00f      	add	sp, #60	; 0x3c
 800304c:	e8bd 8ff0 	ldmia.w	sp!, {r4, r5, r6, r7, r8, r9, sl, fp, pc}

08003050 <multiply136x136>:
 8003050:	e92d 4ff0 	stmdb	sp!, {r4, r5, r6, r7, r8, r9, sl, fp, lr}
 8003054:	460e      	mov	r6, r1
 8003056:	4617      	mov	r7, r2
 8003058:	b083      	sub	sp, #12
 800305a:	4604      	mov	r4, r0
 800305c:	9001      	str	r0, [sp, #4]
 800305e:	f7ff fc19 	bl	8002894 <multiply128x128_c>
 8003062:	1cb3      	adds	r3, r6, #2
 8003064:	f896 e010 	ldrb.w	lr, [r6, #16]
 8003068:	f897 c010 	ldrb.w	ip, [r7, #16]
 800306c:	9300      	str	r3, [sp, #0]
 800306e:	2000      	movs	r0, #0
 8003070:	f104 0210 	add.w	r2, r4, #16
 8003074:	f107 0902 	add.w	r9, r7, #2
 8003078:	f04f 0a00 	mov.w	sl, #0
 800307c:	f04f 0b00 	mov.w	fp, #0
 8003080:	46b0      	mov	r8, r6
 8003082:	f838 4020 	ldrh.w	r4, [r8, r0, lsl #2]
 8003086:	f837 6020 	ldrh.w	r6, [r7, r0, lsl #2]
 800308a:	f839 1020 	ldrh.w	r1, [r9, r0, lsl #2]
 800308e:	6813      	ldr	r3, [r2, #0]
 8003090:	fb0c f404 	mul.w	r4, ip, r4
 8003094:	2500      	movs	r5, #0
 8003096:	fbee 4506 	umlal	r4, r5, lr, r6
 800309a:	9e00      	ldr	r6, [sp, #0]
 800309c:	f836 6020 	ldrh.w	r6, [r6, r0, lsl #2]
 80030a0:	fb0e f101 	mul.w	r1, lr, r1
 80030a4:	18e4      	adds	r4, r4, r3
 80030a6:	fb0c f606 	mul.w	r6, ip, r6
 80030aa:	ea4f 4301 	mov.w	r3, r1, lsl #16
 80030ae:	f145 0500 	adc.w	r5, r5, #0
 80030b2:	0c09      	lsrs	r1, r1, #16
 80030b4:	18e3      	adds	r3, r4, r3
 80030b6:	ea4f 4406 	mov.w	r4, r6, lsl #16
 80030ba:	eb45 0101 	adc.w	r1, r5, r1
 80030be:	0c36      	lsrs	r6, r6, #16
 80030c0:	191b      	adds	r3, r3, r4
 80030c2:	eb41 0606 	adc.w	r6, r1, r6
 80030c6:	3001      	adds	r0, #1
 80030c8:	eb13 030a 	adds.w	r3, r3, sl
 80030cc:	eb46 060b 	adc.w	r6, r6, fp
 80030d0:	2804      	cmp	r0, #4
 80030d2:	f842 3b04 	str.w	r3, [r2], #4
 80030d6:	46b2      	mov	sl, r6
 80030d8:	f04f 0b00 	mov.w	fp, #0
 80030dc:	d1d1      	bne.n	8003082 <multiply136x136+0x32>
 80030de:	9b01      	ldr	r3, [sp, #4]
 80030e0:	fbec ab0e 	umlal	sl, fp, ip, lr
 80030e4:	f8a3 a020 	strh.w	sl, [r3, #32]
 80030e8:	b003      	add	sp, #12
 80030ea:	e8bd 8ff0 	ldmia.w	sp!, {r4, r5, r6, r7, r8, r9, sl, fp, pc}
 80030ee:	bf00      	nop

080030f0 <setone_256bitvalue>:
 80030f0:	2300      	movs	r3, #0
 80030f2:	2201      	movs	r2, #1
 80030f4:	e9c0 2300 	strd	r2, r3, [r0]
 80030f8:	e9c0 3302 	strd	r3, r3, [r0, #8]
 80030fc:	e9c0 3304 	strd	r3, r3, [r0, #16]
 8003100:	e9c0 3306 	strd	r3, r3, [r0, #24]
 8003104:	4770      	bx	lr
 8003106:	bf00      	nop

08003108 <setzero_256bitvalue>:
 8003108:	2300      	movs	r3, #0
 800310a:	e9c0 3300 	strd	r3, r3, [r0]
 800310e:	e9c0 3302 	strd	r3, r3, [r0, #8]
 8003112:	e9c0 3304 	strd	r3, r3, [r0, #16]
 8003116:	e9c0 3306 	strd	r3, r3, [r0, #24]
 800311a:	4770      	bx	lr

0800311c <cpy_256bitvalue>:
 800311c:	1f0b      	subs	r3, r1, #4
 800311e:	3804      	subs	r0, #4
 8003120:	311c      	adds	r1, #28
 8003122:	f853 2f04 	ldr.w	r2, [r3, #4]!
 8003126:	f840 2f04 	str.w	r2, [r0, #4]!
 800312a:	428b      	cmp	r3, r1
 800312c:	d1f9      	bne.n	8003122 <cpy_256bitvalue+0x6>
 800312e:	4770      	bx	lr

08003130 <cpy_192bitvalue>:
 8003130:	1f0b      	subs	r3, r1, #4
 8003132:	3804      	subs	r0, #4
 8003134:	3114      	adds	r1, #20
 8003136:	f853 2f04 	ldr.w	r2, [r3, #4]!
 800313a:	f840 2f04 	str.w	r2, [r0, #4]!
 800313e:	428b      	cmp	r3, r1
 8003140:	d1f9      	bne.n	8003136 <cpy_192bitvalue+0x6>
 8003142:	4770      	bx	lr

08003144 <conditionalMove_192bitValue>:
 8003144:	b430      	push	{r4, r5}
 8003146:	3904      	subs	r1, #4
 8003148:	4252      	negs	r2, r2
 800314a:	1f04      	subs	r4, r0, #4
 800314c:	f100 0514 	add.w	r5, r0, #20
 8003150:	f854 0f04 	ldr.w	r0, [r4, #4]!
 8003154:	f851 3f04 	ldr.w	r3, [r1, #4]!
 8003158:	4043      	eors	r3, r0
 800315a:	4013      	ands	r3, r2
 800315c:	4043      	eors	r3, r0
 800315e:	42ac      	cmp	r4, r5
 8003160:	6023      	str	r3, [r4, #0]
 8003162:	d1f5      	bne.n	8003150 <conditionalMove_192bitValue+0xc>
 8003164:	bc30      	pop	{r4, r5}
 8003166:	4770      	bx	lr

08003168 <conditionalMove_256bitValue>:
 8003168:	b430      	push	{r4, r5}
 800316a:	3904      	subs	r1, #4
 800316c:	4252      	negs	r2, r2
 800316e:	1f04      	subs	r4, r0, #4
 8003170:	f100 051c 	add.w	r5, r0, #28
 8003174:	f854 0f04 	ldr.w	r0, [r4, #4]!
 8003178:	f851 3f04 	ldr.w	r3, [r1, #4]!
 800317c:	4043      	eors	r3, r0
 800317e:	4013      	ands	r3, r2
 8003180:	4043      	eors	r3, r0
 8003182:	42ac      	cmp	r4, r5
 8003184:	6023      	str	r3, [r4, #0]
 8003186:	d1f5      	bne.n	8003174 <conditionalMove_256bitValue+0xc>
 8003188:	bc30      	pop	{r4, r5}
 800318a:	4770      	bx	lr

0800318c <shiftLeftOne>:
 800318c:	69c3      	ldr	r3, [r0, #28]
 800318e:	4602      	mov	r2, r0
 8003190:	005b      	lsls	r3, r3, #1
 8003192:	f842 3f1c 	str.w	r3, [r2, #28]!
 8003196:	f852 1c04 	ldr.w	r1, [r2, #-4]
 800319a:	eb03 73d1 	add.w	r3, r3, r1, lsr #31
 800319e:	6013      	str	r3, [r2, #0]
 80031a0:	f852 3d04 	ldr.w	r3, [r2, #-4]!
 80031a4:	005b      	lsls	r3, r3, #1
 80031a6:	4282      	cmp	r2, r0
 80031a8:	6013      	str	r3, [r2, #0]
 80031aa:	d1f4      	bne.n	8003196 <shiftLeftOne+0xa>
 80031ac:	4770      	bx	lr
 80031ae:	bf00      	nop

080031b0 <shiftRightOne>:
 80031b0:	6803      	ldr	r3, [r0, #0]
 80031b2:	69c1      	ldr	r1, [r0, #28]
 80031b4:	085b      	lsrs	r3, r3, #1
 80031b6:	b430      	push	{r4, r5}
 80031b8:	4602      	mov	r2, r0
 80031ba:	6003      	str	r3, [r0, #0]
 80031bc:	f001 4500 	and.w	r5, r1, #2147483648	; 0x80000000
 80031c0:	f100 041c 	add.w	r4, r0, #28
 80031c4:	6851      	ldr	r1, [r2, #4]
 80031c6:	eb03 73c1 	add.w	r3, r3, r1, lsl #31
 80031ca:	6013      	str	r3, [r2, #0]
 80031cc:	f852 3f04 	ldr.w	r3, [r2, #4]!
 80031d0:	085b      	lsrs	r3, r3, #1
 80031d2:	42a2      	cmp	r2, r4
 80031d4:	6013      	str	r3, [r2, #0]
 80031d6:	d1f5      	bne.n	80031c4 <shiftRightOne+0x14>
 80031d8:	69c3      	ldr	r3, [r0, #28]
 80031da:	432b      	orrs	r3, r5
 80031dc:	61c3      	str	r3, [r0, #28]
 80031de:	bc30      	pop	{r4, r5}
 80031e0:	4770      	bx	lr
 80031e2:	bf00      	nop

080031e4 <isEqual_256bitvalue>:
 80031e4:	b430      	push	{r4, r5}
 80031e6:	1f02      	subs	r2, r0, #4
 80031e8:	f100 051c 	add.w	r5, r0, #28
 80031ec:	3904      	subs	r1, #4
 80031ee:	2000      	movs	r0, #0
 80031f0:	f852 3f04 	ldr.w	r3, [r2, #4]!
 80031f4:	f851 4f04 	ldr.w	r4, [r1, #4]!
 80031f8:	42aa      	cmp	r2, r5
 80031fa:	ea83 0304 	eor.w	r3, r3, r4
 80031fe:	ea40 0003 	orr.w	r0, r0, r3
 8003202:	d1f5      	bne.n	80031f0 <isEqual_256bitvalue+0xc>
 8003204:	bc30      	pop	{r4, r5}
 8003206:	4770      	bx	lr

08003208 <cSwapAndRandomize_asm>:
 8003208:	e92d 4ff0 	stmdb	sp!, {r4, r5, r6, r7, r8, r9, sl, fp, lr}
 800320c:	b082      	sub	sp, #8
 800320e:	f043 0301 	orr.w	r3, r3, #1
 8003212:	ea80 0403 	eor.w	r4, r0, r3
 8003216:	f420 407f 	bic.w	r0, r0, #65280	; 0xff00
 800321a:	f424 447f 	bic.w	r4, r4, #65280	; 0xff00
 800321e:	ea4f 3373 	mov.w	r3, r3, ror #13
 8003222:	f020 00fe 	bic.w	r0, r0, #254	; 0xfe
 8003226:	f024 04fe 	bic.w	r4, r4, #254	; 0xfe
 800322a:	f023 2380 	bic.w	r3, r3, #2147516416	; 0x80008000
 800322e:	f101 0e1c 	add.w	lr, r1, #28
 8003232:	f8cd e000 	str.w	lr, [sp]
 8003236:	69cd      	ldr	r5, [r1, #28]
 8003238:	69d6      	ldr	r6, [r2, #28]
 800323a:	fb00 f705 	mul.w	r7, r0, r5
 800323e:	fb00 f806 	mul.w	r8, r0, r6
 8003242:	fbe4 7a06 	umlal	r7, sl, r4, r6
 8003246:	fbe4 8a05 	umlal	r8, sl, r4, r5
 800324a:	b2bf      	uxth	r7, r7
 800324c:	fa1f f888 	uxth.w	r8, r8
 8003250:	fba3 9a07 	umull	r9, sl, r3, r7
 8003254:	ea4f 4333 	mov.w	r3, r3, ror #16
 8003258:	fba3 be08 	umull	fp, lr, r3, r8
 800325c:	ea4f 4333 	mov.w	r3, r3, ror #16
 8003260:	ea4f 4535 	mov.w	r5, r5, ror #16
 8003264:	ea4f 4636 	mov.w	r6, r6, ror #16
 8003268:	fb00 f705 	mul.w	r7, r0, r5
 800326c:	fb00 f806 	mul.w	r8, r0, r6
 8003270:	fbe4 7606 	umlal	r7, r6, r4, r6
 8003274:	fbe4 8505 	umlal	r8, r5, r4, r5
 8003278:	ea4f 4707 	mov.w	r7, r7, lsl #16
 800327c:	ea4f 4808 	mov.w	r8, r8, lsl #16
 8003280:	fbe3 9a07 	umlal	r9, sl, r3, r7
 8003284:	ea4f 4333 	mov.w	r3, r3, ror #16
 8003288:	fbe3 be08 	umlal	fp, lr, r3, r8
 800328c:	ea4f 4333 	mov.w	r3, r3, ror #16
 8003290:	f029 4500 	bic.w	r5, r9, #2147483648	; 0x80000000
 8003294:	f02b 4600 	bic.w	r6, fp, #2147483648	; 0x80000000
 8003298:	61d5      	str	r5, [r2, #28]
 800329a:	61ce      	str	r6, [r1, #28]
 800329c:	ea4f 79d9 	mov.w	r9, r9, lsr #31
 80032a0:	ea4f 7bdb 	mov.w	fp, fp, lsr #31
 80032a4:	ea49 094a 	orr.w	r9, r9, sl, lsl #1
 80032a8:	ea4b 0b4e 	orr.w	fp, fp, lr, lsl #1
 80032ac:	f04f 0513 	mov.w	r5, #19
 80032b0:	fba9 9a05 	umull	r9, sl, r9, r5
 80032b4:	fbab be05 	umull	fp, lr, fp, r5

080032b8 <.loopStart>:
 80032b8:	9101      	str	r1, [sp, #4]
 80032ba:	680d      	ldr	r5, [r1, #0]
 80032bc:	6816      	ldr	r6, [r2, #0]
 80032be:	fb00 f705 	mul.w	r7, r0, r5
 80032c2:	fb00 f806 	mul.w	r8, r0, r6
 80032c6:	fbe4 7106 	umlal	r7, r1, r4, r6
 80032ca:	fbe4 8105 	umlal	r8, r1, r4, r5
 80032ce:	b2bf      	uxth	r7, r7
 80032d0:	fa1f f888 	uxth.w	r8, r8
 80032d4:	fbe3 9a07 	umlal	r9, sl, r3, r7
 80032d8:	ea4f 4333 	mov.w	r3, r3, ror #16
 80032dc:	fbe3 be08 	umlal	fp, lr, r3, r8
 80032e0:	ea4f 4333 	mov.w	r3, r3, ror #16
 80032e4:	ea4f 4535 	mov.w	r5, r5, ror #16
 80032e8:	ea4f 4636 	mov.w	r6, r6, ror #16
 80032ec:	fb00 f705 	mul.w	r7, r0, r5
 80032f0:	fb00 f806 	mul.w	r8, r0, r6
 80032f4:	fbe4 7606 	umlal	r7, r6, r4, r6
 80032f8:	fbe4 8505 	umlal	r8, r5, r4, r5
 80032fc:	ea4f 4707 	mov.w	r7, r7, lsl #16
 8003300:	ea4f 4808 	mov.w	r8, r8, lsl #16
 8003304:	fbe3 9a07 	umlal	r9, sl, r3, r7
 8003308:	ea4f 4333 	mov.w	r3, r3, ror #16
 800330c:	fbe3 be08 	umlal	fp, lr, r3, r8
 8003310:	ea4f 4333 	mov.w	r3, r3, ror #16
 8003314:	f8c2 9000 	str.w	r9, [r2]
 8003318:	9901      	ldr	r1, [sp, #4]
 800331a:	f8c1 b000 	str.w	fp, [r1]
 800331e:	46d1      	mov	r9, sl
 8003320:	46f3      	mov	fp, lr
 8003322:	f04f 0a00 	mov.w	sl, #0
 8003326:	f04f 0e00 	mov.w	lr, #0
 800332a:	f101 0104 	add.w	r1, r1, #4
 800332e:	f102 0204 	add.w	r2, r2, #4
 8003332:	9d00      	ldr	r5, [sp, #0]
 8003334:	42a9      	cmp	r1, r5
 8003336:	d1bf      	bne.n	80032b8 <.loopStart>
 8003338:	6815      	ldr	r5, [r2, #0]
 800333a:	680e      	ldr	r6, [r1, #0]
 800333c:	444d      	add	r5, r9
 800333e:	445e      	add	r6, fp
 8003340:	6015      	str	r5, [r2, #0]
 8003342:	600e      	str	r6, [r1, #0]
 8003344:	e8bd 8ff3 	ldmia.w	sp!, {r0, r1, r4, r5, r6, r7, r8, r9, sl, fp, pc}

08003348 <sprintf>:
 8003348:	b40e      	push	{r1, r2, r3}
 800334a:	b530      	push	{r4, r5, lr}
 800334c:	b09c      	sub	sp, #112	; 0x70
 800334e:	ab1f      	add	r3, sp, #124	; 0x7c
 8003350:	4c0c      	ldr	r4, [pc, #48]	; (8003384 <sprintf+0x3c>)
 8003352:	4d0d      	ldr	r5, [pc, #52]	; (8003388 <sprintf+0x40>)
 8003354:	f853 2b04 	ldr.w	r2, [r3], #4
 8003358:	9301      	str	r3, [sp, #4]
 800335a:	4601      	mov	r1, r0
 800335c:	9102      	str	r1, [sp, #8]
 800335e:	9106      	str	r1, [sp, #24]
 8003360:	6820      	ldr	r0, [r4, #0]
 8003362:	a902      	add	r1, sp, #8
 8003364:	f06f 4400 	mvn.w	r4, #2147483648	; 0x80000000
 8003368:	e9cd 4504 	strd	r4, r5, [sp, #16]
 800336c:	9407      	str	r4, [sp, #28]
 800336e:	f000 f80f 	bl	8003390 <_svfprintf_r>
 8003372:	9b02      	ldr	r3, [sp, #8]
 8003374:	2200      	movs	r2, #0
 8003376:	701a      	strb	r2, [r3, #0]
 8003378:	b01c      	add	sp, #112	; 0x70
 800337a:	e8bd 4030 	ldmia.w	sp!, {r4, r5, lr}
 800337e:	b003      	add	sp, #12
 8003380:	4770      	bx	lr
 8003382:	bf00      	nop
 8003384:	20000000 	.word	0x20000000
 8003388:	ffff0208 	.word	0xffff0208
 800338c:	00000000 	.word	0x00000000

08003390 <_svfprintf_r>:
 8003390:	e92d 4ff0 	stmdb	sp!, {r4, r5, r6, r7, r8, r9, sl, fp, lr}
 8003394:	ed2d 8b06 	vpush	{d8-d10}
 8003398:	b0cf      	sub	sp, #316	; 0x13c
 800339a:	468b      	mov	fp, r1
 800339c:	4617      	mov	r7, r2
 800339e:	9308      	str	r3, [sp, #32]
 80033a0:	4681      	mov	r9, r0
 80033a2:	f002 feeb 	bl	800617c <_localeconv_r>
 80033a6:	6803      	ldr	r3, [r0, #0]
 80033a8:	9311      	str	r3, [sp, #68]	; 0x44
 80033aa:	4618      	mov	r0, r3
 80033ac:	f003 fe48 	bl	8007040 <strlen>
 80033b0:	f8bb 300c 	ldrh.w	r3, [fp, #12]
 80033b4:	9010      	str	r0, [sp, #64]	; 0x40
 80033b6:	061e      	lsls	r6, r3, #24
 80033b8:	d504      	bpl.n	80033c4 <_svfprintf_r+0x34>
 80033ba:	f8db 3010 	ldr.w	r3, [fp, #16]
 80033be:	2b00      	cmp	r3, #0
 80033c0:	f001 8018 	beq.w	80043f4 <_svfprintf_r+0x1064>
 80033c4:	2300      	movs	r3, #0
 80033c6:	ed9f 7b74 	vldr	d7, [pc, #464]	; 8003598 <_svfprintf_r+0x208>
 80033ca:	e9cd 3323 	strd	r3, r3, [sp, #140]	; 0x8c
 80033ce:	e9cd 3313 	strd	r3, r3, [sp, #76]	; 0x4c
 80033d2:	e9cd 3315 	strd	r3, r3, [sp, #84]	; 0x54
 80033d6:	930c      	str	r3, [sp, #48]	; 0x30
 80033d8:	9312      	str	r3, [sp, #72]	; 0x48
 80033da:	9304      	str	r3, [sp, #16]
 80033dc:	ab25      	add	r3, sp, #148	; 0x94
 80033de:	9322      	str	r3, [sp, #136]	; 0x88
 80033e0:	4698      	mov	r8, r3
 80033e2:	783b      	ldrb	r3, [r7, #0]
 80033e4:	ed8d 7b0e 	vstr	d7, [sp, #56]	; 0x38
 80033e8:	ee09 ba10 	vmov	s18, fp
 80033ec:	2b00      	cmp	r3, #0
 80033ee:	f000 8159 	beq.w	80036a4 <_svfprintf_r+0x314>
 80033f2:	463c      	mov	r4, r7
 80033f4:	e004      	b.n	8003400 <_svfprintf_r+0x70>
 80033f6:	f814 3f01 	ldrb.w	r3, [r4, #1]!
 80033fa:	2b00      	cmp	r3, #0
 80033fc:	f000 80a8 	beq.w	8003550 <_svfprintf_r+0x1c0>
 8003400:	2b25      	cmp	r3, #37	; 0x25
 8003402:	d1f8      	bne.n	80033f6 <_svfprintf_r+0x66>
 8003404:	1be5      	subs	r5, r4, r7
 8003406:	f040 80a6 	bne.w	8003556 <_svfprintf_r+0x1c6>
 800340a:	7823      	ldrb	r3, [r4, #0]
 800340c:	2b00      	cmp	r3, #0
 800340e:	f000 8149 	beq.w	80036a4 <_svfprintf_r+0x314>
 8003412:	2300      	movs	r3, #0
 8003414:	9305      	str	r3, [sp, #20]
 8003416:	f88d 306b 	strb.w	r3, [sp, #107]	; 0x6b
 800341a:	9302      	str	r3, [sp, #8]
 800341c:	1c66      	adds	r6, r4, #1
 800341e:	f04f 33ff 	mov.w	r3, #4294967295	; 0xffffffff
 8003422:	7864      	ldrb	r4, [r4, #1]
 8003424:	9303      	str	r3, [sp, #12]
 8003426:	252b      	movs	r5, #43	; 0x2b
 8003428:	f04f 0a20 	mov.w	sl, #32
 800342c:	3601      	adds	r6, #1
 800342e:	f1a4 0320 	sub.w	r3, r4, #32
 8003432:	2b5a      	cmp	r3, #90	; 0x5a
 8003434:	f200 80b4 	bhi.w	80035a0 <_svfprintf_r+0x210>
 8003438:	e8df f013 	tbh	[pc, r3, lsl #1]
 800343c:	00b20294 	.word	0x00b20294
 8003440:	028e00b2 	.word	0x028e00b2
 8003444:	00b200b2 	.word	0x00b200b2
 8003448:	006a00b2 	.word	0x006a00b2
 800344c:	00b200b2 	.word	0x00b200b2
 8003450:	020301f2 	.word	0x020301f2
 8003454:	01fd00b2 	.word	0x01fd00b2
 8003458:	00b202a3 	.word	0x00b202a3
 800345c:	005b029d 	.word	0x005b029d
 8003460:	005b005b 	.word	0x005b005b
 8003464:	005b005b 	.word	0x005b005b
 8003468:	005b005b 	.word	0x005b005b
 800346c:	005b005b 	.word	0x005b005b
 8003470:	00b200b2 	.word	0x00b200b2
 8003474:	00b200b2 	.word	0x00b200b2
 8003478:	00b200b2 	.word	0x00b200b2
 800347c:	014900b2 	.word	0x014900b2
 8003480:	019500b2 	.word	0x019500b2
 8003484:	014902c6 	.word	0x014902c6
 8003488:	01490149 	.word	0x01490149
 800348c:	00b200b2 	.word	0x00b200b2
 8003490:	00b200b2 	.word	0x00b200b2
 8003494:	00b20288 	.word	0x00b20288
 8003498:	020700b2 	.word	0x020700b2
 800349c:	00b200b2 	.word	0x00b200b2
 80034a0:	01a300b2 	.word	0x01a300b2
 80034a4:	027800b2 	.word	0x027800b2
 80034a8:	00b200b2 	.word	0x00b200b2
 80034ac:	00b207bc 	.word	0x00b207bc
 80034b0:	00b200b2 	.word	0x00b200b2
 80034b4:	00b200b2 	.word	0x00b200b2
 80034b8:	00b200b2 	.word	0x00b200b2
 80034bc:	014900b2 	.word	0x014900b2
 80034c0:	019500b2 	.word	0x019500b2
 80034c4:	014901c9 	.word	0x014901c9
 80034c8:	01490149 	.word	0x01490149
 80034cc:	01c9023a 	.word	0x01c9023a
 80034d0:	00b20084 	.word	0x00b20084
 80034d4:	00b2025b 	.word	0x00b2025b
 80034d8:	07b50243 	.word	0x07b50243
 80034dc:	00840264 	.word	0x00840264
 80034e0:	01a300b2 	.word	0x01a300b2
 80034e4:	07b80082 	.word	0x07b80082
 80034e8:	00b200b2 	.word	0x00b200b2
 80034ec:	00b20793 	.word	0x00b20793
 80034f0:	0082      	.short	0x0082
 80034f2:	f1a4 0330 	sub.w	r3, r4, #48	; 0x30
 80034f6:	2200      	movs	r2, #0
 80034f8:	f816 4b01 	ldrb.w	r4, [r6], #1
 80034fc:	eb02 0282 	add.w	r2, r2, r2, lsl #2
 8003500:	eb03 0242 	add.w	r2, r3, r2, lsl #1
 8003504:	f1a4 0330 	sub.w	r3, r4, #48	; 0x30
 8003508:	2b09      	cmp	r3, #9
 800350a:	d9f5      	bls.n	80034f8 <_svfprintf_r+0x168>
 800350c:	9205      	str	r2, [sp, #20]
 800350e:	e78e      	b.n	800342e <_svfprintf_r+0x9e>
 8003510:	4648      	mov	r0, r9
 8003512:	f002 fe33 	bl	800617c <_localeconv_r>
 8003516:	6843      	ldr	r3, [r0, #4]
 8003518:	9315      	str	r3, [sp, #84]	; 0x54
 800351a:	4618      	mov	r0, r3
 800351c:	f003 fd90 	bl	8007040 <strlen>
 8003520:	4603      	mov	r3, r0
 8003522:	4648      	mov	r0, r9
 8003524:	461c      	mov	r4, r3
 8003526:	9316      	str	r3, [sp, #88]	; 0x58
 8003528:	f002 fe28 	bl	800617c <_localeconv_r>
 800352c:	6882      	ldr	r2, [r0, #8]
 800352e:	9213      	str	r2, [sp, #76]	; 0x4c
 8003530:	b134      	cbz	r4, 8003540 <_svfprintf_r+0x1b0>
 8003532:	9b13      	ldr	r3, [sp, #76]	; 0x4c
 8003534:	b123      	cbz	r3, 8003540 <_svfprintf_r+0x1b0>
 8003536:	9b13      	ldr	r3, [sp, #76]	; 0x4c
 8003538:	781b      	ldrb	r3, [r3, #0]
 800353a:	2b00      	cmp	r3, #0
 800353c:	f041 8191 	bne.w	8004862 <_svfprintf_r+0x14d2>
 8003540:	7834      	ldrb	r4, [r6, #0]
 8003542:	e773      	b.n	800342c <_svfprintf_r+0x9c>
 8003544:	9b02      	ldr	r3, [sp, #8]
 8003546:	7834      	ldrb	r4, [r6, #0]
 8003548:	f043 0320 	orr.w	r3, r3, #32
 800354c:	9302      	str	r3, [sp, #8]
 800354e:	e76d      	b.n	800342c <_svfprintf_r+0x9c>
 8003550:	1be5      	subs	r5, r4, r7
 8003552:	f000 80a7 	beq.w	80036a4 <_svfprintf_r+0x314>
 8003556:	e9dd 3223 	ldrd	r3, r2, [sp, #140]	; 0x8c
 800355a:	3301      	adds	r3, #1
 800355c:	442a      	add	r2, r5
 800355e:	2b07      	cmp	r3, #7
 8003560:	e9cd 3223 	strd	r3, r2, [sp, #140]	; 0x8c
 8003564:	f8c8 7000 	str.w	r7, [r8]
 8003568:	f8c8 5004 	str.w	r5, [r8, #4]
 800356c:	dc06      	bgt.n	800357c <_svfprintf_r+0x1ec>
 800356e:	f108 0808 	add.w	r8, r8, #8
 8003572:	9a04      	ldr	r2, [sp, #16]
 8003574:	7823      	ldrb	r3, [r4, #0]
 8003576:	442a      	add	r2, r5
 8003578:	9204      	str	r2, [sp, #16]
 800357a:	e747      	b.n	800340c <_svfprintf_r+0x7c>
 800357c:	ee19 1a10 	vmov	r1, s18
 8003580:	aa22      	add	r2, sp, #136	; 0x88
 8003582:	4648      	mov	r0, r9
 8003584:	f003 fdfe 	bl	8007184 <__ssprint_r>
 8003588:	2800      	cmp	r0, #0
 800358a:	f041 83ef 	bne.w	8004d6c <_svfprintf_r+0x19dc>
 800358e:	f10d 0894 	add.w	r8, sp, #148	; 0x94
 8003592:	e7ee      	b.n	8003572 <_svfprintf_r+0x1e2>
 8003594:	f3af 8000 	nop.w
	...
 80035a0:	9609      	str	r6, [sp, #36]	; 0x24
 80035a2:	2c00      	cmp	r4, #0
 80035a4:	d07e      	beq.n	80036a4 <_svfprintf_r+0x314>
 80035a6:	2300      	movs	r3, #0
 80035a8:	461a      	mov	r2, r3
 80035aa:	f04f 0a01 	mov.w	sl, #1
 80035ae:	f88d 40d4 	strb.w	r4, [sp, #212]	; 0xd4
 80035b2:	f88d 306b 	strb.w	r3, [sp, #107]	; 0x6b
 80035b6:	9207      	str	r2, [sp, #28]
 80035b8:	9203      	str	r2, [sp, #12]
 80035ba:	920a      	str	r2, [sp, #40]	; 0x28
 80035bc:	920d      	str	r2, [sp, #52]	; 0x34
 80035be:	920b      	str	r2, [sp, #44]	; 0x2c
 80035c0:	f8cd a018 	str.w	sl, [sp, #24]
 80035c4:	af35      	add	r7, sp, #212	; 0xd4
 80035c6:	9b02      	ldr	r3, [sp, #8]
 80035c8:	9902      	ldr	r1, [sp, #8]
 80035ca:	f013 0302 	ands.w	r3, r3, #2
 80035ce:	bf18      	it	ne
 80035d0:	f10a 0a02 	addne.w	sl, sl, #2
 80035d4:	f011 0b84 	ands.w	fp, r1, #132	; 0x84
 80035d8:	d105      	bne.n	80035e6 <_svfprintf_r+0x256>
 80035da:	9905      	ldr	r1, [sp, #20]
 80035dc:	eba1 060a 	sub.w	r6, r1, sl
 80035e0:	2e00      	cmp	r6, #0
 80035e2:	f300 83b5 	bgt.w	8003d50 <_svfprintf_r+0x9c0>
 80035e6:	9d24      	ldr	r5, [sp, #144]	; 0x90
 80035e8:	b172      	cbz	r2, 8003608 <_svfprintf_r+0x278>
 80035ea:	9a23      	ldr	r2, [sp, #140]	; 0x8c
 80035ec:	3201      	adds	r2, #1
 80035ee:	3501      	adds	r5, #1
 80035f0:	f10d 006b 	add.w	r0, sp, #107	; 0x6b
 80035f4:	2101      	movs	r1, #1
 80035f6:	2a07      	cmp	r2, #7
 80035f8:	e9cd 2523 	strd	r2, r5, [sp, #140]	; 0x8c
 80035fc:	e9c8 0100 	strd	r0, r1, [r8]
 8003600:	f300 83e5 	bgt.w	8003dce <_svfprintf_r+0xa3e>
 8003604:	f108 0808 	add.w	r8, r8, #8
 8003608:	b16b      	cbz	r3, 8003626 <_svfprintf_r+0x296>
 800360a:	9b23      	ldr	r3, [sp, #140]	; 0x8c
 800360c:	3301      	adds	r3, #1
 800360e:	3502      	adds	r5, #2
 8003610:	a91b      	add	r1, sp, #108	; 0x6c
 8003612:	2202      	movs	r2, #2
 8003614:	2b07      	cmp	r3, #7
 8003616:	e9cd 3523 	strd	r3, r5, [sp, #140]	; 0x8c
 800361a:	e9c8 1200 	strd	r1, r2, [r8]
 800361e:	f300 83e5 	bgt.w	8003dec <_svfprintf_r+0xa5c>
 8003622:	f108 0808 	add.w	r8, r8, #8
 8003626:	f1bb 0f80 	cmp.w	fp, #128	; 0x80
 800362a:	f000 829b 	beq.w	8003b64 <_svfprintf_r+0x7d4>
 800362e:	9b03      	ldr	r3, [sp, #12]
 8003630:	9a06      	ldr	r2, [sp, #24]
 8003632:	1a9e      	subs	r6, r3, r2
 8003634:	2e00      	cmp	r6, #0
 8003636:	f300 82dd 	bgt.w	8003bf4 <_svfprintf_r+0x864>
 800363a:	9b02      	ldr	r3, [sp, #8]
 800363c:	05db      	lsls	r3, r3, #23
 800363e:	f100 8235 	bmi.w	8003aac <_svfprintf_r+0x71c>
 8003642:	9b23      	ldr	r3, [sp, #140]	; 0x8c
 8003644:	9a06      	ldr	r2, [sp, #24]
 8003646:	f8c8 7000 	str.w	r7, [r8]
 800364a:	3301      	adds	r3, #1
 800364c:	4415      	add	r5, r2
 800364e:	2b07      	cmp	r3, #7
 8003650:	9524      	str	r5, [sp, #144]	; 0x90
 8003652:	f8c8 2004 	str.w	r2, [r8, #4]
 8003656:	9323      	str	r3, [sp, #140]	; 0x8c
 8003658:	f300 8359 	bgt.w	8003d0e <_svfprintf_r+0x97e>
 800365c:	f108 0808 	add.w	r8, r8, #8
 8003660:	9b02      	ldr	r3, [sp, #8]
 8003662:	0759      	lsls	r1, r3, #29
 8003664:	d505      	bpl.n	8003672 <_svfprintf_r+0x2e2>
 8003666:	9b05      	ldr	r3, [sp, #20]
 8003668:	eba3 040a 	sub.w	r4, r3, sl
 800366c:	2c00      	cmp	r4, #0
 800366e:	f300 83ca 	bgt.w	8003e06 <_svfprintf_r+0xa76>
 8003672:	e9dd 3204 	ldrd	r3, r2, [sp, #16]
 8003676:	4552      	cmp	r2, sl
 8003678:	bfac      	ite	ge
 800367a:	189b      	addge	r3, r3, r2
 800367c:	4453      	addlt	r3, sl
 800367e:	9304      	str	r3, [sp, #16]
 8003680:	2d00      	cmp	r5, #0
 8003682:	f040 82f4 	bne.w	8003c6e <_svfprintf_r+0x8de>
 8003686:	2300      	movs	r3, #0
 8003688:	9323      	str	r3, [sp, #140]	; 0x8c
 800368a:	9b07      	ldr	r3, [sp, #28]
 800368c:	b11b      	cbz	r3, 8003696 <_svfprintf_r+0x306>
 800368e:	9907      	ldr	r1, [sp, #28]
 8003690:	4648      	mov	r0, r9
 8003692:	f002 fc6f 	bl	8005f74 <_free_r>
 8003696:	f10d 0894 	add.w	r8, sp, #148	; 0x94
 800369a:	9f09      	ldr	r7, [sp, #36]	; 0x24
 800369c:	783b      	ldrb	r3, [r7, #0]
 800369e:	2b00      	cmp	r3, #0
 80036a0:	f47f aea7 	bne.w	80033f2 <_svfprintf_r+0x62>
 80036a4:	9b24      	ldr	r3, [sp, #144]	; 0x90
 80036a6:	ee19 ba10 	vmov	fp, s18
 80036aa:	2b00      	cmp	r3, #0
 80036ac:	f041 82b4 	bne.w	8004c18 <_svfprintf_r+0x1888>
 80036b0:	f8bb 300c 	ldrh.w	r3, [fp, #12]
 80036b4:	f013 0f40 	tst.w	r3, #64	; 0x40
 80036b8:	9b04      	ldr	r3, [sp, #16]
 80036ba:	bf18      	it	ne
 80036bc:	f04f 33ff 	movne.w	r3, #4294967295	; 0xffffffff
 80036c0:	9304      	str	r3, [sp, #16]
 80036c2:	9804      	ldr	r0, [sp, #16]
 80036c4:	b04f      	add	sp, #316	; 0x13c
 80036c6:	ecbd 8b06 	vpop	{d8-d10}
 80036ca:	e8bd 8ff0 	ldmia.w	sp!, {r4, r5, r6, r7, r8, r9, sl, fp, pc}
 80036ce:	9b08      	ldr	r3, [sp, #32]
 80036d0:	9609      	str	r6, [sp, #36]	; 0x24
 80036d2:	3307      	adds	r3, #7
 80036d4:	f023 0307 	bic.w	r3, r3, #7
 80036d8:	ecb3 7b02 	vldmia	r3!, {d7}
 80036dc:	ed8d 7b0e 	vstr	d7, [sp, #56]	; 0x38
 80036e0:	e9dd 560e 	ldrd	r5, r6, [sp, #56]	; 0x38
 80036e4:	9308      	str	r3, [sp, #32]
 80036e6:	f026 4300 	bic.w	r3, r6, #2147483648	; 0x80000000
 80036ea:	ee0a 3a90 	vmov	s21, r3
 80036ee:	ee0a 5a10 	vmov	s20, r5
 80036f2:	ec5b ab1a 	vmov	sl, fp, d10
 80036f6:	4bb0      	ldr	r3, [pc, #704]	; (80039b8 <_svfprintf_r+0x628>)
 80036f8:	4650      	mov	r0, sl
 80036fa:	4659      	mov	r1, fp
 80036fc:	f04f 32ff 	mov.w	r2, #4294967295	; 0xffffffff
 8003700:	f004 fd16 	bl	8008130 <__aeabi_dcmpun>
 8003704:	2800      	cmp	r0, #0
 8003706:	f040 850b 	bne.w	8004120 <_svfprintf_r+0xd90>
 800370a:	4bab      	ldr	r3, [pc, #684]	; (80039b8 <_svfprintf_r+0x628>)
 800370c:	f04f 32ff 	mov.w	r2, #4294967295	; 0xffffffff
 8003710:	4650      	mov	r0, sl
 8003712:	4659      	mov	r1, fp
 8003714:	f004 fcee 	bl	80080f4 <__aeabi_dcmple>
 8003718:	2800      	cmp	r0, #0
 800371a:	f040 8501 	bne.w	8004120 <_svfprintf_r+0xd90>
 800371e:	2200      	movs	r2, #0
 8003720:	2300      	movs	r3, #0
 8003722:	4628      	mov	r0, r5
 8003724:	4631      	mov	r1, r6
 8003726:	f004 fcdb 	bl	80080e0 <__aeabi_dcmplt>
 800372a:	2800      	cmp	r0, #0
 800372c:	f041 8071 	bne.w	8004812 <_svfprintf_r+0x1482>
 8003730:	f89d 206b 	ldrb.w	r2, [sp, #107]	; 0x6b
 8003734:	4fa1      	ldr	r7, [pc, #644]	; (80039bc <_svfprintf_r+0x62c>)
 8003736:	4ba2      	ldr	r3, [pc, #648]	; (80039c0 <_svfprintf_r+0x630>)
 8003738:	9802      	ldr	r0, [sp, #8]
 800373a:	2100      	movs	r1, #0
 800373c:	f04f 0a03 	mov.w	sl, #3
 8003740:	f020 0080 	bic.w	r0, r0, #128	; 0x80
 8003744:	9107      	str	r1, [sp, #28]
 8003746:	9002      	str	r0, [sp, #8]
 8003748:	2c47      	cmp	r4, #71	; 0x47
 800374a:	bfc8      	it	gt
 800374c:	461f      	movgt	r7, r3
 800374e:	f8cd a018 	str.w	sl, [sp, #24]
 8003752:	9103      	str	r1, [sp, #12]
 8003754:	910a      	str	r1, [sp, #40]	; 0x28
 8003756:	910d      	str	r1, [sp, #52]	; 0x34
 8003758:	910b      	str	r1, [sp, #44]	; 0x2c
 800375a:	2a00      	cmp	r2, #0
 800375c:	f43f af33 	beq.w	80035c6 <_svfprintf_r+0x236>
 8003760:	f10a 0a01 	add.w	sl, sl, #1
 8003764:	e72f      	b.n	80035c6 <_svfprintf_r+0x236>
 8003766:	9b08      	ldr	r3, [sp, #32]
 8003768:	9609      	str	r6, [sp, #36]	; 0x24
 800376a:	f853 2b04 	ldr.w	r2, [r3], #4
 800376e:	f88d 20d4 	strb.w	r2, [sp, #212]	; 0xd4
 8003772:	2100      	movs	r1, #0
 8003774:	460a      	mov	r2, r1
 8003776:	f04f 0a01 	mov.w	sl, #1
 800377a:	9308      	str	r3, [sp, #32]
 800377c:	f88d 106b 	strb.w	r1, [sp, #107]	; 0x6b
 8003780:	e719      	b.n	80035b6 <_svfprintf_r+0x226>
 8003782:	9d08      	ldr	r5, [sp, #32]
 8003784:	9609      	str	r6, [sp, #36]	; 0x24
 8003786:	f855 7b04 	ldr.w	r7, [r5], #4
 800378a:	2600      	movs	r6, #0
 800378c:	f88d 606b 	strb.w	r6, [sp, #107]	; 0x6b
 8003790:	2f00      	cmp	r7, #0
 8003792:	f000 863f 	beq.w	8004414 <_svfprintf_r+0x1084>
 8003796:	9a03      	ldr	r2, [sp, #12]
 8003798:	4613      	mov	r3, r2
 800379a:	3301      	adds	r3, #1
 800379c:	f000 87f2 	beq.w	8004784 <_svfprintf_r+0x13f4>
 80037a0:	4631      	mov	r1, r6
 80037a2:	4638      	mov	r0, r7
 80037a4:	f002 ffac 	bl	8006700 <memchr>
 80037a8:	9007      	str	r0, [sp, #28]
 80037aa:	2800      	cmp	r0, #0
 80037ac:	f001 8148 	beq.w	8004a40 <_svfprintf_r+0x16b0>
 80037b0:	9b07      	ldr	r3, [sp, #28]
 80037b2:	9603      	str	r6, [sp, #12]
 80037b4:	1bda      	subs	r2, r3, r7
 80037b6:	9206      	str	r2, [sp, #24]
 80037b8:	4633      	mov	r3, r6
 80037ba:	ea22 7ae2 	bic.w	sl, r2, r2, asr #31
 80037be:	9508      	str	r5, [sp, #32]
 80037c0:	f89d 206b 	ldrb.w	r2, [sp, #107]	; 0x6b
 80037c4:	9307      	str	r3, [sp, #28]
 80037c6:	930a      	str	r3, [sp, #40]	; 0x28
 80037c8:	930d      	str	r3, [sp, #52]	; 0x34
 80037ca:	930b      	str	r3, [sp, #44]	; 0x2c
 80037cc:	e7c5      	b.n	800375a <_svfprintf_r+0x3ca>
 80037ce:	9b02      	ldr	r3, [sp, #8]
 80037d0:	9609      	str	r6, [sp, #36]	; 0x24
 80037d2:	069d      	lsls	r5, r3, #26
 80037d4:	f140 8101 	bpl.w	80039da <_svfprintf_r+0x64a>
 80037d8:	9b08      	ldr	r3, [sp, #32]
 80037da:	3307      	adds	r3, #7
 80037dc:	f023 0307 	bic.w	r3, r3, #7
 80037e0:	4619      	mov	r1, r3
 80037e2:	e8f1 2302 	ldrd	r2, r3, [r1], #8
 80037e6:	9108      	str	r1, [sp, #32]
 80037e8:	4692      	mov	sl, r2
 80037ea:	469b      	mov	fp, r3
 80037ec:	2a00      	cmp	r2, #0
 80037ee:	f173 0300 	sbcs.w	r3, r3, #0
 80037f2:	f2c0 8103 	blt.w	80039fc <_svfprintf_r+0x66c>
 80037f6:	9b03      	ldr	r3, [sp, #12]
 80037f8:	3301      	adds	r3, #1
 80037fa:	f000 856c 	beq.w	80042d6 <_svfprintf_r+0xf46>
 80037fe:	9b02      	ldr	r3, [sp, #8]
 8003800:	f023 0580 	bic.w	r5, r3, #128	; 0x80
 8003804:	ea5a 030b 	orrs.w	r3, sl, fp
 8003808:	f040 8291 	bne.w	8003d2e <_svfprintf_r+0x99e>
 800380c:	9b03      	ldr	r3, [sp, #12]
 800380e:	2b00      	cmp	r3, #0
 8003810:	f040 8294 	bne.w	8003d3c <_svfprintf_r+0x9ac>
 8003814:	9502      	str	r5, [sp, #8]
 8003816:	2300      	movs	r3, #0
 8003818:	9303      	str	r3, [sp, #12]
 800381a:	9306      	str	r3, [sp, #24]
 800381c:	af4e      	add	r7, sp, #312	; 0x138
 800381e:	e118      	b.n	8003a52 <_svfprintf_r+0x6c2>
 8003820:	9b08      	ldr	r3, [sp, #32]
 8003822:	f853 2b04 	ldr.w	r2, [r3], #4
 8003826:	9205      	str	r2, [sp, #20]
 8003828:	2a00      	cmp	r2, #0
 800382a:	f280 8456 	bge.w	80040da <_svfprintf_r+0xd4a>
 800382e:	9a05      	ldr	r2, [sp, #20]
 8003830:	9308      	str	r3, [sp, #32]
 8003832:	4252      	negs	r2, r2
 8003834:	9205      	str	r2, [sp, #20]
 8003836:	9b02      	ldr	r3, [sp, #8]
 8003838:	7834      	ldrb	r4, [r6, #0]
 800383a:	f043 0304 	orr.w	r3, r3, #4
 800383e:	9302      	str	r3, [sp, #8]
 8003840:	e5f4      	b.n	800342c <_svfprintf_r+0x9c>
 8003842:	7834      	ldrb	r4, [r6, #0]
 8003844:	f88d 506b 	strb.w	r5, [sp, #107]	; 0x6b
 8003848:	e5f0      	b.n	800342c <_svfprintf_r+0x9c>
 800384a:	9b02      	ldr	r3, [sp, #8]
 800384c:	9609      	str	r6, [sp, #36]	; 0x24
 800384e:	f043 0310 	orr.w	r3, r3, #16
 8003852:	9302      	str	r3, [sp, #8]
 8003854:	9b02      	ldr	r3, [sp, #8]
 8003856:	0699      	lsls	r1, r3, #26
 8003858:	f140 840c 	bpl.w	8004074 <_svfprintf_r+0xce4>
 800385c:	9b08      	ldr	r3, [sp, #32]
 800385e:	3307      	adds	r3, #7
 8003860:	f023 0307 	bic.w	r3, r3, #7
 8003864:	e8f3 ab02 	ldrd	sl, fp, [r3], #8
 8003868:	9308      	str	r3, [sp, #32]
 800386a:	9b02      	ldr	r3, [sp, #8]
 800386c:	f423 6580 	bic.w	r5, r3, #1024	; 0x400
 8003870:	2300      	movs	r3, #0
 8003872:	2200      	movs	r2, #0
 8003874:	f88d 206b 	strb.w	r2, [sp, #107]	; 0x6b
 8003878:	9a03      	ldr	r2, [sp, #12]
 800387a:	4611      	mov	r1, r2
 800387c:	3101      	adds	r1, #1
 800387e:	f000 80cd 	beq.w	8003a1c <_svfprintf_r+0x68c>
 8003882:	f025 0180 	bic.w	r1, r5, #128	; 0x80
 8003886:	9102      	str	r1, [sp, #8]
 8003888:	ea5a 010b 	orrs.w	r1, sl, fp
 800388c:	f040 824b 	bne.w	8003d26 <_svfprintf_r+0x996>
 8003890:	2a00      	cmp	r2, #0
 8003892:	f040 8723 	bne.w	80046dc <_svfprintf_r+0x134c>
 8003896:	2b00      	cmp	r3, #0
 8003898:	d1bd      	bne.n	8003816 <_svfprintf_r+0x486>
 800389a:	f015 0301 	ands.w	r3, r5, #1
 800389e:	9306      	str	r3, [sp, #24]
 80038a0:	f000 841f 	beq.w	80040e2 <_svfprintf_r+0xd52>
 80038a4:	2330      	movs	r3, #48	; 0x30
 80038a6:	f88d 3137 	strb.w	r3, [sp, #311]	; 0x137
 80038aa:	f20d 1737 	addw	r7, sp, #311	; 0x137
 80038ae:	e0d0      	b.n	8003a52 <_svfprintf_r+0x6c2>
 80038b0:	7834      	ldrb	r4, [r6, #0]
 80038b2:	9b02      	ldr	r3, [sp, #8]
 80038b4:	2c68      	cmp	r4, #104	; 0x68
 80038b6:	f000 8596 	beq.w	80043e6 <_svfprintf_r+0x1056>
 80038ba:	f043 0340 	orr.w	r3, r3, #64	; 0x40
 80038be:	9302      	str	r3, [sp, #8]
 80038c0:	e5b4      	b.n	800342c <_svfprintf_r+0x9c>
 80038c2:	9b02      	ldr	r3, [sp, #8]
 80038c4:	9609      	str	r6, [sp, #36]	; 0x24
 80038c6:	069e      	lsls	r6, r3, #26
 80038c8:	f100 84f9 	bmi.w	80042be <_svfprintf_r+0xf2e>
 80038cc:	9b02      	ldr	r3, [sp, #8]
 80038ce:	06dd      	lsls	r5, r3, #27
 80038d0:	f100 870a 	bmi.w	80046e8 <_svfprintf_r+0x1358>
 80038d4:	9b02      	ldr	r3, [sp, #8]
 80038d6:	065c      	lsls	r4, r3, #25
 80038d8:	f100 87d4 	bmi.w	8004884 <_svfprintf_r+0x14f4>
 80038dc:	9b02      	ldr	r3, [sp, #8]
 80038de:	0598      	lsls	r0, r3, #22
 80038e0:	f140 8702 	bpl.w	80046e8 <_svfprintf_r+0x1358>
 80038e4:	9b08      	ldr	r3, [sp, #32]
 80038e6:	9904      	ldr	r1, [sp, #16]
 80038e8:	f853 2b04 	ldr.w	r2, [r3], #4
 80038ec:	9308      	str	r3, [sp, #32]
 80038ee:	7011      	strb	r1, [r2, #0]
 80038f0:	e6d3      	b.n	800369a <_svfprintf_r+0x30a>
 80038f2:	7834      	ldrb	r4, [r6, #0]
 80038f4:	9b02      	ldr	r3, [sp, #8]
 80038f6:	2c6c      	cmp	r4, #108	; 0x6c
 80038f8:	f000 856e 	beq.w	80043d8 <_svfprintf_r+0x1048>
 80038fc:	f043 0310 	orr.w	r3, r3, #16
 8003900:	9302      	str	r3, [sp, #8]
 8003902:	e593      	b.n	800342c <_svfprintf_r+0x9c>
 8003904:	9b08      	ldr	r3, [sp, #32]
 8003906:	9609      	str	r6, [sp, #36]	; 0x24
 8003908:	f647 0130 	movw	r1, #30768	; 0x7830
 800390c:	f853 2b04 	ldr.w	r2, [r3], #4
 8003910:	f8ad 106c 	strh.w	r1, [sp, #108]	; 0x6c
 8003914:	9902      	ldr	r1, [sp, #8]
 8003916:	9308      	str	r3, [sp, #32]
 8003918:	4b2a      	ldr	r3, [pc, #168]	; (80039c4 <_svfprintf_r+0x634>)
 800391a:	9312      	str	r3, [sp, #72]	; 0x48
 800391c:	f041 0502 	orr.w	r5, r1, #2
 8003920:	4692      	mov	sl, r2
 8003922:	f04f 0b00 	mov.w	fp, #0
 8003926:	2302      	movs	r3, #2
 8003928:	2478      	movs	r4, #120	; 0x78
 800392a:	e7a2      	b.n	8003872 <_svfprintf_r+0x4e2>
 800392c:	9b02      	ldr	r3, [sp, #8]
 800392e:	9609      	str	r6, [sp, #36]	; 0x24
 8003930:	f043 0510 	orr.w	r5, r3, #16
 8003934:	06af      	lsls	r7, r5, #26
 8003936:	f140 838d 	bpl.w	8004054 <_svfprintf_r+0xcc4>
 800393a:	9b08      	ldr	r3, [sp, #32]
 800393c:	3307      	adds	r3, #7
 800393e:	f023 0307 	bic.w	r3, r3, #7
 8003942:	e8f3 ab02 	ldrd	sl, fp, [r3], #8
 8003946:	9308      	str	r3, [sp, #32]
 8003948:	2301      	movs	r3, #1
 800394a:	e792      	b.n	8003872 <_svfprintf_r+0x4e2>
 800394c:	9b02      	ldr	r3, [sp, #8]
 800394e:	7834      	ldrb	r4, [r6, #0]
 8003950:	f043 0308 	orr.w	r3, r3, #8
 8003954:	9302      	str	r3, [sp, #8]
 8003956:	e569      	b.n	800342c <_svfprintf_r+0x9c>
 8003958:	9b02      	ldr	r3, [sp, #8]
 800395a:	7834      	ldrb	r4, [r6, #0]
 800395c:	f043 0301 	orr.w	r3, r3, #1
 8003960:	9302      	str	r3, [sp, #8]
 8003962:	e563      	b.n	800342c <_svfprintf_r+0x9c>
 8003964:	f89d 306b 	ldrb.w	r3, [sp, #107]	; 0x6b
 8003968:	2b00      	cmp	r3, #0
 800396a:	f47f ade9 	bne.w	8003540 <_svfprintf_r+0x1b0>
 800396e:	7834      	ldrb	r4, [r6, #0]
 8003970:	f88d a06b 	strb.w	sl, [sp, #107]	; 0x6b
 8003974:	e55a      	b.n	800342c <_svfprintf_r+0x9c>
 8003976:	9b02      	ldr	r3, [sp, #8]
 8003978:	7834      	ldrb	r4, [r6, #0]
 800397a:	f043 0380 	orr.w	r3, r3, #128	; 0x80
 800397e:	9302      	str	r3, [sp, #8]
 8003980:	e554      	b.n	800342c <_svfprintf_r+0x9c>
 8003982:	4632      	mov	r2, r6
 8003984:	f812 4b01 	ldrb.w	r4, [r2], #1
 8003988:	2c2a      	cmp	r4, #42	; 0x2a
 800398a:	f001 8277 	beq.w	8004e7c <_svfprintf_r+0x1aec>
 800398e:	f1a4 0330 	sub.w	r3, r4, #48	; 0x30
 8003992:	2b09      	cmp	r3, #9
 8003994:	4616      	mov	r6, r2
 8003996:	bf98      	it	ls
 8003998:	2200      	movls	r2, #0
 800399a:	f201 8139 	bhi.w	8004c10 <_svfprintf_r+0x1880>
 800399e:	f816 4b01 	ldrb.w	r4, [r6], #1
 80039a2:	eb02 0282 	add.w	r2, r2, r2, lsl #2
 80039a6:	eb03 0242 	add.w	r2, r3, r2, lsl #1
 80039aa:	f1a4 0330 	sub.w	r3, r4, #48	; 0x30
 80039ae:	2b09      	cmp	r3, #9
 80039b0:	d9f5      	bls.n	800399e <_svfprintf_r+0x60e>
 80039b2:	9203      	str	r2, [sp, #12]
 80039b4:	e53b      	b.n	800342e <_svfprintf_r+0x9e>
 80039b6:	bf00      	nop
 80039b8:	7fefffff 	.word	0x7fefffff
 80039bc:	08008d60 	.word	0x08008d60
 80039c0:	08008d64 	.word	0x08008d64
 80039c4:	08008d70 	.word	0x08008d70
 80039c8:	9b02      	ldr	r3, [sp, #8]
 80039ca:	9609      	str	r6, [sp, #36]	; 0x24
 80039cc:	f043 0310 	orr.w	r3, r3, #16
 80039d0:	9302      	str	r3, [sp, #8]
 80039d2:	9b02      	ldr	r3, [sp, #8]
 80039d4:	069d      	lsls	r5, r3, #26
 80039d6:	f53f aeff 	bmi.w	80037d8 <_svfprintf_r+0x448>
 80039da:	9b02      	ldr	r3, [sp, #8]
 80039dc:	06d8      	lsls	r0, r3, #27
 80039de:	f140 838a 	bpl.w	80040f6 <_svfprintf_r+0xd66>
 80039e2:	9b08      	ldr	r3, [sp, #32]
 80039e4:	f853 2b04 	ldr.w	r2, [r3], #4
 80039e8:	9308      	str	r3, [sp, #32]
 80039ea:	ea4f 7be2 	mov.w	fp, r2, asr #31
 80039ee:	465b      	mov	r3, fp
 80039f0:	2a00      	cmp	r2, #0
 80039f2:	f173 0300 	sbcs.w	r3, r3, #0
 80039f6:	4692      	mov	sl, r2
 80039f8:	f6bf aefd 	bge.w	80037f6 <_svfprintf_r+0x466>
 80039fc:	9a03      	ldr	r2, [sp, #12]
 80039fe:	9d02      	ldr	r5, [sp, #8]
 8003a00:	f1da 0a00 	rsbs	sl, sl, #0
 8003a04:	4611      	mov	r1, r2
 8003a06:	f04f 032d 	mov.w	r3, #45	; 0x2d
 8003a0a:	eb6b 0b4b 	sbc.w	fp, fp, fp, lsl #1
 8003a0e:	3101      	adds	r1, #1
 8003a10:	f88d 306b 	strb.w	r3, [sp, #107]	; 0x6b
 8003a14:	f04f 0301 	mov.w	r3, #1
 8003a18:	f47f af33 	bne.w	8003882 <_svfprintf_r+0x4f2>
 8003a1c:	2b01      	cmp	r3, #1
 8003a1e:	f000 8186 	beq.w	8003d2e <_svfprintf_r+0x99e>
 8003a22:	2b02      	cmp	r3, #2
 8003a24:	af4e      	add	r7, sp, #312	; 0x138
 8003a26:	d122      	bne.n	8003a6e <_svfprintf_r+0x6de>
 8003a28:	9812      	ldr	r0, [sp, #72]	; 0x48
 8003a2a:	ea4f 131a 	mov.w	r3, sl, lsr #4
 8003a2e:	f00a 010f 	and.w	r1, sl, #15
 8003a32:	ea43 730b 	orr.w	r3, r3, fp, lsl #28
 8003a36:	ea4f 121b 	mov.w	r2, fp, lsr #4
 8003a3a:	469a      	mov	sl, r3
 8003a3c:	4693      	mov	fp, r2
 8003a3e:	5c43      	ldrb	r3, [r0, r1]
 8003a40:	f807 3d01 	strb.w	r3, [r7, #-1]!
 8003a44:	ea5a 030b 	orrs.w	r3, sl, fp
 8003a48:	d1ef      	bne.n	8003a2a <_svfprintf_r+0x69a>
 8003a4a:	ab4e      	add	r3, sp, #312	; 0x138
 8003a4c:	1bdb      	subs	r3, r3, r7
 8003a4e:	9502      	str	r5, [sp, #8]
 8003a50:	9306      	str	r3, [sp, #24]
 8003a52:	2300      	movs	r3, #0
 8003a54:	9903      	ldr	r1, [sp, #12]
 8003a56:	9307      	str	r3, [sp, #28]
 8003a58:	930a      	str	r3, [sp, #40]	; 0x28
 8003a5a:	930d      	str	r3, [sp, #52]	; 0x34
 8003a5c:	930b      	str	r3, [sp, #44]	; 0x2c
 8003a5e:	9b06      	ldr	r3, [sp, #24]
 8003a60:	f89d 206b 	ldrb.w	r2, [sp, #107]	; 0x6b
 8003a64:	428b      	cmp	r3, r1
 8003a66:	bfb8      	it	lt
 8003a68:	460b      	movlt	r3, r1
 8003a6a:	469a      	mov	sl, r3
 8003a6c:	e675      	b.n	800375a <_svfprintf_r+0x3ca>
 8003a6e:	ea4f 02da 	mov.w	r2, sl, lsr #3
 8003a72:	ea42 724b 	orr.w	r2, r2, fp, lsl #29
 8003a76:	ea4f 01db 	mov.w	r1, fp, lsr #3
 8003a7a:	f00a 0307 	and.w	r3, sl, #7
 8003a7e:	468b      	mov	fp, r1
 8003a80:	4692      	mov	sl, r2
 8003a82:	3330      	adds	r3, #48	; 0x30
 8003a84:	ea5a 010b 	orrs.w	r1, sl, fp
 8003a88:	463a      	mov	r2, r7
 8003a8a:	f807 3d01 	strb.w	r3, [r7, #-1]!
 8003a8e:	d1ee      	bne.n	8003a6e <_svfprintf_r+0x6de>
 8003a90:	07e9      	lsls	r1, r5, #31
 8003a92:	d5da      	bpl.n	8003a4a <_svfprintf_r+0x6ba>
 8003a94:	2b30      	cmp	r3, #48	; 0x30
 8003a96:	d0d8      	beq.n	8003a4a <_svfprintf_r+0x6ba>
 8003a98:	2330      	movs	r3, #48	; 0x30
 8003a9a:	3a02      	subs	r2, #2
 8003a9c:	f807 3c01 	strb.w	r3, [r7, #-1]
 8003aa0:	ab4e      	add	r3, sp, #312	; 0x138
 8003aa2:	1a9b      	subs	r3, r3, r2
 8003aa4:	9502      	str	r5, [sp, #8]
 8003aa6:	9306      	str	r3, [sp, #24]
 8003aa8:	4617      	mov	r7, r2
 8003aaa:	e7d2      	b.n	8003a52 <_svfprintf_r+0x6c2>
 8003aac:	2c65      	cmp	r4, #101	; 0x65
 8003aae:	f340 80ea 	ble.w	8003c86 <_svfprintf_r+0x8f6>
 8003ab2:	e9dd 010e 	ldrd	r0, r1, [sp, #56]	; 0x38
 8003ab6:	2200      	movs	r2, #0
 8003ab8:	2300      	movs	r3, #0
 8003aba:	f004 fb07 	bl	80080cc <__aeabi_dcmpeq>
 8003abe:	2800      	cmp	r0, #0
 8003ac0:	f000 81e3 	beq.w	8003e8a <_svfprintf_r+0xafa>
 8003ac4:	9b23      	ldr	r3, [sp, #140]	; 0x8c
 8003ac6:	4ad3      	ldr	r2, [pc, #844]	; (8003e14 <_svfprintf_r+0xa84>)
 8003ac8:	f8c8 2000 	str.w	r2, [r8]
 8003acc:	3301      	adds	r3, #1
 8003ace:	3501      	adds	r5, #1
 8003ad0:	2201      	movs	r2, #1
 8003ad2:	2b07      	cmp	r3, #7
 8003ad4:	e9cd 3523 	strd	r3, r5, [sp, #140]	; 0x8c
 8003ad8:	f8c8 2004 	str.w	r2, [r8, #4]
 8003adc:	f300 85c6 	bgt.w	800466c <_svfprintf_r+0x12dc>
 8003ae0:	f108 0808 	add.w	r8, r8, #8
 8003ae4:	9b1c      	ldr	r3, [sp, #112]	; 0x70
 8003ae6:	9a0c      	ldr	r2, [sp, #48]	; 0x30
 8003ae8:	4293      	cmp	r3, r2
 8003aea:	f280 82f1 	bge.w	80040d0 <_svfprintf_r+0xd40>
 8003aee:	9b23      	ldr	r3, [sp, #140]	; 0x8c
 8003af0:	9a11      	ldr	r2, [sp, #68]	; 0x44
 8003af2:	f8c8 2000 	str.w	r2, [r8]
 8003af6:	9a10      	ldr	r2, [sp, #64]	; 0x40
 8003af8:	f8c8 2004 	str.w	r2, [r8, #4]
 8003afc:	3301      	adds	r3, #1
 8003afe:	4415      	add	r5, r2
 8003b00:	2b07      	cmp	r3, #7
 8003b02:	9524      	str	r5, [sp, #144]	; 0x90
 8003b04:	9323      	str	r3, [sp, #140]	; 0x8c
 8003b06:	f300 8459 	bgt.w	80043bc <_svfprintf_r+0x102c>
 8003b0a:	f108 0808 	add.w	r8, r8, #8
 8003b0e:	9b0c      	ldr	r3, [sp, #48]	; 0x30
 8003b10:	1e5c      	subs	r4, r3, #1
 8003b12:	2c00      	cmp	r4, #0
 8003b14:	f77f ada4 	ble.w	8003660 <_svfprintf_r+0x2d0>
 8003b18:	2c10      	cmp	r4, #16
 8003b1a:	9b23      	ldr	r3, [sp, #140]	; 0x8c
 8003b1c:	f8df b2fc 	ldr.w	fp, [pc, #764]	; 8003e1c <_svfprintf_r+0xa8c>
 8003b20:	f340 85b5 	ble.w	800468e <_svfprintf_r+0x12fe>
 8003b24:	465f      	mov	r7, fp
 8003b26:	2610      	movs	r6, #16
 8003b28:	ee19 ba10 	vmov	fp, s18
 8003b2c:	e005      	b.n	8003b3a <_svfprintf_r+0x7aa>
 8003b2e:	f108 0808 	add.w	r8, r8, #8
 8003b32:	3c10      	subs	r4, #16
 8003b34:	2c10      	cmp	r4, #16
 8003b36:	f340 85a9 	ble.w	800468c <_svfprintf_r+0x12fc>
 8003b3a:	3301      	adds	r3, #1
 8003b3c:	3510      	adds	r5, #16
 8003b3e:	2b07      	cmp	r3, #7
 8003b40:	e9cd 3523 	strd	r3, r5, [sp, #140]	; 0x8c
 8003b44:	e9c8 7600 	strd	r7, r6, [r8]
 8003b48:	ddf1      	ble.n	8003b2e <_svfprintf_r+0x79e>
 8003b4a:	aa22      	add	r2, sp, #136	; 0x88
 8003b4c:	4659      	mov	r1, fp
 8003b4e:	4648      	mov	r0, r9
 8003b50:	f003 fb18 	bl	8007184 <__ssprint_r>
 8003b54:	2800      	cmp	r0, #0
 8003b56:	f040 821d 	bne.w	8003f94 <_svfprintf_r+0xc04>
 8003b5a:	e9dd 3523 	ldrd	r3, r5, [sp, #140]	; 0x8c
 8003b5e:	f10d 0894 	add.w	r8, sp, #148	; 0x94
 8003b62:	e7e6      	b.n	8003b32 <_svfprintf_r+0x7a2>
 8003b64:	9b05      	ldr	r3, [sp, #20]
 8003b66:	eba3 060a 	sub.w	r6, r3, sl
 8003b6a:	2e00      	cmp	r6, #0
 8003b6c:	f77f ad5f 	ble.w	800362e <_svfprintf_r+0x29e>
 8003b70:	2e10      	cmp	r6, #16
 8003b72:	9a23      	ldr	r2, [sp, #140]	; 0x8c
 8003b74:	f8df b2a4 	ldr.w	fp, [pc, #676]	; 8003e1c <_svfprintf_r+0xa8c>
 8003b78:	dd29      	ble.n	8003bce <_svfprintf_r+0x83e>
 8003b7a:	4658      	mov	r0, fp
 8003b7c:	4629      	mov	r1, r5
 8003b7e:	46a3      	mov	fp, r4
 8003b80:	ee19 5a10 	vmov	r5, s18
 8003b84:	2310      	movs	r3, #16
 8003b86:	4604      	mov	r4, r0
 8003b88:	e004      	b.n	8003b94 <_svfprintf_r+0x804>
 8003b8a:	3e10      	subs	r6, #16
 8003b8c:	2e10      	cmp	r6, #16
 8003b8e:	f108 0808 	add.w	r8, r8, #8
 8003b92:	dd18      	ble.n	8003bc6 <_svfprintf_r+0x836>
 8003b94:	3201      	adds	r2, #1
 8003b96:	3110      	adds	r1, #16
 8003b98:	2a07      	cmp	r2, #7
 8003b9a:	e9cd 2123 	strd	r2, r1, [sp, #140]	; 0x8c
 8003b9e:	e9c8 4300 	strd	r4, r3, [r8]
 8003ba2:	ddf2      	ble.n	8003b8a <_svfprintf_r+0x7fa>
 8003ba4:	aa22      	add	r2, sp, #136	; 0x88
 8003ba6:	4629      	mov	r1, r5
 8003ba8:	4648      	mov	r0, r9
 8003baa:	f003 faeb 	bl	8007184 <__ssprint_r>
 8003bae:	2800      	cmp	r0, #0
 8003bb0:	f040 81ef 	bne.w	8003f92 <_svfprintf_r+0xc02>
 8003bb4:	3e10      	subs	r6, #16
 8003bb6:	2e10      	cmp	r6, #16
 8003bb8:	e9dd 2123 	ldrd	r2, r1, [sp, #140]	; 0x8c
 8003bbc:	f10d 0894 	add.w	r8, sp, #148	; 0x94
 8003bc0:	f04f 0310 	mov.w	r3, #16
 8003bc4:	dce6      	bgt.n	8003b94 <_svfprintf_r+0x804>
 8003bc6:	4623      	mov	r3, r4
 8003bc8:	460d      	mov	r5, r1
 8003bca:	465c      	mov	r4, fp
 8003bcc:	469b      	mov	fp, r3
 8003bce:	3201      	adds	r2, #1
 8003bd0:	4435      	add	r5, r6
 8003bd2:	2a07      	cmp	r2, #7
 8003bd4:	e9cd 2523 	strd	r2, r5, [sp, #140]	; 0x8c
 8003bd8:	f8c8 b000 	str.w	fp, [r8]
 8003bdc:	f8c8 6004 	str.w	r6, [r8, #4]
 8003be0:	f300 856e 	bgt.w	80046c0 <_svfprintf_r+0x1330>
 8003be4:	9b03      	ldr	r3, [sp, #12]
 8003be6:	9a06      	ldr	r2, [sp, #24]
 8003be8:	1a9e      	subs	r6, r3, r2
 8003bea:	2e00      	cmp	r6, #0
 8003bec:	f108 0808 	add.w	r8, r8, #8
 8003bf0:	f77f ad23 	ble.w	800363a <_svfprintf_r+0x2aa>
 8003bf4:	2e10      	cmp	r6, #16
 8003bf6:	9a23      	ldr	r2, [sp, #140]	; 0x8c
 8003bf8:	f8df b220 	ldr.w	fp, [pc, #544]	; 8003e1c <_svfprintf_r+0xa8c>
 8003bfc:	dd29      	ble.n	8003c52 <_svfprintf_r+0x8c2>
 8003bfe:	4658      	mov	r0, fp
 8003c00:	4629      	mov	r1, r5
 8003c02:	46a3      	mov	fp, r4
 8003c04:	ee19 5a10 	vmov	r5, s18
 8003c08:	2310      	movs	r3, #16
 8003c0a:	4604      	mov	r4, r0
 8003c0c:	e004      	b.n	8003c18 <_svfprintf_r+0x888>
 8003c0e:	3e10      	subs	r6, #16
 8003c10:	2e10      	cmp	r6, #16
 8003c12:	f108 0808 	add.w	r8, r8, #8
 8003c16:	dd18      	ble.n	8003c4a <_svfprintf_r+0x8ba>
 8003c18:	3201      	adds	r2, #1
 8003c1a:	3110      	adds	r1, #16
 8003c1c:	2a07      	cmp	r2, #7
 8003c1e:	e9cd 2123 	strd	r2, r1, [sp, #140]	; 0x8c
 8003c22:	e9c8 4300 	strd	r4, r3, [r8]
 8003c26:	ddf2      	ble.n	8003c0e <_svfprintf_r+0x87e>
 8003c28:	aa22      	add	r2, sp, #136	; 0x88
 8003c2a:	4629      	mov	r1, r5
 8003c2c:	4648      	mov	r0, r9
 8003c2e:	f003 faa9 	bl	8007184 <__ssprint_r>
 8003c32:	2800      	cmp	r0, #0
 8003c34:	f040 81ad 	bne.w	8003f92 <_svfprintf_r+0xc02>
 8003c38:	3e10      	subs	r6, #16
 8003c3a:	2e10      	cmp	r6, #16
 8003c3c:	e9dd 2123 	ldrd	r2, r1, [sp, #140]	; 0x8c
 8003c40:	f10d 0894 	add.w	r8, sp, #148	; 0x94
 8003c44:	f04f 0310 	mov.w	r3, #16
 8003c48:	dce6      	bgt.n	8003c18 <_svfprintf_r+0x888>
 8003c4a:	4623      	mov	r3, r4
 8003c4c:	460d      	mov	r5, r1
 8003c4e:	465c      	mov	r4, fp
 8003c50:	469b      	mov	fp, r3
 8003c52:	3201      	adds	r2, #1
 8003c54:	4435      	add	r5, r6
 8003c56:	2a07      	cmp	r2, #7
 8003c58:	e9cd 2523 	strd	r2, r5, [sp, #140]	; 0x8c
 8003c5c:	f8c8 b000 	str.w	fp, [r8]
 8003c60:	f8c8 6004 	str.w	r6, [r8, #4]
 8003c64:	f300 81e8 	bgt.w	8004038 <_svfprintf_r+0xca8>
 8003c68:	f108 0808 	add.w	r8, r8, #8
 8003c6c:	e4e5      	b.n	800363a <_svfprintf_r+0x2aa>
 8003c6e:	ee19 1a10 	vmov	r1, s18
 8003c72:	aa22      	add	r2, sp, #136	; 0x88
 8003c74:	4648      	mov	r0, r9
 8003c76:	f003 fa85 	bl	8007184 <__ssprint_r>
 8003c7a:	2800      	cmp	r0, #0
 8003c7c:	f43f ad03 	beq.w	8003686 <_svfprintf_r+0x2f6>
 8003c80:	ee19 ba10 	vmov	fp, s18
 8003c84:	e186      	b.n	8003f94 <_svfprintf_r+0xc04>
 8003c86:	9b0c      	ldr	r3, [sp, #48]	; 0x30
 8003c88:	9c23      	ldr	r4, [sp, #140]	; 0x8c
 8003c8a:	2b01      	cmp	r3, #1
 8003c8c:	f340 818c 	ble.w	8003fa8 <_svfprintf_r+0xc18>
 8003c90:	3401      	adds	r4, #1
 8003c92:	3501      	adds	r5, #1
 8003c94:	2301      	movs	r3, #1
 8003c96:	2c07      	cmp	r4, #7
 8003c98:	e9cd 4523 	strd	r4, r5, [sp, #140]	; 0x8c
 8003c9c:	f8c8 7000 	str.w	r7, [r8]
 8003ca0:	f8c8 3004 	str.w	r3, [r8, #4]
 8003ca4:	f300 81f8 	bgt.w	8004098 <_svfprintf_r+0xd08>
 8003ca8:	f108 0808 	add.w	r8, r8, #8
 8003cac:	9b10      	ldr	r3, [sp, #64]	; 0x40
 8003cae:	9a11      	ldr	r2, [sp, #68]	; 0x44
 8003cb0:	3401      	adds	r4, #1
 8003cb2:	441d      	add	r5, r3
 8003cb4:	2c07      	cmp	r4, #7
 8003cb6:	e9cd 4523 	strd	r4, r5, [sp, #140]	; 0x8c
 8003cba:	e9c8 2300 	strd	r2, r3, [r8]
 8003cbe:	f300 81f9 	bgt.w	80040b4 <_svfprintf_r+0xd24>
 8003cc2:	f108 0808 	add.w	r8, r8, #8
 8003cc6:	2300      	movs	r3, #0
 8003cc8:	e9dd 010e 	ldrd	r0, r1, [sp, #56]	; 0x38
 8003ccc:	2200      	movs	r2, #0
 8003cce:	f004 f9fd 	bl	80080cc <__aeabi_dcmpeq>
 8003cd2:	9b0c      	ldr	r3, [sp, #48]	; 0x30
 8003cd4:	2800      	cmp	r0, #0
 8003cd6:	f040 8185 	bne.w	8003fe4 <_svfprintf_r+0xc54>
 8003cda:	3b01      	subs	r3, #1
 8003cdc:	3401      	adds	r4, #1
 8003cde:	3701      	adds	r7, #1
 8003ce0:	441d      	add	r5, r3
 8003ce2:	2c07      	cmp	r4, #7
 8003ce4:	e9cd 4523 	strd	r4, r5, [sp, #140]	; 0x8c
 8003ce8:	f8c8 7000 	str.w	r7, [r8]
 8003cec:	f8c8 3004 	str.w	r3, [r8, #4]
 8003cf0:	f300 816a 	bgt.w	8003fc8 <_svfprintf_r+0xc38>
 8003cf4:	f108 0808 	add.w	r8, r8, #8
 8003cf8:	9a14      	ldr	r2, [sp, #80]	; 0x50
 8003cfa:	3401      	adds	r4, #1
 8003cfc:	4415      	add	r5, r2
 8003cfe:	ab1e      	add	r3, sp, #120	; 0x78
 8003d00:	2c07      	cmp	r4, #7
 8003d02:	e9cd 4523 	strd	r4, r5, [sp, #140]	; 0x8c
 8003d06:	e9c8 3200 	strd	r3, r2, [r8]
 8003d0a:	f77f aca7 	ble.w	800365c <_svfprintf_r+0x2cc>
 8003d0e:	ee19 1a10 	vmov	r1, s18
 8003d12:	aa22      	add	r2, sp, #136	; 0x88
 8003d14:	4648      	mov	r0, r9
 8003d16:	f003 fa35 	bl	8007184 <__ssprint_r>
 8003d1a:	2800      	cmp	r0, #0
 8003d1c:	d1b0      	bne.n	8003c80 <_svfprintf_r+0x8f0>
 8003d1e:	9d24      	ldr	r5, [sp, #144]	; 0x90
 8003d20:	f10d 0894 	add.w	r8, sp, #148	; 0x94
 8003d24:	e49c      	b.n	8003660 <_svfprintf_r+0x2d0>
 8003d26:	2b01      	cmp	r3, #1
 8003d28:	9d02      	ldr	r5, [sp, #8]
 8003d2a:	f47f ae7a 	bne.w	8003a22 <_svfprintf_r+0x692>
 8003d2e:	f1bb 0f00 	cmp.w	fp, #0
 8003d32:	bf08      	it	eq
 8003d34:	f1ba 0f0a 	cmpeq.w	sl, #10
 8003d38:	f080 82d5 	bcs.w	80042e6 <_svfprintf_r+0xf56>
 8003d3c:	f10a 0a30 	add.w	sl, sl, #48	; 0x30
 8003d40:	2301      	movs	r3, #1
 8003d42:	f88d a137 	strb.w	sl, [sp, #311]	; 0x137
 8003d46:	9502      	str	r5, [sp, #8]
 8003d48:	9306      	str	r3, [sp, #24]
 8003d4a:	f20d 1737 	addw	r7, sp, #311	; 0x137
 8003d4e:	e680      	b.n	8003a52 <_svfprintf_r+0x6c2>
 8003d50:	2e10      	cmp	r6, #16
 8003d52:	e9dd 2123 	ldrd	r2, r1, [sp, #140]	; 0x8c
 8003d56:	dd29      	ble.n	8003dac <_svfprintf_r+0xa1c>
 8003d58:	9317      	str	r3, [sp, #92]	; 0x5c
 8003d5a:	2510      	movs	r5, #16
 8003d5c:	4643      	mov	r3, r8
 8003d5e:	4608      	mov	r0, r1
 8003d60:	46b8      	mov	r8, r7
 8003d62:	4627      	mov	r7, r4
 8003d64:	ee19 4a10 	vmov	r4, s18
 8003d68:	e004      	b.n	8003d74 <_svfprintf_r+0x9e4>
 8003d6a:	3e10      	subs	r6, #16
 8003d6c:	2e10      	cmp	r6, #16
 8003d6e:	f103 0308 	add.w	r3, r3, #8
 8003d72:	dd16      	ble.n	8003da2 <_svfprintf_r+0xa12>
 8003d74:	3201      	adds	r2, #1
 8003d76:	4928      	ldr	r1, [pc, #160]	; (8003e18 <_svfprintf_r+0xa88>)
 8003d78:	3010      	adds	r0, #16
 8003d7a:	2a07      	cmp	r2, #7
 8003d7c:	e9cd 2023 	strd	r2, r0, [sp, #140]	; 0x8c
 8003d80:	e9c3 1500 	strd	r1, r5, [r3]
 8003d84:	ddf1      	ble.n	8003d6a <_svfprintf_r+0x9da>
 8003d86:	aa22      	add	r2, sp, #136	; 0x88
 8003d88:	4621      	mov	r1, r4
 8003d8a:	4648      	mov	r0, r9
 8003d8c:	f003 f9fa 	bl	8007184 <__ssprint_r>
 8003d90:	2800      	cmp	r0, #0
 8003d92:	f040 8450 	bne.w	8004636 <_svfprintf_r+0x12a6>
 8003d96:	3e10      	subs	r6, #16
 8003d98:	2e10      	cmp	r6, #16
 8003d9a:	e9dd 2023 	ldrd	r2, r0, [sp, #140]	; 0x8c
 8003d9e:	ab25      	add	r3, sp, #148	; 0x94
 8003da0:	dce8      	bgt.n	8003d74 <_svfprintf_r+0x9e4>
 8003da2:	463c      	mov	r4, r7
 8003da4:	4647      	mov	r7, r8
 8003da6:	4698      	mov	r8, r3
 8003da8:	9b17      	ldr	r3, [sp, #92]	; 0x5c
 8003daa:	4601      	mov	r1, r0
 8003dac:	3201      	adds	r2, #1
 8003dae:	481a      	ldr	r0, [pc, #104]	; (8003e18 <_svfprintf_r+0xa88>)
 8003db0:	f8c8 0000 	str.w	r0, [r8]
 8003db4:	198d      	adds	r5, r1, r6
 8003db6:	2a07      	cmp	r2, #7
 8003db8:	e9cd 2523 	strd	r2, r5, [sp, #140]	; 0x8c
 8003dbc:	f8c8 6004 	str.w	r6, [r8, #4]
 8003dc0:	f300 8427 	bgt.w	8004612 <_svfprintf_r+0x1282>
 8003dc4:	f89d 206b 	ldrb.w	r2, [sp, #107]	; 0x6b
 8003dc8:	f108 0808 	add.w	r8, r8, #8
 8003dcc:	e40c      	b.n	80035e8 <_svfprintf_r+0x258>
 8003dce:	ee19 1a10 	vmov	r1, s18
 8003dd2:	aa22      	add	r2, sp, #136	; 0x88
 8003dd4:	4648      	mov	r0, r9
 8003dd6:	9317      	str	r3, [sp, #92]	; 0x5c
 8003dd8:	f003 f9d4 	bl	8007184 <__ssprint_r>
 8003ddc:	2800      	cmp	r0, #0
 8003dde:	f47f af4f 	bne.w	8003c80 <_svfprintf_r+0x8f0>
 8003de2:	9d24      	ldr	r5, [sp, #144]	; 0x90
 8003de4:	9b17      	ldr	r3, [sp, #92]	; 0x5c
 8003de6:	f10d 0894 	add.w	r8, sp, #148	; 0x94
 8003dea:	e40d      	b.n	8003608 <_svfprintf_r+0x278>
 8003dec:	ee19 1a10 	vmov	r1, s18
 8003df0:	aa22      	add	r2, sp, #136	; 0x88
 8003df2:	4648      	mov	r0, r9
 8003df4:	f003 f9c6 	bl	8007184 <__ssprint_r>
 8003df8:	2800      	cmp	r0, #0
 8003dfa:	f47f af41 	bne.w	8003c80 <_svfprintf_r+0x8f0>
 8003dfe:	9d24      	ldr	r5, [sp, #144]	; 0x90
 8003e00:	f10d 0894 	add.w	r8, sp, #148	; 0x94
 8003e04:	e40f      	b.n	8003626 <_svfprintf_r+0x296>
 8003e06:	2c10      	cmp	r4, #16
 8003e08:	9b23      	ldr	r3, [sp, #140]	; 0x8c
 8003e0a:	dd26      	ble.n	8003e5a <_svfprintf_r+0xaca>
 8003e0c:	ee19 7a10 	vmov	r7, s18
 8003e10:	2610      	movs	r6, #16
 8003e12:	e00a      	b.n	8003e2a <_svfprintf_r+0xa9a>
 8003e14:	08008da0 	.word	0x08008da0
 8003e18:	08008da4 	.word	0x08008da4
 8003e1c:	08008db4 	.word	0x08008db4
 8003e20:	3c10      	subs	r4, #16
 8003e22:	2c10      	cmp	r4, #16
 8003e24:	f108 0808 	add.w	r8, r8, #8
 8003e28:	dd17      	ble.n	8003e5a <_svfprintf_r+0xaca>
 8003e2a:	3301      	adds	r3, #1
 8003e2c:	4aba      	ldr	r2, [pc, #744]	; (8004118 <_svfprintf_r+0xd88>)
 8003e2e:	3510      	adds	r5, #16
 8003e30:	2b07      	cmp	r3, #7
 8003e32:	e9cd 3523 	strd	r3, r5, [sp, #140]	; 0x8c
 8003e36:	e9c8 2600 	strd	r2, r6, [r8]
 8003e3a:	ddf1      	ble.n	8003e20 <_svfprintf_r+0xa90>
 8003e3c:	aa22      	add	r2, sp, #136	; 0x88
 8003e3e:	4639      	mov	r1, r7
 8003e40:	4648      	mov	r0, r9
 8003e42:	f003 f99f 	bl	8007184 <__ssprint_r>
 8003e46:	2800      	cmp	r0, #0
 8003e48:	f040 841e 	bne.w	8004688 <_svfprintf_r+0x12f8>
 8003e4c:	3c10      	subs	r4, #16
 8003e4e:	2c10      	cmp	r4, #16
 8003e50:	e9dd 3523 	ldrd	r3, r5, [sp, #140]	; 0x8c
 8003e54:	f10d 0894 	add.w	r8, sp, #148	; 0x94
 8003e58:	dce7      	bgt.n	8003e2a <_svfprintf_r+0xa9a>
 8003e5a:	3301      	adds	r3, #1
 8003e5c:	4aae      	ldr	r2, [pc, #696]	; (8004118 <_svfprintf_r+0xd88>)
 8003e5e:	f8c8 2000 	str.w	r2, [r8]
 8003e62:	4425      	add	r5, r4
 8003e64:	2b07      	cmp	r3, #7
 8003e66:	e9cd 3523 	strd	r3, r5, [sp, #140]	; 0x8c
 8003e6a:	f8c8 4004 	str.w	r4, [r8, #4]
 8003e6e:	f77f ac00 	ble.w	8003672 <_svfprintf_r+0x2e2>
 8003e72:	ee19 1a10 	vmov	r1, s18
 8003e76:	aa22      	add	r2, sp, #136	; 0x88
 8003e78:	4648      	mov	r0, r9
 8003e7a:	f003 f983 	bl	8007184 <__ssprint_r>
 8003e7e:	2800      	cmp	r0, #0
 8003e80:	f47f aefe 	bne.w	8003c80 <_svfprintf_r+0x8f0>
 8003e84:	9d24      	ldr	r5, [sp, #144]	; 0x90
 8003e86:	f7ff bbf4 	b.w	8003672 <_svfprintf_r+0x2e2>
 8003e8a:	9a1c      	ldr	r2, [sp, #112]	; 0x70
 8003e8c:	2a00      	cmp	r2, #0
 8003e8e:	f340 838a 	ble.w	80045a6 <_svfprintf_r+0x1216>
 8003e92:	e9dd 320b 	ldrd	r3, r2, [sp, #44]	; 0x2c
 8003e96:	4293      	cmp	r3, r2
 8003e98:	bfa8      	it	ge
 8003e9a:	4613      	movge	r3, r2
 8003e9c:	2b00      	cmp	r3, #0
 8003e9e:	461c      	mov	r4, r3
 8003ea0:	dd0d      	ble.n	8003ebe <_svfprintf_r+0xb2e>
 8003ea2:	9b23      	ldr	r3, [sp, #140]	; 0x8c
 8003ea4:	f8c8 7000 	str.w	r7, [r8]
 8003ea8:	3301      	adds	r3, #1
 8003eaa:	4425      	add	r5, r4
 8003eac:	2b07      	cmp	r3, #7
 8003eae:	9524      	str	r5, [sp, #144]	; 0x90
 8003eb0:	f8c8 4004 	str.w	r4, [r8, #4]
 8003eb4:	9323      	str	r3, [sp, #140]	; 0x8c
 8003eb6:	f300 855b 	bgt.w	8004970 <_svfprintf_r+0x15e0>
 8003eba:	f108 0808 	add.w	r8, r8, #8
 8003ebe:	9b0b      	ldr	r3, [sp, #44]	; 0x2c
 8003ec0:	2c00      	cmp	r4, #0
 8003ec2:	bfa8      	it	ge
 8003ec4:	1b1b      	subge	r3, r3, r4
 8003ec6:	2b00      	cmp	r3, #0
 8003ec8:	461c      	mov	r4, r3
 8003eca:	f300 82b3 	bgt.w	8004434 <_svfprintf_r+0x10a4>
 8003ece:	9b0b      	ldr	r3, [sp, #44]	; 0x2c
 8003ed0:	443b      	add	r3, r7
 8003ed2:	469b      	mov	fp, r3
 8003ed4:	9b02      	ldr	r3, [sp, #8]
 8003ed6:	055e      	lsls	r6, r3, #21
 8003ed8:	f100 82d3 	bmi.w	8004482 <_svfprintf_r+0x10f2>
 8003edc:	9b1c      	ldr	r3, [sp, #112]	; 0x70
 8003ede:	9a0c      	ldr	r2, [sp, #48]	; 0x30
 8003ee0:	4293      	cmp	r3, r2
 8003ee2:	db03      	blt.n	8003eec <_svfprintf_r+0xb5c>
 8003ee4:	9a02      	ldr	r2, [sp, #8]
 8003ee6:	07d4      	lsls	r4, r2, #31
 8003ee8:	f140 84c2 	bpl.w	8004870 <_svfprintf_r+0x14e0>
 8003eec:	9a23      	ldr	r2, [sp, #140]	; 0x8c
 8003eee:	9911      	ldr	r1, [sp, #68]	; 0x44
 8003ef0:	f8c8 1000 	str.w	r1, [r8]
 8003ef4:	9910      	ldr	r1, [sp, #64]	; 0x40
 8003ef6:	f8c8 1004 	str.w	r1, [r8, #4]
 8003efa:	3201      	adds	r2, #1
 8003efc:	440d      	add	r5, r1
 8003efe:	2a07      	cmp	r2, #7
 8003f00:	9524      	str	r5, [sp, #144]	; 0x90
 8003f02:	9223      	str	r2, [sp, #140]	; 0x8c
 8003f04:	f300 854f 	bgt.w	80049a6 <_svfprintf_r+0x1616>
 8003f08:	f108 0808 	add.w	r8, r8, #8
 8003f0c:	9a0c      	ldr	r2, [sp, #48]	; 0x30
 8003f0e:	18bc      	adds	r4, r7, r2
 8003f10:	eba4 040b 	sub.w	r4, r4, fp
 8003f14:	1ad3      	subs	r3, r2, r3
 8003f16:	429c      	cmp	r4, r3
 8003f18:	bfa8      	it	ge
 8003f1a:	461c      	movge	r4, r3
 8003f1c:	2c00      	cmp	r4, #0
 8003f1e:	dd0d      	ble.n	8003f3c <_svfprintf_r+0xbac>
 8003f20:	9a23      	ldr	r2, [sp, #140]	; 0x8c
 8003f22:	f8c8 b000 	str.w	fp, [r8]
 8003f26:	3201      	adds	r2, #1
 8003f28:	4425      	add	r5, r4
 8003f2a:	2a07      	cmp	r2, #7
 8003f2c:	9524      	str	r5, [sp, #144]	; 0x90
 8003f2e:	f8c8 4004 	str.w	r4, [r8, #4]
 8003f32:	9223      	str	r2, [sp, #140]	; 0x8c
 8003f34:	f300 865b 	bgt.w	8004bee <_svfprintf_r+0x185e>
 8003f38:	f108 0808 	add.w	r8, r8, #8
 8003f3c:	2c00      	cmp	r4, #0
 8003f3e:	bfac      	ite	ge
 8003f40:	1b1c      	subge	r4, r3, r4
 8003f42:	461c      	movlt	r4, r3
 8003f44:	2c00      	cmp	r4, #0
 8003f46:	f77f ab8b 	ble.w	8003660 <_svfprintf_r+0x2d0>
 8003f4a:	2c10      	cmp	r4, #16
 8003f4c:	9b23      	ldr	r3, [sp, #140]	; 0x8c
 8003f4e:	f8df b1cc 	ldr.w	fp, [pc, #460]	; 800411c <_svfprintf_r+0xd8c>
 8003f52:	f340 839c 	ble.w	800468e <_svfprintf_r+0x12fe>
 8003f56:	465f      	mov	r7, fp
 8003f58:	2610      	movs	r6, #16
 8003f5a:	ee19 ba10 	vmov	fp, s18
 8003f5e:	e005      	b.n	8003f6c <_svfprintf_r+0xbdc>
 8003f60:	f108 0808 	add.w	r8, r8, #8
 8003f64:	3c10      	subs	r4, #16
 8003f66:	2c10      	cmp	r4, #16
 8003f68:	f340 8390 	ble.w	800468c <_svfprintf_r+0x12fc>
 8003f6c:	3301      	adds	r3, #1
 8003f6e:	3510      	adds	r5, #16
 8003f70:	2b07      	cmp	r3, #7
 8003f72:	e9cd 3523 	strd	r3, r5, [sp, #140]	; 0x8c
 8003f76:	e9c8 7600 	strd	r7, r6, [r8]
 8003f7a:	ddf1      	ble.n	8003f60 <_svfprintf_r+0xbd0>
 8003f7c:	aa22      	add	r2, sp, #136	; 0x88
 8003f7e:	4659      	mov	r1, fp
 8003f80:	4648      	mov	r0, r9
 8003f82:	f003 f8ff 	bl	8007184 <__ssprint_r>
 8003f86:	b928      	cbnz	r0, 8003f94 <_svfprintf_r+0xc04>
 8003f88:	e9dd 3523 	ldrd	r3, r5, [sp, #140]	; 0x8c
 8003f8c:	f10d 0894 	add.w	r8, sp, #148	; 0x94
 8003f90:	e7e8      	b.n	8003f64 <_svfprintf_r+0xbd4>
 8003f92:	46ab      	mov	fp, r5
 8003f94:	9b07      	ldr	r3, [sp, #28]
 8003f96:	2b00      	cmp	r3, #0
 8003f98:	f43f ab8a 	beq.w	80036b0 <_svfprintf_r+0x320>
 8003f9c:	9907      	ldr	r1, [sp, #28]
 8003f9e:	4648      	mov	r0, r9
 8003fa0:	f001 ffe8 	bl	8005f74 <_free_r>
 8003fa4:	f7ff bb84 	b.w	80036b0 <_svfprintf_r+0x320>
 8003fa8:	9b02      	ldr	r3, [sp, #8]
 8003faa:	07d8      	lsls	r0, r3, #31
 8003fac:	f53f ae70 	bmi.w	8003c90 <_svfprintf_r+0x900>
 8003fb0:	3401      	adds	r4, #1
 8003fb2:	3501      	adds	r5, #1
 8003fb4:	2301      	movs	r3, #1
 8003fb6:	2c07      	cmp	r4, #7
 8003fb8:	e9cd 4523 	strd	r4, r5, [sp, #140]	; 0x8c
 8003fbc:	f8c8 7000 	str.w	r7, [r8]
 8003fc0:	f8c8 3004 	str.w	r3, [r8, #4]
 8003fc4:	f77f ae96 	ble.w	8003cf4 <_svfprintf_r+0x964>
 8003fc8:	ee19 1a10 	vmov	r1, s18
 8003fcc:	aa22      	add	r2, sp, #136	; 0x88
 8003fce:	4648      	mov	r0, r9
 8003fd0:	f003 f8d8 	bl	8007184 <__ssprint_r>
 8003fd4:	2800      	cmp	r0, #0
 8003fd6:	f47f ae53 	bne.w	8003c80 <_svfprintf_r+0x8f0>
 8003fda:	e9dd 4523 	ldrd	r4, r5, [sp, #140]	; 0x8c
 8003fde:	f10d 0894 	add.w	r8, sp, #148	; 0x94
 8003fe2:	e689      	b.n	8003cf8 <_svfprintf_r+0x968>
 8003fe4:	1e5e      	subs	r6, r3, #1
 8003fe6:	2e00      	cmp	r6, #0
 8003fe8:	f77f ae86 	ble.w	8003cf8 <_svfprintf_r+0x968>
 8003fec:	2e10      	cmp	r6, #16
 8003fee:	f8df b12c 	ldr.w	fp, [pc, #300]	; 800411c <_svfprintf_r+0xd8c>
 8003ff2:	f340 83bd 	ble.w	8004770 <_svfprintf_r+0x13e0>
 8003ff6:	f8cd a00c 	str.w	sl, [sp, #12]
 8003ffa:	2710      	movs	r7, #16
 8003ffc:	ee19 aa10 	vmov	sl, s18
 8004000:	e005      	b.n	800400e <_svfprintf_r+0xc7e>
 8004002:	f108 0808 	add.w	r8, r8, #8
 8004006:	3e10      	subs	r6, #16
 8004008:	2e10      	cmp	r6, #16
 800400a:	f340 83af 	ble.w	800476c <_svfprintf_r+0x13dc>
 800400e:	3401      	adds	r4, #1
 8004010:	3510      	adds	r5, #16
 8004012:	2c07      	cmp	r4, #7
 8004014:	e9cd 4523 	strd	r4, r5, [sp, #140]	; 0x8c
 8004018:	e9c8 b700 	strd	fp, r7, [r8]
 800401c:	ddf1      	ble.n	8004002 <_svfprintf_r+0xc72>
 800401e:	aa22      	add	r2, sp, #136	; 0x88
 8004020:	4651      	mov	r1, sl
 8004022:	4648      	mov	r0, r9
 8004024:	f003 f8ae 	bl	8007184 <__ssprint_r>
 8004028:	2800      	cmp	r0, #0
 800402a:	f040 85ff 	bne.w	8004c2c <_svfprintf_r+0x189c>
 800402e:	e9dd 4523 	ldrd	r4, r5, [sp, #140]	; 0x8c
 8004032:	f10d 0894 	add.w	r8, sp, #148	; 0x94
 8004036:	e7e6      	b.n	8004006 <_svfprintf_r+0xc76>
 8004038:	ee19 1a10 	vmov	r1, s18
 800403c:	aa22      	add	r2, sp, #136	; 0x88
 800403e:	4648      	mov	r0, r9
 8004040:	f003 f8a0 	bl	8007184 <__ssprint_r>
 8004044:	2800      	cmp	r0, #0
 8004046:	f47f ae1b 	bne.w	8003c80 <_svfprintf_r+0x8f0>
 800404a:	9d24      	ldr	r5, [sp, #144]	; 0x90
 800404c:	f10d 0894 	add.w	r8, sp, #148	; 0x94
 8004050:	f7ff baf3 	b.w	800363a <_svfprintf_r+0x2aa>
 8004054:	9a08      	ldr	r2, [sp, #32]
 8004056:	06ee      	lsls	r6, r5, #27
 8004058:	f852 1b04 	ldr.w	r1, [r2], #4
 800405c:	9208      	str	r2, [sp, #32]
 800405e:	f04f 0301 	mov.w	r3, #1
 8004062:	d443      	bmi.n	80040ec <_svfprintf_r+0xd5c>
 8004064:	0668      	lsls	r0, r5, #25
 8004066:	d53e      	bpl.n	80040e6 <_svfprintf_r+0xd56>
 8004068:	fa1f fa81 	uxth.w	sl, r1
 800406c:	f04f 0b00 	mov.w	fp, #0
 8004070:	f7ff bbff 	b.w	8003872 <_svfprintf_r+0x4e2>
 8004074:	9b02      	ldr	r3, [sp, #8]
 8004076:	06da      	lsls	r2, r3, #27
 8004078:	f100 8118 	bmi.w	80042ac <_svfprintf_r+0xf1c>
 800407c:	9b02      	ldr	r3, [sp, #8]
 800407e:	065b      	lsls	r3, r3, #25
 8004080:	f140 8389 	bpl.w	8004796 <_svfprintf_r+0x1406>
 8004084:	9b08      	ldr	r3, [sp, #32]
 8004086:	f853 2b04 	ldr.w	r2, [r3], #4
 800408a:	9308      	str	r3, [sp, #32]
 800408c:	fa1f fa82 	uxth.w	sl, r2
 8004090:	f04f 0b00 	mov.w	fp, #0
 8004094:	f7ff bbe9 	b.w	800386a <_svfprintf_r+0x4da>
 8004098:	ee19 1a10 	vmov	r1, s18
 800409c:	aa22      	add	r2, sp, #136	; 0x88
 800409e:	4648      	mov	r0, r9
 80040a0:	f003 f870 	bl	8007184 <__ssprint_r>
 80040a4:	2800      	cmp	r0, #0
 80040a6:	f47f adeb 	bne.w	8003c80 <_svfprintf_r+0x8f0>
 80040aa:	e9dd 4523 	ldrd	r4, r5, [sp, #140]	; 0x8c
 80040ae:	f10d 0894 	add.w	r8, sp, #148	; 0x94
 80040b2:	e5fb      	b.n	8003cac <_svfprintf_r+0x91c>
 80040b4:	ee19 1a10 	vmov	r1, s18
 80040b8:	aa22      	add	r2, sp, #136	; 0x88
 80040ba:	4648      	mov	r0, r9
 80040bc:	f003 f862 	bl	8007184 <__ssprint_r>
 80040c0:	2800      	cmp	r0, #0
 80040c2:	f47f addd 	bne.w	8003c80 <_svfprintf_r+0x8f0>
 80040c6:	e9dd 4523 	ldrd	r4, r5, [sp, #140]	; 0x8c
 80040ca:	f10d 0894 	add.w	r8, sp, #148	; 0x94
 80040ce:	e5fa      	b.n	8003cc6 <_svfprintf_r+0x936>
 80040d0:	9b02      	ldr	r3, [sp, #8]
 80040d2:	07df      	lsls	r7, r3, #31
 80040d4:	f57f aac4 	bpl.w	8003660 <_svfprintf_r+0x2d0>
 80040d8:	e509      	b.n	8003aee <_svfprintf_r+0x75e>
 80040da:	7834      	ldrb	r4, [r6, #0]
 80040dc:	9308      	str	r3, [sp, #32]
 80040de:	f7ff b9a5 	b.w	800342c <_svfprintf_r+0x9c>
 80040e2:	af4e      	add	r7, sp, #312	; 0x138
 80040e4:	e4b5      	b.n	8003a52 <_svfprintf_r+0x6c2>
 80040e6:	05aa      	lsls	r2, r5, #22
 80040e8:	f100 83d4 	bmi.w	8004894 <_svfprintf_r+0x1504>
 80040ec:	468a      	mov	sl, r1
 80040ee:	f04f 0b00 	mov.w	fp, #0
 80040f2:	f7ff bbbe 	b.w	8003872 <_svfprintf_r+0x4e2>
 80040f6:	9b02      	ldr	r3, [sp, #8]
 80040f8:	0659      	lsls	r1, r3, #25
 80040fa:	f140 8369 	bpl.w	80047d0 <_svfprintf_r+0x1440>
 80040fe:	9b08      	ldr	r3, [sp, #32]
 8004100:	f853 2b04 	ldr.w	r2, [r3], #4
 8004104:	9308      	str	r3, [sp, #32]
 8004106:	fa0f fa82 	sxth.w	sl, r2
 800410a:	ea4f 7bea 	mov.w	fp, sl, asr #31
 800410e:	4652      	mov	r2, sl
 8004110:	465b      	mov	r3, fp
 8004112:	f7ff bb6b 	b.w	80037ec <_svfprintf_r+0x45c>
 8004116:	bf00      	nop
 8004118:	08008da4 	.word	0x08008da4
 800411c:	08008db4 	.word	0x08008db4
 8004120:	e9dd 010e 	ldrd	r0, r1, [sp, #56]	; 0x38
 8004124:	4602      	mov	r2, r0
 8004126:	460b      	mov	r3, r1
 8004128:	f004 f802 	bl	8008130 <__aeabi_dcmpun>
 800412c:	4605      	mov	r5, r0
 800412e:	2800      	cmp	r0, #0
 8004130:	f040 860f 	bne.w	8004d52 <_svfprintf_r+0x19c2>
 8004134:	2c61      	cmp	r4, #97	; 0x61
 8004136:	f000 85c4 	beq.w	8004cc2 <_svfprintf_r+0x1932>
 800413a:	2c41      	cmp	r4, #65	; 0x41
 800413c:	f000 84ad 	beq.w	8004a9a <_svfprintf_r+0x170a>
 8004140:	9b03      	ldr	r3, [sp, #12]
 8004142:	f024 0620 	bic.w	r6, r4, #32
 8004146:	1c5a      	adds	r2, r3, #1
 8004148:	9606      	str	r6, [sp, #24]
 800414a:	f000 83c6 	beq.w	80048da <_svfprintf_r+0x154a>
 800414e:	2e47      	cmp	r6, #71	; 0x47
 8004150:	f000 85bc 	beq.w	8004ccc <_svfprintf_r+0x193c>
 8004154:	e9dd 010e 	ldrd	r0, r1, [sp, #56]	; 0x38
 8004158:	9a02      	ldr	r2, [sp, #8]
 800415a:	2900      	cmp	r1, #0
 800415c:	f442 7280 	orr.w	r2, r2, #256	; 0x100
 8004160:	920a      	str	r2, [sp, #40]	; 0x28
 8004162:	f04f 0300 	mov.w	r3, #0
 8004166:	f2c0 85d2 	blt.w	8004d0e <_svfprintf_r+0x197e>
 800416a:	ec41 0b18 	vmov	d8, r0, r1
 800416e:	9317      	str	r3, [sp, #92]	; 0x5c
 8004170:	9307      	str	r3, [sp, #28]
 8004172:	2e46      	cmp	r6, #70	; 0x46
 8004174:	f000 8443 	beq.w	80049fe <_svfprintf_r+0x166e>
 8004178:	2e45      	cmp	r6, #69	; 0x45
 800417a:	f040 8423 	bne.w	80049c4 <_svfprintf_r+0x1634>
 800417e:	eeb0 0a48 	vmov.f32	s0, s16
 8004182:	eef0 0a68 	vmov.f32	s1, s17
 8004186:	9b03      	ldr	r3, [sp, #12]
 8004188:	a920      	add	r1, sp, #128	; 0x80
 800418a:	1c5d      	adds	r5, r3, #1
 800418c:	ab1d      	add	r3, sp, #116	; 0x74
 800418e:	e9cd 3100 	strd	r3, r1, [sp]
 8004192:	462a      	mov	r2, r5
 8004194:	ab1c      	add	r3, sp, #112	; 0x70
 8004196:	2102      	movs	r1, #2
 8004198:	4648      	mov	r0, r9
 800419a:	f000 ff25 	bl	8004fe8 <_dtoa_r>
 800419e:	4607      	mov	r7, r0
 80041a0:	4405      	add	r5, r0
 80041a2:	9b0a      	ldr	r3, [sp, #40]	; 0x28
 80041a4:	f8dd b008 	ldr.w	fp, [sp, #8]
 80041a8:	9302      	str	r3, [sp, #8]
 80041aa:	ec51 0b18 	vmov	r0, r1, d8
 80041ae:	2200      	movs	r2, #0
 80041b0:	2300      	movs	r3, #0
 80041b2:	f003 ff8b 	bl	80080cc <__aeabi_dcmpeq>
 80041b6:	2800      	cmp	r0, #0
 80041b8:	f000 83ce 	beq.w	8004958 <_svfprintf_r+0x15c8>
 80041bc:	462b      	mov	r3, r5
 80041be:	1bdb      	subs	r3, r3, r7
 80041c0:	930c      	str	r3, [sp, #48]	; 0x30
 80041c2:	9b06      	ldr	r3, [sp, #24]
 80041c4:	2b47      	cmp	r3, #71	; 0x47
 80041c6:	f000 8399 	beq.w	80048fc <_svfprintf_r+0x156c>
 80041ca:	9b06      	ldr	r3, [sp, #24]
 80041cc:	2b46      	cmp	r3, #70	; 0x46
 80041ce:	f000 8444 	beq.w	8004a5a <_svfprintf_r+0x16ca>
 80041d2:	9b1c      	ldr	r3, [sp, #112]	; 0x70
 80041d4:	930b      	str	r3, [sp, #44]	; 0x2c
 80041d6:	9b0b      	ldr	r3, [sp, #44]	; 0x2c
 80041d8:	9a06      	ldr	r2, [sp, #24]
 80041da:	3b01      	subs	r3, #1
 80041dc:	2a41      	cmp	r2, #65	; 0x41
 80041de:	931c      	str	r3, [sp, #112]	; 0x70
 80041e0:	f000 85b1 	beq.w	8004d46 <_svfprintf_r+0x19b6>
 80041e4:	b2e2      	uxtb	r2, r4
 80041e6:	2100      	movs	r1, #0
 80041e8:	2b00      	cmp	r3, #0
 80041ea:	bfb8      	it	lt
 80041ec:	9b0b      	ldrlt	r3, [sp, #44]	; 0x2c
 80041ee:	f88d 2078 	strb.w	r2, [sp, #120]	; 0x78
 80041f2:	bfba      	itte	lt
 80041f4:	f1c3 0301 	rsblt	r3, r3, #1
 80041f8:	222d      	movlt	r2, #45	; 0x2d
 80041fa:	222b      	movge	r2, #43	; 0x2b
 80041fc:	2b09      	cmp	r3, #9
 80041fe:	f88d 2079 	strb.w	r2, [sp, #121]	; 0x79
 8004202:	f340 85b9 	ble.w	8004d78 <_svfprintf_r+0x19e8>
 8004206:	f10d 0e87 	add.w	lr, sp, #135	; 0x87
 800420a:	f8df c45c 	ldr.w	ip, [pc, #1116]	; 8004668 <_svfprintf_r+0x12d8>
 800420e:	4675      	mov	r5, lr
 8004210:	fb8c 2103 	smull	r2, r1, ip, r3
 8004214:	17da      	asrs	r2, r3, #31
 8004216:	ebc2 02a1 	rsb	r2, r2, r1, asr #2
 800421a:	eb02 0182 	add.w	r1, r2, r2, lsl #2
 800421e:	eba3 0141 	sub.w	r1, r3, r1, lsl #1
 8004222:	461e      	mov	r6, r3
 8004224:	3130      	adds	r1, #48	; 0x30
 8004226:	2e63      	cmp	r6, #99	; 0x63
 8004228:	4628      	mov	r0, r5
 800422a:	f805 1c01 	strb.w	r1, [r5, #-1]
 800422e:	4613      	mov	r3, r2
 8004230:	f105 35ff 	add.w	r5, r5, #4294967295	; 0xffffffff
 8004234:	dcec      	bgt.n	8004210 <_svfprintf_r+0xe80>
 8004236:	3330      	adds	r3, #48	; 0x30
 8004238:	b2da      	uxtb	r2, r3
 800423a:	1e83      	subs	r3, r0, #2
 800423c:	459e      	cmp	lr, r3
 800423e:	4629      	mov	r1, r5
 8004240:	f805 2c01 	strb.w	r2, [r5, #-1]
 8004244:	f240 863b 	bls.w	8004ebe <_svfprintf_r+0x1b2e>
 8004248:	f10d 037a 	add.w	r3, sp, #122	; 0x7a
 800424c:	e001      	b.n	8004252 <_svfprintf_r+0xec2>
 800424e:	f811 2b01 	ldrb.w	r2, [r1], #1
 8004252:	f803 2b01 	strb.w	r2, [r3], #1
 8004256:	458e      	cmp	lr, r1
 8004258:	d1f9      	bne.n	800424e <_svfprintf_r+0xebe>
 800425a:	f10d 0389 	add.w	r3, sp, #137	; 0x89
 800425e:	f10d 027a 	add.w	r2, sp, #122	; 0x7a
 8004262:	1a1b      	subs	r3, r3, r0
 8004264:	4413      	add	r3, r2
 8004266:	aa1e      	add	r2, sp, #120	; 0x78
 8004268:	1a9b      	subs	r3, r3, r2
 800426a:	9314      	str	r3, [sp, #80]	; 0x50
 800426c:	9b0c      	ldr	r3, [sp, #48]	; 0x30
 800426e:	9a14      	ldr	r2, [sp, #80]	; 0x50
 8004270:	2b01      	cmp	r3, #1
 8004272:	441a      	add	r2, r3
 8004274:	9206      	str	r2, [sp, #24]
 8004276:	f340 85e3 	ble.w	8004e40 <_svfprintf_r+0x1ab0>
 800427a:	9b06      	ldr	r3, [sp, #24]
 800427c:	9a10      	ldr	r2, [sp, #64]	; 0x40
 800427e:	4413      	add	r3, r2
 8004280:	9306      	str	r3, [sp, #24]
 8004282:	2300      	movs	r3, #0
 8004284:	f42b 6680 	bic.w	r6, fp, #1024	; 0x400
 8004288:	930a      	str	r3, [sp, #40]	; 0x28
 800428a:	930d      	str	r3, [sp, #52]	; 0x34
 800428c:	930b      	str	r3, [sp, #44]	; 0x2c
 800428e:	9b06      	ldr	r3, [sp, #24]
 8004290:	f446 7280 	orr.w	r2, r6, #256	; 0x100
 8004294:	9202      	str	r2, [sp, #8]
 8004296:	ea23 7ae3 	bic.w	sl, r3, r3, asr #31
 800429a:	9b17      	ldr	r3, [sp, #92]	; 0x5c
 800429c:	2b00      	cmp	r3, #0
 800429e:	f040 8354 	bne.w	800494a <_svfprintf_r+0x15ba>
 80042a2:	f89d 206b 	ldrb.w	r2, [sp, #107]	; 0x6b
 80042a6:	9303      	str	r3, [sp, #12]
 80042a8:	f7ff ba57 	b.w	800375a <_svfprintf_r+0x3ca>
 80042ac:	9b08      	ldr	r3, [sp, #32]
 80042ae:	f853 2b04 	ldr.w	r2, [r3], #4
 80042b2:	9308      	str	r3, [sp, #32]
 80042b4:	4692      	mov	sl, r2
 80042b6:	f04f 0b00 	mov.w	fp, #0
 80042ba:	f7ff bad6 	b.w	800386a <_svfprintf_r+0x4da>
 80042be:	9b08      	ldr	r3, [sp, #32]
 80042c0:	f853 1b04 	ldr.w	r1, [r3], #4
 80042c4:	9308      	str	r3, [sp, #32]
 80042c6:	9b04      	ldr	r3, [sp, #16]
 80042c8:	17dd      	asrs	r5, r3, #31
 80042ca:	461a      	mov	r2, r3
 80042cc:	462b      	mov	r3, r5
 80042ce:	e9c1 2300 	strd	r2, r3, [r1]
 80042d2:	f7ff b9e2 	b.w	800369a <_svfprintf_r+0x30a>
 80042d6:	f1bb 0f00 	cmp.w	fp, #0
 80042da:	bf08      	it	eq
 80042dc:	f1ba 0f0a 	cmpeq.w	sl, #10
 80042e0:	9d02      	ldr	r5, [sp, #8]
 80042e2:	f4ff ad2b 	bcc.w	8003d3c <_svfprintf_r+0x9ac>
 80042e6:	f405 6680 	and.w	r6, r5, #1024	; 0x400
 80042ea:	2300      	movs	r3, #0
 80042ec:	9502      	str	r5, [sp, #8]
 80042ee:	f8cd 8018 	str.w	r8, [sp, #24]
 80042f2:	9d13      	ldr	r5, [sp, #76]	; 0x4c
 80042f4:	46a0      	mov	r8, r4
 80042f6:	af4e      	add	r7, sp, #312	; 0x138
 80042f8:	4634      	mov	r4, r6
 80042fa:	461e      	mov	r6, r3
 80042fc:	e009      	b.n	8004312 <_svfprintf_r+0xf82>
 80042fe:	f003 ff55 	bl	80081ac <__aeabi_uldivmod>
 8004302:	f1bb 0f00 	cmp.w	fp, #0
 8004306:	bf08      	it	eq
 8004308:	f1ba 0f0a 	cmpeq.w	sl, #10
 800430c:	d31f      	bcc.n	800434e <_svfprintf_r+0xfbe>
 800430e:	4682      	mov	sl, r0
 8004310:	468b      	mov	fp, r1
 8004312:	220a      	movs	r2, #10
 8004314:	2300      	movs	r3, #0
 8004316:	4650      	mov	r0, sl
 8004318:	4659      	mov	r1, fp
 800431a:	f003 ff47 	bl	80081ac <__aeabi_uldivmod>
 800431e:	4694      	mov	ip, r2
 8004320:	f10c 0c30 	add.w	ip, ip, #48	; 0x30
 8004324:	f807 cc01 	strb.w	ip, [r7, #-1]
 8004328:	4650      	mov	r0, sl
 800432a:	4659      	mov	r1, fp
 800432c:	220a      	movs	r2, #10
 800432e:	2300      	movs	r3, #0
 8004330:	3601      	adds	r6, #1
 8004332:	3f01      	subs	r7, #1
 8004334:	2c00      	cmp	r4, #0
 8004336:	d0e2      	beq.n	80042fe <_svfprintf_r+0xf6e>
 8004338:	f895 c000 	ldrb.w	ip, [r5]
 800433c:	4566      	cmp	r6, ip
 800433e:	d1de      	bne.n	80042fe <_svfprintf_r+0xf6e>
 8004340:	2eff      	cmp	r6, #255	; 0xff
 8004342:	d0dc      	beq.n	80042fe <_svfprintf_r+0xf6e>
 8004344:	459b      	cmp	fp, r3
 8004346:	bf08      	it	eq
 8004348:	4592      	cmpeq	sl, r2
 800434a:	f080 8267 	bcs.w	800481c <_svfprintf_r+0x148c>
 800434e:	ab4e      	add	r3, sp, #312	; 0x138
 8004350:	1bdb      	subs	r3, r3, r7
 8004352:	4644      	mov	r4, r8
 8004354:	9513      	str	r5, [sp, #76]	; 0x4c
 8004356:	f8dd 8018 	ldr.w	r8, [sp, #24]
 800435a:	960c      	str	r6, [sp, #48]	; 0x30
 800435c:	9306      	str	r3, [sp, #24]
 800435e:	f7ff bb78 	b.w	8003a52 <_svfprintf_r+0x6c2>
 8004362:	4bbc      	ldr	r3, [pc, #752]	; (8004654 <_svfprintf_r+0x12c4>)
 8004364:	9609      	str	r6, [sp, #36]	; 0x24
 8004366:	9312      	str	r3, [sp, #72]	; 0x48
 8004368:	9b02      	ldr	r3, [sp, #8]
 800436a:	069f      	lsls	r7, r3, #26
 800436c:	f140 8105 	bpl.w	800457a <_svfprintf_r+0x11ea>
 8004370:	9b08      	ldr	r3, [sp, #32]
 8004372:	3307      	adds	r3, #7
 8004374:	f023 0307 	bic.w	r3, r3, #7
 8004378:	e8f3 ab02 	ldrd	sl, fp, [r3], #8
 800437c:	9308      	str	r3, [sp, #32]
 800437e:	9a02      	ldr	r2, [sp, #8]
 8004380:	07d0      	lsls	r0, r2, #31
 8004382:	d50a      	bpl.n	800439a <_svfprintf_r+0x100a>
 8004384:	ea5a 030b 	orrs.w	r3, sl, fp
 8004388:	d007      	beq.n	800439a <_svfprintf_r+0x100a>
 800438a:	2330      	movs	r3, #48	; 0x30
 800438c:	f042 0202 	orr.w	r2, r2, #2
 8004390:	f88d 406d 	strb.w	r4, [sp, #109]	; 0x6d
 8004394:	9202      	str	r2, [sp, #8]
 8004396:	f88d 306c 	strb.w	r3, [sp, #108]	; 0x6c
 800439a:	9b02      	ldr	r3, [sp, #8]
 800439c:	f423 6580 	bic.w	r5, r3, #1024	; 0x400
 80043a0:	2302      	movs	r3, #2
 80043a2:	f7ff ba66 	b.w	8003872 <_svfprintf_r+0x4e2>
 80043a6:	9609      	str	r6, [sp, #36]	; 0x24
 80043a8:	f7ff ba54 	b.w	8003854 <_svfprintf_r+0x4c4>
 80043ac:	9d02      	ldr	r5, [sp, #8]
 80043ae:	9609      	str	r6, [sp, #36]	; 0x24
 80043b0:	f7ff bac0 	b.w	8003934 <_svfprintf_r+0x5a4>
 80043b4:	4ba8      	ldr	r3, [pc, #672]	; (8004658 <_svfprintf_r+0x12c8>)
 80043b6:	9609      	str	r6, [sp, #36]	; 0x24
 80043b8:	9312      	str	r3, [sp, #72]	; 0x48
 80043ba:	e7d5      	b.n	8004368 <_svfprintf_r+0xfd8>
 80043bc:	ee19 1a10 	vmov	r1, s18
 80043c0:	aa22      	add	r2, sp, #136	; 0x88
 80043c2:	4648      	mov	r0, r9
 80043c4:	f002 fede 	bl	8007184 <__ssprint_r>
 80043c8:	2800      	cmp	r0, #0
 80043ca:	f47f ac59 	bne.w	8003c80 <_svfprintf_r+0x8f0>
 80043ce:	9d24      	ldr	r5, [sp, #144]	; 0x90
 80043d0:	f10d 0894 	add.w	r8, sp, #148	; 0x94
 80043d4:	f7ff bb9b 	b.w	8003b0e <_svfprintf_r+0x77e>
 80043d8:	f043 0320 	orr.w	r3, r3, #32
 80043dc:	7874      	ldrb	r4, [r6, #1]
 80043de:	9302      	str	r3, [sp, #8]
 80043e0:	3601      	adds	r6, #1
 80043e2:	f7ff b823 	b.w	800342c <_svfprintf_r+0x9c>
 80043e6:	f443 7300 	orr.w	r3, r3, #512	; 0x200
 80043ea:	7874      	ldrb	r4, [r6, #1]
 80043ec:	9302      	str	r3, [sp, #8]
 80043ee:	3601      	adds	r6, #1
 80043f0:	f7ff b81c 	b.w	800342c <_svfprintf_r+0x9c>
 80043f4:	2140      	movs	r1, #64	; 0x40
 80043f6:	4648      	mov	r0, r9
 80043f8:	f001 fec4 	bl	8006184 <_malloc_r>
 80043fc:	f8cb 0000 	str.w	r0, [fp]
 8004400:	f8cb 0010 	str.w	r0, [fp, #16]
 8004404:	2800      	cmp	r0, #0
 8004406:	f000 8544 	beq.w	8004e92 <_svfprintf_r+0x1b02>
 800440a:	2340      	movs	r3, #64	; 0x40
 800440c:	f8cb 3014 	str.w	r3, [fp, #20]
 8004410:	f7fe bfd8 	b.w	80033c4 <_svfprintf_r+0x34>
 8004414:	9b03      	ldr	r3, [sp, #12]
 8004416:	970a      	str	r7, [sp, #40]	; 0x28
 8004418:	2b06      	cmp	r3, #6
 800441a:	bf28      	it	cs
 800441c:	2306      	movcs	r3, #6
 800441e:	9703      	str	r7, [sp, #12]
 8004420:	970d      	str	r7, [sp, #52]	; 0x34
 8004422:	970b      	str	r7, [sp, #44]	; 0x2c
 8004424:	9707      	str	r7, [sp, #28]
 8004426:	463a      	mov	r2, r7
 8004428:	469a      	mov	sl, r3
 800442a:	4f8c      	ldr	r7, [pc, #560]	; (800465c <_svfprintf_r+0x12cc>)
 800442c:	9508      	str	r5, [sp, #32]
 800442e:	9306      	str	r3, [sp, #24]
 8004430:	f7ff b993 	b.w	800375a <_svfprintf_r+0x3ca>
 8004434:	2c10      	cmp	r4, #16
 8004436:	9b23      	ldr	r3, [sp, #140]	; 0x8c
 8004438:	f8df b224 	ldr.w	fp, [pc, #548]	; 8004660 <_svfprintf_r+0x12d0>
 800443c:	f340 81db 	ble.w	80047f6 <_svfprintf_r+0x1466>
 8004440:	462a      	mov	r2, r5
 8004442:	2610      	movs	r6, #16
 8004444:	465d      	mov	r5, fp
 8004446:	ee19 ba10 	vmov	fp, s18
 800444a:	e005      	b.n	8004458 <_svfprintf_r+0x10c8>
 800444c:	f108 0808 	add.w	r8, r8, #8
 8004450:	3c10      	subs	r4, #16
 8004452:	2c10      	cmp	r4, #16
 8004454:	f340 81cd 	ble.w	80047f2 <_svfprintf_r+0x1462>
 8004458:	3301      	adds	r3, #1
 800445a:	3210      	adds	r2, #16
 800445c:	2b07      	cmp	r3, #7
 800445e:	e9cd 3223 	strd	r3, r2, [sp, #140]	; 0x8c
 8004462:	e9c8 5600 	strd	r5, r6, [r8]
 8004466:	ddf1      	ble.n	800444c <_svfprintf_r+0x10bc>
 8004468:	aa22      	add	r2, sp, #136	; 0x88
 800446a:	4659      	mov	r1, fp
 800446c:	4648      	mov	r0, r9
 800446e:	f002 fe89 	bl	8007184 <__ssprint_r>
 8004472:	2800      	cmp	r0, #0
 8004474:	f47f ad8e 	bne.w	8003f94 <_svfprintf_r+0xc04>
 8004478:	e9dd 3223 	ldrd	r3, r2, [sp, #140]	; 0x8c
 800447c:	f10d 0894 	add.w	r8, sp, #148	; 0x94
 8004480:	e7e6      	b.n	8004450 <_svfprintf_r+0x10c0>
 8004482:	9b0c      	ldr	r3, [sp, #48]	; 0x30
 8004484:	f8cd a018 	str.w	sl, [sp, #24]
 8004488:	465e      	mov	r6, fp
 800448a:	f8dd b034 	ldr.w	fp, [sp, #52]	; 0x34
 800448e:	970b      	str	r7, [sp, #44]	; 0x2c
 8004490:	18fb      	adds	r3, r7, r3
 8004492:	9303      	str	r3, [sp, #12]
 8004494:	4642      	mov	r2, r8
 8004496:	f8dd a058 	ldr.w	sl, [sp, #88]	; 0x58
 800449a:	9f13      	ldr	r7, [sp, #76]	; 0x4c
 800449c:	9b0a      	ldr	r3, [sp, #40]	; 0x28
 800449e:	ee19 8a10 	vmov	r8, s18
 80044a2:	4628      	mov	r0, r5
 80044a4:	f1bb 0f00 	cmp.w	fp, #0
 80044a8:	d02f      	beq.n	800450a <_svfprintf_r+0x117a>
 80044aa:	2b00      	cmp	r3, #0
 80044ac:	d130      	bne.n	8004510 <_svfprintf_r+0x1180>
 80044ae:	3f01      	subs	r7, #1
 80044b0:	f10b 3bff 	add.w	fp, fp, #4294967295	; 0xffffffff
 80044b4:	9b23      	ldr	r3, [sp, #140]	; 0x8c
 80044b6:	9915      	ldr	r1, [sp, #84]	; 0x54
 80044b8:	6011      	str	r1, [r2, #0]
 80044ba:	3301      	adds	r3, #1
 80044bc:	4450      	add	r0, sl
 80044be:	2b07      	cmp	r3, #7
 80044c0:	9024      	str	r0, [sp, #144]	; 0x90
 80044c2:	f8c2 a004 	str.w	sl, [r2, #4]
 80044c6:	9323      	str	r3, [sp, #140]	; 0x8c
 80044c8:	dc62      	bgt.n	8004590 <_svfprintf_r+0x1200>
 80044ca:	3208      	adds	r2, #8
 80044cc:	9903      	ldr	r1, [sp, #12]
 80044ce:	783b      	ldrb	r3, [r7, #0]
 80044d0:	1b8c      	subs	r4, r1, r6
 80044d2:	429c      	cmp	r4, r3
 80044d4:	bfa8      	it	ge
 80044d6:	461c      	movge	r4, r3
 80044d8:	2c00      	cmp	r4, #0
 80044da:	dd0b      	ble.n	80044f4 <_svfprintf_r+0x1164>
 80044dc:	9b23      	ldr	r3, [sp, #140]	; 0x8c
 80044de:	6016      	str	r6, [r2, #0]
 80044e0:	3301      	adds	r3, #1
 80044e2:	4420      	add	r0, r4
 80044e4:	2b07      	cmp	r3, #7
 80044e6:	9024      	str	r0, [sp, #144]	; 0x90
 80044e8:	6054      	str	r4, [r2, #4]
 80044ea:	9323      	str	r3, [sp, #140]	; 0x8c
 80044ec:	f300 80dc 	bgt.w	80046a8 <_svfprintf_r+0x1318>
 80044f0:	783b      	ldrb	r3, [r7, #0]
 80044f2:	3208      	adds	r2, #8
 80044f4:	2c00      	cmp	r4, #0
 80044f6:	bfac      	ite	ge
 80044f8:	1b1c      	subge	r4, r3, r4
 80044fa:	461c      	movlt	r4, r3
 80044fc:	2c00      	cmp	r4, #0
 80044fe:	dc0b      	bgt.n	8004518 <_svfprintf_r+0x1188>
 8004500:	441e      	add	r6, r3
 8004502:	9b0a      	ldr	r3, [sp, #40]	; 0x28
 8004504:	f1bb 0f00 	cmp.w	fp, #0
 8004508:	d1cf      	bne.n	80044aa <_svfprintf_r+0x111a>
 800450a:	2b00      	cmp	r3, #0
 800450c:	f000 81e8 	beq.w	80048e0 <_svfprintf_r+0x1550>
 8004510:	9b0a      	ldr	r3, [sp, #40]	; 0x28
 8004512:	3b01      	subs	r3, #1
 8004514:	930a      	str	r3, [sp, #40]	; 0x28
 8004516:	e7cd      	b.n	80044b4 <_svfprintf_r+0x1124>
 8004518:	2c10      	cmp	r4, #16
 800451a:	9923      	ldr	r1, [sp, #140]	; 0x8c
 800451c:	dd1f      	ble.n	800455e <_svfprintf_r+0x11ce>
 800451e:	2510      	movs	r5, #16
 8004520:	460b      	mov	r3, r1
 8004522:	e004      	b.n	800452e <_svfprintf_r+0x119e>
 8004524:	3c10      	subs	r4, #16
 8004526:	2c10      	cmp	r4, #16
 8004528:	f102 0208 	add.w	r2, r2, #8
 800452c:	dd16      	ble.n	800455c <_svfprintf_r+0x11cc>
 800452e:	3301      	adds	r3, #1
 8004530:	494b      	ldr	r1, [pc, #300]	; (8004660 <_svfprintf_r+0x12d0>)
 8004532:	3010      	adds	r0, #16
 8004534:	2b07      	cmp	r3, #7
 8004536:	e9cd 3023 	strd	r3, r0, [sp, #140]	; 0x8c
 800453a:	e9c2 1500 	strd	r1, r5, [r2]
 800453e:	ddf1      	ble.n	8004524 <_svfprintf_r+0x1194>
 8004540:	aa22      	add	r2, sp, #136	; 0x88
 8004542:	4641      	mov	r1, r8
 8004544:	4648      	mov	r0, r9
 8004546:	f002 fe1d 	bl	8007184 <__ssprint_r>
 800454a:	2800      	cmp	r0, #0
 800454c:	f040 8186 	bne.w	800485c <_svfprintf_r+0x14cc>
 8004550:	3c10      	subs	r4, #16
 8004552:	2c10      	cmp	r4, #16
 8004554:	e9dd 3023 	ldrd	r3, r0, [sp, #140]	; 0x8c
 8004558:	aa25      	add	r2, sp, #148	; 0x94
 800455a:	dce8      	bgt.n	800452e <_svfprintf_r+0x119e>
 800455c:	4619      	mov	r1, r3
 800455e:	4b40      	ldr	r3, [pc, #256]	; (8004660 <_svfprintf_r+0x12d0>)
 8004560:	6013      	str	r3, [r2, #0]
 8004562:	1c4b      	adds	r3, r1, #1
 8004564:	4420      	add	r0, r4
 8004566:	2b07      	cmp	r3, #7
 8004568:	e9cd 3023 	strd	r3, r0, [sp, #140]	; 0x8c
 800456c:	6054      	str	r4, [r2, #4]
 800456e:	f300 820d 	bgt.w	800498c <_svfprintf_r+0x15fc>
 8004572:	783b      	ldrb	r3, [r7, #0]
 8004574:	3208      	adds	r2, #8
 8004576:	441e      	add	r6, r3
 8004578:	e7c3      	b.n	8004502 <_svfprintf_r+0x1172>
 800457a:	9b02      	ldr	r3, [sp, #8]
 800457c:	06de      	lsls	r6, r3, #27
 800457e:	d55c      	bpl.n	800463a <_svfprintf_r+0x12aa>
 8004580:	9b08      	ldr	r3, [sp, #32]
 8004582:	f853 2b04 	ldr.w	r2, [r3], #4
 8004586:	9308      	str	r3, [sp, #32]
 8004588:	4692      	mov	sl, r2
 800458a:	f04f 0b00 	mov.w	fp, #0
 800458e:	e6f6      	b.n	800437e <_svfprintf_r+0xfee>
 8004590:	aa22      	add	r2, sp, #136	; 0x88
 8004592:	4641      	mov	r1, r8
 8004594:	4648      	mov	r0, r9
 8004596:	f002 fdf5 	bl	8007184 <__ssprint_r>
 800459a:	2800      	cmp	r0, #0
 800459c:	f040 815e 	bne.w	800485c <_svfprintf_r+0x14cc>
 80045a0:	9824      	ldr	r0, [sp, #144]	; 0x90
 80045a2:	aa25      	add	r2, sp, #148	; 0x94
 80045a4:	e792      	b.n	80044cc <_svfprintf_r+0x113c>
 80045a6:	9b23      	ldr	r3, [sp, #140]	; 0x8c
 80045a8:	492e      	ldr	r1, [pc, #184]	; (8004664 <_svfprintf_r+0x12d4>)
 80045aa:	f8c8 1000 	str.w	r1, [r8]
 80045ae:	3301      	adds	r3, #1
 80045b0:	3501      	adds	r5, #1
 80045b2:	2101      	movs	r1, #1
 80045b4:	2b07      	cmp	r3, #7
 80045b6:	e9cd 3523 	strd	r3, r5, [sp, #140]	; 0x8c
 80045ba:	f8c8 1004 	str.w	r1, [r8, #4]
 80045be:	f300 813f 	bgt.w	8004840 <_svfprintf_r+0x14b0>
 80045c2:	f108 0808 	add.w	r8, r8, #8
 80045c6:	2a00      	cmp	r2, #0
 80045c8:	f040 8096 	bne.w	80046f8 <_svfprintf_r+0x1368>
 80045cc:	9b02      	ldr	r3, [sp, #8]
 80045ce:	9a0c      	ldr	r2, [sp, #48]	; 0x30
 80045d0:	f003 0301 	and.w	r3, r3, #1
 80045d4:	4313      	orrs	r3, r2
 80045d6:	f43f a843 	beq.w	8003660 <_svfprintf_r+0x2d0>
 80045da:	9b23      	ldr	r3, [sp, #140]	; 0x8c
 80045dc:	9a11      	ldr	r2, [sp, #68]	; 0x44
 80045de:	f8c8 2000 	str.w	r2, [r8]
 80045e2:	9a10      	ldr	r2, [sp, #64]	; 0x40
 80045e4:	f8c8 2004 	str.w	r2, [r8, #4]
 80045e8:	3301      	adds	r3, #1
 80045ea:	4415      	add	r5, r2
 80045ec:	2b07      	cmp	r3, #7
 80045ee:	9524      	str	r5, [sp, #144]	; 0x90
 80045f0:	9323      	str	r3, [sp, #140]	; 0x8c
 80045f2:	f300 8155 	bgt.w	80048a0 <_svfprintf_r+0x1510>
 80045f6:	f108 0808 	add.w	r8, r8, #8
 80045fa:	9a0c      	ldr	r2, [sp, #48]	; 0x30
 80045fc:	3301      	adds	r3, #1
 80045fe:	4415      	add	r5, r2
 8004600:	2b07      	cmp	r3, #7
 8004602:	e9cd 3523 	strd	r3, r5, [sp, #140]	; 0x8c
 8004606:	e9c8 7200 	strd	r7, r2, [r8]
 800460a:	f77f a827 	ble.w	800365c <_svfprintf_r+0x2cc>
 800460e:	f7ff bb7e 	b.w	8003d0e <_svfprintf_r+0x97e>
 8004612:	ee19 1a10 	vmov	r1, s18
 8004616:	aa22      	add	r2, sp, #136	; 0x88
 8004618:	4648      	mov	r0, r9
 800461a:	9317      	str	r3, [sp, #92]	; 0x5c
 800461c:	f002 fdb2 	bl	8007184 <__ssprint_r>
 8004620:	2800      	cmp	r0, #0
 8004622:	f47f ab2d 	bne.w	8003c80 <_svfprintf_r+0x8f0>
 8004626:	f89d 206b 	ldrb.w	r2, [sp, #107]	; 0x6b
 800462a:	9d24      	ldr	r5, [sp, #144]	; 0x90
 800462c:	9b17      	ldr	r3, [sp, #92]	; 0x5c
 800462e:	f10d 0894 	add.w	r8, sp, #148	; 0x94
 8004632:	f7fe bfd9 	b.w	80035e8 <_svfprintf_r+0x258>
 8004636:	46a3      	mov	fp, r4
 8004638:	e4ac      	b.n	8003f94 <_svfprintf_r+0xc04>
 800463a:	9b02      	ldr	r3, [sp, #8]
 800463c:	065d      	lsls	r5, r3, #25
 800463e:	f140 80b9 	bpl.w	80047b4 <_svfprintf_r+0x1424>
 8004642:	9b08      	ldr	r3, [sp, #32]
 8004644:	f853 2b04 	ldr.w	r2, [r3], #4
 8004648:	9308      	str	r3, [sp, #32]
 800464a:	fa1f fa82 	uxth.w	sl, r2
 800464e:	f04f 0b00 	mov.w	fp, #0
 8004652:	e694      	b.n	800437e <_svfprintf_r+0xfee>
 8004654:	08008d70 	.word	0x08008d70
 8004658:	08008d84 	.word	0x08008d84
 800465c:	08008d98 	.word	0x08008d98
 8004660:	08008db4 	.word	0x08008db4
 8004664:	08008da0 	.word	0x08008da0
 8004668:	66666667 	.word	0x66666667
 800466c:	ee19 1a10 	vmov	r1, s18
 8004670:	aa22      	add	r2, sp, #136	; 0x88
 8004672:	4648      	mov	r0, r9
 8004674:	f002 fd86 	bl	8007184 <__ssprint_r>
 8004678:	2800      	cmp	r0, #0
 800467a:	f47f ab01 	bne.w	8003c80 <_svfprintf_r+0x8f0>
 800467e:	9d24      	ldr	r5, [sp, #144]	; 0x90
 8004680:	f10d 0894 	add.w	r8, sp, #148	; 0x94
 8004684:	f7ff ba2e 	b.w	8003ae4 <_svfprintf_r+0x754>
 8004688:	46bb      	mov	fp, r7
 800468a:	e483      	b.n	8003f94 <_svfprintf_r+0xc04>
 800468c:	46bb      	mov	fp, r7
 800468e:	3301      	adds	r3, #1
 8004690:	4425      	add	r5, r4
 8004692:	2b07      	cmp	r3, #7
 8004694:	f8c8 b000 	str.w	fp, [r8]
 8004698:	e9cd 3523 	strd	r3, r5, [sp, #140]	; 0x8c
 800469c:	f8c8 4004 	str.w	r4, [r8, #4]
 80046a0:	f77e afdc 	ble.w	800365c <_svfprintf_r+0x2cc>
 80046a4:	f7ff bb33 	b.w	8003d0e <_svfprintf_r+0x97e>
 80046a8:	aa22      	add	r2, sp, #136	; 0x88
 80046aa:	4641      	mov	r1, r8
 80046ac:	4648      	mov	r0, r9
 80046ae:	f002 fd69 	bl	8007184 <__ssprint_r>
 80046b2:	2800      	cmp	r0, #0
 80046b4:	f040 80d2 	bne.w	800485c <_svfprintf_r+0x14cc>
 80046b8:	783b      	ldrb	r3, [r7, #0]
 80046ba:	9824      	ldr	r0, [sp, #144]	; 0x90
 80046bc:	aa25      	add	r2, sp, #148	; 0x94
 80046be:	e719      	b.n	80044f4 <_svfprintf_r+0x1164>
 80046c0:	ee19 1a10 	vmov	r1, s18
 80046c4:	aa22      	add	r2, sp, #136	; 0x88
 80046c6:	4648      	mov	r0, r9
 80046c8:	f002 fd5c 	bl	8007184 <__ssprint_r>
 80046cc:	2800      	cmp	r0, #0
 80046ce:	f47f aad7 	bne.w	8003c80 <_svfprintf_r+0x8f0>
 80046d2:	9d24      	ldr	r5, [sp, #144]	; 0x90
 80046d4:	f10d 0894 	add.w	r8, sp, #148	; 0x94
 80046d8:	f7fe bfa9 	b.w	800362e <_svfprintf_r+0x29e>
 80046dc:	2b01      	cmp	r3, #1
 80046de:	9d02      	ldr	r5, [sp, #8]
 80046e0:	f47f a99f 	bne.w	8003a22 <_svfprintf_r+0x692>
 80046e4:	f7ff bb2a 	b.w	8003d3c <_svfprintf_r+0x9ac>
 80046e8:	9b08      	ldr	r3, [sp, #32]
 80046ea:	9904      	ldr	r1, [sp, #16]
 80046ec:	f853 2b04 	ldr.w	r2, [r3], #4
 80046f0:	6011      	str	r1, [r2, #0]
 80046f2:	9308      	str	r3, [sp, #32]
 80046f4:	f7fe bfd1 	b.w	800369a <_svfprintf_r+0x30a>
 80046f8:	9b23      	ldr	r3, [sp, #140]	; 0x8c
 80046fa:	9911      	ldr	r1, [sp, #68]	; 0x44
 80046fc:	f8c8 1000 	str.w	r1, [r8]
 8004700:	9910      	ldr	r1, [sp, #64]	; 0x40
 8004702:	f8c8 1004 	str.w	r1, [r8, #4]
 8004706:	3301      	adds	r3, #1
 8004708:	440d      	add	r5, r1
 800470a:	2b07      	cmp	r3, #7
 800470c:	9524      	str	r5, [sp, #144]	; 0x90
 800470e:	9323      	str	r3, [sp, #140]	; 0x8c
 8004710:	f300 80c6 	bgt.w	80048a0 <_svfprintf_r+0x1510>
 8004714:	f108 0808 	add.w	r8, r8, #8
 8004718:	2a00      	cmp	r2, #0
 800471a:	f6bf af6e 	bge.w	80045fa <_svfprintf_r+0x126a>
 800471e:	4254      	negs	r4, r2
 8004720:	3210      	adds	r2, #16
 8004722:	f8df b6fc 	ldr.w	fp, [pc, #1788]	; 8004e20 <_svfprintf_r+0x1a90>
 8004726:	f280 82b5 	bge.w	8004c94 <_svfprintf_r+0x1904>
 800472a:	462a      	mov	r2, r5
 800472c:	2610      	movs	r6, #16
 800472e:	465d      	mov	r5, fp
 8004730:	ee19 ba10 	vmov	fp, s18
 8004734:	e005      	b.n	8004742 <_svfprintf_r+0x13b2>
 8004736:	f108 0808 	add.w	r8, r8, #8
 800473a:	3c10      	subs	r4, #16
 800473c:	2c10      	cmp	r4, #16
 800473e:	f340 82a7 	ble.w	8004c90 <_svfprintf_r+0x1900>
 8004742:	3301      	adds	r3, #1
 8004744:	3210      	adds	r2, #16
 8004746:	2b07      	cmp	r3, #7
 8004748:	e9cd 3223 	strd	r3, r2, [sp, #140]	; 0x8c
 800474c:	e9c8 5600 	strd	r5, r6, [r8]
 8004750:	ddf1      	ble.n	8004736 <_svfprintf_r+0x13a6>
 8004752:	aa22      	add	r2, sp, #136	; 0x88
 8004754:	4659      	mov	r1, fp
 8004756:	4648      	mov	r0, r9
 8004758:	f002 fd14 	bl	8007184 <__ssprint_r>
 800475c:	2800      	cmp	r0, #0
 800475e:	f47f ac19 	bne.w	8003f94 <_svfprintf_r+0xc04>
 8004762:	e9dd 3223 	ldrd	r3, r2, [sp, #140]	; 0x8c
 8004766:	f10d 0894 	add.w	r8, sp, #148	; 0x94
 800476a:	e7e6      	b.n	800473a <_svfprintf_r+0x13aa>
 800476c:	f8dd a00c 	ldr.w	sl, [sp, #12]
 8004770:	3401      	adds	r4, #1
 8004772:	4435      	add	r5, r6
 8004774:	2c07      	cmp	r4, #7
 8004776:	e9cd 4523 	strd	r4, r5, [sp, #140]	; 0x8c
 800477a:	e9c8 b600 	strd	fp, r6, [r8]
 800477e:	f77f aab9 	ble.w	8003cf4 <_svfprintf_r+0x964>
 8004782:	e421      	b.n	8003fc8 <_svfprintf_r+0xc38>
 8004784:	4638      	mov	r0, r7
 8004786:	f002 fc5b 	bl	8007040 <strlen>
 800478a:	4633      	mov	r3, r6
 800478c:	9603      	str	r6, [sp, #12]
 800478e:	4602      	mov	r2, r0
 8004790:	9006      	str	r0, [sp, #24]
 8004792:	f7ff b812 	b.w	80037ba <_svfprintf_r+0x42a>
 8004796:	9b02      	ldr	r3, [sp, #8]
 8004798:	f413 7f00 	tst.w	r3, #512	; 0x200
 800479c:	9b08      	ldr	r3, [sp, #32]
 800479e:	f853 2b04 	ldr.w	r2, [r3], #4
 80047a2:	9308      	str	r3, [sp, #32]
 80047a4:	bf14      	ite	ne
 80047a6:	fa5f fa82 	uxtbne.w	sl, r2
 80047aa:	4692      	moveq	sl, r2
 80047ac:	f04f 0b00 	mov.w	fp, #0
 80047b0:	f7ff b85b 	b.w	800386a <_svfprintf_r+0x4da>
 80047b4:	9b02      	ldr	r3, [sp, #8]
 80047b6:	f413 7f00 	tst.w	r3, #512	; 0x200
 80047ba:	9b08      	ldr	r3, [sp, #32]
 80047bc:	f853 2b04 	ldr.w	r2, [r3], #4
 80047c0:	9308      	str	r3, [sp, #32]
 80047c2:	bf14      	ite	ne
 80047c4:	fa5f fa82 	uxtbne.w	sl, r2
 80047c8:	4692      	moveq	sl, r2
 80047ca:	f04f 0b00 	mov.w	fp, #0
 80047ce:	e5d6      	b.n	800437e <_svfprintf_r+0xfee>
 80047d0:	9b02      	ldr	r3, [sp, #8]
 80047d2:	f413 7f00 	tst.w	r3, #512	; 0x200
 80047d6:	9b08      	ldr	r3, [sp, #32]
 80047d8:	f853 2b04 	ldr.w	r2, [r3], #4
 80047dc:	f43f a904 	beq.w	80039e8 <_svfprintf_r+0x658>
 80047e0:	fa4f fa82 	sxtb.w	sl, r2
 80047e4:	ea4f 7bea 	mov.w	fp, sl, asr #31
 80047e8:	9308      	str	r3, [sp, #32]
 80047ea:	4652      	mov	r2, sl
 80047ec:	465b      	mov	r3, fp
 80047ee:	f7fe bffd 	b.w	80037ec <_svfprintf_r+0x45c>
 80047f2:	46ab      	mov	fp, r5
 80047f4:	4615      	mov	r5, r2
 80047f6:	3301      	adds	r3, #1
 80047f8:	4425      	add	r5, r4
 80047fa:	2b07      	cmp	r3, #7
 80047fc:	e9cd 3523 	strd	r3, r5, [sp, #140]	; 0x8c
 8004800:	f8c8 b000 	str.w	fp, [r8]
 8004804:	f8c8 4004 	str.w	r4, [r8, #4]
 8004808:	dc59      	bgt.n	80048be <_svfprintf_r+0x152e>
 800480a:	f108 0808 	add.w	r8, r8, #8
 800480e:	f7ff bb5e 	b.w	8003ece <_svfprintf_r+0xb3e>
 8004812:	222d      	movs	r2, #45	; 0x2d
 8004814:	f88d 206b 	strb.w	r2, [sp, #107]	; 0x6b
 8004818:	f7fe bf8c 	b.w	8003734 <_svfprintf_r+0x3a4>
 800481c:	9b16      	ldr	r3, [sp, #88]	; 0x58
 800481e:	9915      	ldr	r1, [sp, #84]	; 0x54
 8004820:	1aff      	subs	r7, r7, r3
 8004822:	461a      	mov	r2, r3
 8004824:	4638      	mov	r0, r7
 8004826:	f002 fc79 	bl	800711c <strncpy>
 800482a:	786b      	ldrb	r3, [r5, #1]
 800482c:	b103      	cbz	r3, 8004830 <_svfprintf_r+0x14a0>
 800482e:	3501      	adds	r5, #1
 8004830:	220a      	movs	r2, #10
 8004832:	2300      	movs	r3, #0
 8004834:	4650      	mov	r0, sl
 8004836:	4659      	mov	r1, fp
 8004838:	2600      	movs	r6, #0
 800483a:	f003 fcb7 	bl	80081ac <__aeabi_uldivmod>
 800483e:	e566      	b.n	800430e <_svfprintf_r+0xf7e>
 8004840:	ee19 1a10 	vmov	r1, s18
 8004844:	aa22      	add	r2, sp, #136	; 0x88
 8004846:	4648      	mov	r0, r9
 8004848:	f002 fc9c 	bl	8007184 <__ssprint_r>
 800484c:	2800      	cmp	r0, #0
 800484e:	f47f aa17 	bne.w	8003c80 <_svfprintf_r+0x8f0>
 8004852:	9a1c      	ldr	r2, [sp, #112]	; 0x70
 8004854:	9d24      	ldr	r5, [sp, #144]	; 0x90
 8004856:	f10d 0894 	add.w	r8, sp, #148	; 0x94
 800485a:	e6b4      	b.n	80045c6 <_svfprintf_r+0x1236>
 800485c:	46c3      	mov	fp, r8
 800485e:	f7ff bb99 	b.w	8003f94 <_svfprintf_r+0xc04>
 8004862:	9b02      	ldr	r3, [sp, #8]
 8004864:	7834      	ldrb	r4, [r6, #0]
 8004866:	f443 6380 	orr.w	r3, r3, #1024	; 0x400
 800486a:	9302      	str	r3, [sp, #8]
 800486c:	f7fe bdde 	b.w	800342c <_svfprintf_r+0x9c>
 8004870:	9a0c      	ldr	r2, [sp, #48]	; 0x30
 8004872:	18bc      	adds	r4, r7, r2
 8004874:	eba4 040b 	sub.w	r4, r4, fp
 8004878:	1ad3      	subs	r3, r2, r3
 800487a:	429c      	cmp	r4, r3
 800487c:	bfa8      	it	ge
 800487e:	461c      	movge	r4, r3
 8004880:	f7ff bb5c 	b.w	8003f3c <_svfprintf_r+0xbac>
 8004884:	9b08      	ldr	r3, [sp, #32]
 8004886:	9904      	ldr	r1, [sp, #16]
 8004888:	f853 2b04 	ldr.w	r2, [r3], #4
 800488c:	9308      	str	r3, [sp, #32]
 800488e:	8011      	strh	r1, [r2, #0]
 8004890:	f7fe bf03 	b.w	800369a <_svfprintf_r+0x30a>
 8004894:	fa5f fa81 	uxtb.w	sl, r1
 8004898:	f04f 0b00 	mov.w	fp, #0
 800489c:	f7fe bfe9 	b.w	8003872 <_svfprintf_r+0x4e2>
 80048a0:	ee19 1a10 	vmov	r1, s18
 80048a4:	aa22      	add	r2, sp, #136	; 0x88
 80048a6:	4648      	mov	r0, r9
 80048a8:	f002 fc6c 	bl	8007184 <__ssprint_r>
 80048ac:	2800      	cmp	r0, #0
 80048ae:	f47f a9e7 	bne.w	8003c80 <_svfprintf_r+0x8f0>
 80048b2:	e9dd 3523 	ldrd	r3, r5, [sp, #140]	; 0x8c
 80048b6:	9a1c      	ldr	r2, [sp, #112]	; 0x70
 80048b8:	f10d 0894 	add.w	r8, sp, #148	; 0x94
 80048bc:	e72c      	b.n	8004718 <_svfprintf_r+0x1388>
 80048be:	ee19 1a10 	vmov	r1, s18
 80048c2:	aa22      	add	r2, sp, #136	; 0x88
 80048c4:	4648      	mov	r0, r9
 80048c6:	f002 fc5d 	bl	8007184 <__ssprint_r>
 80048ca:	2800      	cmp	r0, #0
 80048cc:	f47f a9d8 	bne.w	8003c80 <_svfprintf_r+0x8f0>
 80048d0:	9d24      	ldr	r5, [sp, #144]	; 0x90
 80048d2:	f10d 0894 	add.w	r8, sp, #148	; 0x94
 80048d6:	f7ff bafa 	b.w	8003ece <_svfprintf_r+0xb3e>
 80048da:	2306      	movs	r3, #6
 80048dc:	9303      	str	r3, [sp, #12]
 80048de:	e439      	b.n	8004154 <_svfprintf_r+0xdc4>
 80048e0:	9713      	str	r7, [sp, #76]	; 0x4c
 80048e2:	e9dd 730b 	ldrd	r7, r3, [sp, #44]	; 0x2c
 80048e6:	18fb      	adds	r3, r7, r3
 80048e8:	429e      	cmp	r6, r3
 80048ea:	46b3      	mov	fp, r6
 80048ec:	f8dd a018 	ldr.w	sl, [sp, #24]
 80048f0:	4605      	mov	r5, r0
 80048f2:	4690      	mov	r8, r2
 80048f4:	bf28      	it	cs
 80048f6:	469b      	movcs	fp, r3
 80048f8:	f7ff baf0 	b.w	8003edc <_svfprintf_r+0xb4c>
 80048fc:	9b1c      	ldr	r3, [sp, #112]	; 0x70
 80048fe:	930b      	str	r3, [sp, #44]	; 0x2c
 8004900:	1cda      	adds	r2, r3, #3
 8004902:	db02      	blt.n	800490a <_svfprintf_r+0x157a>
 8004904:	9a03      	ldr	r2, [sp, #12]
 8004906:	4293      	cmp	r3, r2
 8004908:	dd04      	ble.n	8004914 <_svfprintf_r+0x1584>
 800490a:	3c02      	subs	r4, #2
 800490c:	f024 0320 	bic.w	r3, r4, #32
 8004910:	9306      	str	r3, [sp, #24]
 8004912:	e460      	b.n	80041d6 <_svfprintf_r+0xe46>
 8004914:	e9dd 310b 	ldrd	r3, r1, [sp, #44]	; 0x2c
 8004918:	428b      	cmp	r3, r1
 800491a:	f2c0 80b4 	blt.w	8004a86 <_svfprintf_r+0x16f6>
 800491e:	f01b 0f01 	tst.w	fp, #1
 8004922:	f000 8238 	beq.w	8004d96 <_svfprintf_r+0x1a06>
 8004926:	9a10      	ldr	r2, [sp, #64]	; 0x40
 8004928:	4413      	add	r3, r2
 800492a:	9306      	str	r3, [sp, #24]
 800492c:	f41b 6f80 	tst.w	fp, #1024	; 0x400
 8004930:	d003      	beq.n	800493a <_svfprintf_r+0x15aa>
 8004932:	9b0b      	ldr	r3, [sp, #44]	; 0x2c
 8004934:	2b00      	cmp	r3, #0
 8004936:	f300 8238 	bgt.w	8004daa <_svfprintf_r+0x1a1a>
 800493a:	9b06      	ldr	r3, [sp, #24]
 800493c:	2467      	movs	r4, #103	; 0x67
 800493e:	ea23 7ae3 	bic.w	sl, r3, r3, asr #31
 8004942:	2300      	movs	r3, #0
 8004944:	930a      	str	r3, [sp, #40]	; 0x28
 8004946:	930d      	str	r3, [sp, #52]	; 0x34
 8004948:	e4a7      	b.n	800429a <_svfprintf_r+0xf0a>
 800494a:	222d      	movs	r2, #45	; 0x2d
 800494c:	2300      	movs	r3, #0
 800494e:	f88d 206b 	strb.w	r2, [sp, #107]	; 0x6b
 8004952:	9303      	str	r3, [sp, #12]
 8004954:	f7fe bf04 	b.w	8003760 <_svfprintf_r+0x3d0>
 8004958:	9b20      	ldr	r3, [sp, #128]	; 0x80
 800495a:	42ab      	cmp	r3, r5
 800495c:	f4bf ac2f 	bcs.w	80041be <_svfprintf_r+0xe2e>
 8004960:	2130      	movs	r1, #48	; 0x30
 8004962:	1c5a      	adds	r2, r3, #1
 8004964:	9220      	str	r2, [sp, #128]	; 0x80
 8004966:	7019      	strb	r1, [r3, #0]
 8004968:	9b20      	ldr	r3, [sp, #128]	; 0x80
 800496a:	429d      	cmp	r5, r3
 800496c:	d8f9      	bhi.n	8004962 <_svfprintf_r+0x15d2>
 800496e:	e426      	b.n	80041be <_svfprintf_r+0xe2e>
 8004970:	ee19 1a10 	vmov	r1, s18
 8004974:	aa22      	add	r2, sp, #136	; 0x88
 8004976:	4648      	mov	r0, r9
 8004978:	f002 fc04 	bl	8007184 <__ssprint_r>
 800497c:	2800      	cmp	r0, #0
 800497e:	f47f a97f 	bne.w	8003c80 <_svfprintf_r+0x8f0>
 8004982:	9d24      	ldr	r5, [sp, #144]	; 0x90
 8004984:	f10d 0894 	add.w	r8, sp, #148	; 0x94
 8004988:	f7ff ba99 	b.w	8003ebe <_svfprintf_r+0xb2e>
 800498c:	aa22      	add	r2, sp, #136	; 0x88
 800498e:	4641      	mov	r1, r8
 8004990:	4648      	mov	r0, r9
 8004992:	f002 fbf7 	bl	8007184 <__ssprint_r>
 8004996:	2800      	cmp	r0, #0
 8004998:	f47f af60 	bne.w	800485c <_svfprintf_r+0x14cc>
 800499c:	783b      	ldrb	r3, [r7, #0]
 800499e:	9824      	ldr	r0, [sp, #144]	; 0x90
 80049a0:	aa25      	add	r2, sp, #148	; 0x94
 80049a2:	441e      	add	r6, r3
 80049a4:	e5ad      	b.n	8004502 <_svfprintf_r+0x1172>
 80049a6:	ee19 1a10 	vmov	r1, s18
 80049aa:	aa22      	add	r2, sp, #136	; 0x88
 80049ac:	4648      	mov	r0, r9
 80049ae:	f002 fbe9 	bl	8007184 <__ssprint_r>
 80049b2:	2800      	cmp	r0, #0
 80049b4:	f47f a964 	bne.w	8003c80 <_svfprintf_r+0x8f0>
 80049b8:	9b1c      	ldr	r3, [sp, #112]	; 0x70
 80049ba:	9d24      	ldr	r5, [sp, #144]	; 0x90
 80049bc:	f10d 0894 	add.w	r8, sp, #148	; 0x94
 80049c0:	f7ff baa4 	b.w	8003f0c <_svfprintf_r+0xb7c>
 80049c4:	aa20      	add	r2, sp, #128	; 0x80
 80049c6:	ab1d      	add	r3, sp, #116	; 0x74
 80049c8:	e9cd 3200 	strd	r3, r2, [sp]
 80049cc:	eeb0 0a48 	vmov.f32	s0, s16
 80049d0:	eef0 0a68 	vmov.f32	s1, s17
 80049d4:	9a03      	ldr	r2, [sp, #12]
 80049d6:	ab1c      	add	r3, sp, #112	; 0x70
 80049d8:	2102      	movs	r1, #2
 80049da:	4648      	mov	r0, r9
 80049dc:	f000 fb04 	bl	8004fe8 <_dtoa_r>
 80049e0:	2e47      	cmp	r6, #71	; 0x47
 80049e2:	4607      	mov	r7, r0
 80049e4:	d11a      	bne.n	8004a1c <_svfprintf_r+0x168c>
 80049e6:	9b02      	ldr	r3, [sp, #8]
 80049e8:	07da      	lsls	r2, r3, #31
 80049ea:	f100 8122 	bmi.w	8004c32 <_svfprintf_r+0x18a2>
 80049ee:	9a0a      	ldr	r2, [sp, #40]	; 0x28
 80049f0:	9202      	str	r2, [sp, #8]
 80049f2:	2247      	movs	r2, #71	; 0x47
 80049f4:	469b      	mov	fp, r3
 80049f6:	9206      	str	r2, [sp, #24]
 80049f8:	9b20      	ldr	r3, [sp, #128]	; 0x80
 80049fa:	f7ff bbe0 	b.w	80041be <_svfprintf_r+0xe2e>
 80049fe:	aa20      	add	r2, sp, #128	; 0x80
 8004a00:	ab1d      	add	r3, sp, #116	; 0x74
 8004a02:	e9cd 3200 	strd	r3, r2, [sp]
 8004a06:	eeb0 0a48 	vmov.f32	s0, s16
 8004a0a:	eef0 0a68 	vmov.f32	s1, s17
 8004a0e:	9a03      	ldr	r2, [sp, #12]
 8004a10:	ab1c      	add	r3, sp, #112	; 0x70
 8004a12:	2103      	movs	r1, #3
 8004a14:	4648      	mov	r0, r9
 8004a16:	f000 fae7 	bl	8004fe8 <_dtoa_r>
 8004a1a:	4607      	mov	r7, r0
 8004a1c:	9b03      	ldr	r3, [sp, #12]
 8004a1e:	2e46      	cmp	r6, #70	; 0x46
 8004a20:	eb07 0503 	add.w	r5, r7, r3
 8004a24:	f47f abbd 	bne.w	80041a2 <_svfprintf_r+0xe12>
 8004a28:	783b      	ldrb	r3, [r7, #0]
 8004a2a:	2b30      	cmp	r3, #48	; 0x30
 8004a2c:	f000 81fa 	beq.w	8004e24 <_svfprintf_r+0x1a94>
 8004a30:	9b1c      	ldr	r3, [sp, #112]	; 0x70
 8004a32:	f8dd b008 	ldr.w	fp, [sp, #8]
 8004a36:	441d      	add	r5, r3
 8004a38:	9b0a      	ldr	r3, [sp, #40]	; 0x28
 8004a3a:	9302      	str	r3, [sp, #8]
 8004a3c:	f7ff bbb5 	b.w	80041aa <_svfprintf_r+0xe1a>
 8004a40:	f8dd a00c 	ldr.w	sl, [sp, #12]
 8004a44:	f89d 206b 	ldrb.w	r2, [sp, #107]	; 0x6b
 8004a48:	f8cd a018 	str.w	sl, [sp, #24]
 8004a4c:	9003      	str	r0, [sp, #12]
 8004a4e:	9508      	str	r5, [sp, #32]
 8004a50:	900a      	str	r0, [sp, #40]	; 0x28
 8004a52:	900d      	str	r0, [sp, #52]	; 0x34
 8004a54:	900b      	str	r0, [sp, #44]	; 0x2c
 8004a56:	f7fe be80 	b.w	800375a <_svfprintf_r+0x3ca>
 8004a5a:	9a1c      	ldr	r2, [sp, #112]	; 0x70
 8004a5c:	920b      	str	r2, [sp, #44]	; 0x2c
 8004a5e:	2a00      	cmp	r2, #0
 8004a60:	f340 81f7 	ble.w	8004e52 <_svfprintf_r+0x1ac2>
 8004a64:	9903      	ldr	r1, [sp, #12]
 8004a66:	f00b 0301 	and.w	r3, fp, #1
 8004a6a:	430b      	orrs	r3, r1
 8004a6c:	f040 8196 	bne.w	8004d9c <_svfprintf_r+0x1a0c>
 8004a70:	9b0b      	ldr	r3, [sp, #44]	; 0x2c
 8004a72:	9306      	str	r3, [sp, #24]
 8004a74:	2466      	movs	r4, #102	; 0x66
 8004a76:	f41b 6f80 	tst.w	fp, #1024	; 0x400
 8004a7a:	f040 8197 	bne.w	8004dac <_svfprintf_r+0x1a1c>
 8004a7e:	9b06      	ldr	r3, [sp, #24]
 8004a80:	ea23 7ae3 	bic.w	sl, r3, r3, asr #31
 8004a84:	e75d      	b.n	8004942 <_svfprintf_r+0x15b2>
 8004a86:	9b0c      	ldr	r3, [sp, #48]	; 0x30
 8004a88:	9a10      	ldr	r2, [sp, #64]	; 0x40
 8004a8a:	189a      	adds	r2, r3, r2
 8004a8c:	9b0b      	ldr	r3, [sp, #44]	; 0x2c
 8004a8e:	9206      	str	r2, [sp, #24]
 8004a90:	2b00      	cmp	r3, #0
 8004a92:	f340 81b0 	ble.w	8004df6 <_svfprintf_r+0x1a66>
 8004a96:	2467      	movs	r4, #103	; 0x67
 8004a98:	e7ed      	b.n	8004a76 <_svfprintf_r+0x16e6>
 8004a9a:	2330      	movs	r3, #48	; 0x30
 8004a9c:	f88d 306c 	strb.w	r3, [sp, #108]	; 0x6c
 8004aa0:	2358      	movs	r3, #88	; 0x58
 8004aa2:	f88d 306d 	strb.w	r3, [sp, #109]	; 0x6d
 8004aa6:	9b02      	ldr	r3, [sp, #8]
 8004aa8:	f043 0502 	orr.w	r5, r3, #2
 8004aac:	9b03      	ldr	r3, [sp, #12]
 8004aae:	2b63      	cmp	r3, #99	; 0x63
 8004ab0:	f300 80e4 	bgt.w	8004c7c <_svfprintf_r+0x18ec>
 8004ab4:	2300      	movs	r3, #0
 8004ab6:	9307      	str	r3, [sp, #28]
 8004ab8:	af35      	add	r7, sp, #212	; 0xd4
 8004aba:	e9dd 010e 	ldrd	r0, r1, [sp, #56]	; 0x38
 8004abe:	9a02      	ldr	r2, [sp, #8]
 8004ac0:	9502      	str	r5, [sp, #8]
 8004ac2:	f442 7281 	orr.w	r2, r2, #258	; 0x102
 8004ac6:	f024 0620 	bic.w	r6, r4, #32
 8004aca:	2900      	cmp	r1, #0
 8004acc:	920a      	str	r2, [sp, #40]	; 0x28
 8004ace:	9606      	str	r6, [sp, #24]
 8004ad0:	f2c0 8082 	blt.w	8004bd8 <_svfprintf_r+0x1848>
 8004ad4:	2300      	movs	r3, #0
 8004ad6:	ec41 0b18 	vmov	d8, r0, r1
 8004ada:	9317      	str	r3, [sp, #92]	; 0x5c
 8004adc:	2c61      	cmp	r4, #97	; 0x61
 8004ade:	f000 8118 	beq.w	8004d12 <_svfprintf_r+0x1982>
 8004ae2:	2c41      	cmp	r4, #65	; 0x41
 8004ae4:	f47f ab45 	bne.w	8004172 <_svfprintf_r+0xde2>
 8004ae8:	eeb0 0a48 	vmov.f32	s0, s16
 8004aec:	eef0 0a68 	vmov.f32	s1, s17
 8004af0:	a81c      	add	r0, sp, #112	; 0x70
 8004af2:	f002 fa3f 	bl	8006f74 <frexp>
 8004af6:	2200      	movs	r2, #0
 8004af8:	f04f 537f 	mov.w	r3, #1069547520	; 0x3fc00000
 8004afc:	ec51 0b10 	vmov	r0, r1, d0
 8004b00:	f003 f87c 	bl	8007bfc <__aeabi_dmul>
 8004b04:	2200      	movs	r2, #0
 8004b06:	2300      	movs	r3, #0
 8004b08:	4682      	mov	sl, r0
 8004b0a:	468b      	mov	fp, r1
 8004b0c:	f003 fade 	bl	80080cc <__aeabi_dcmpeq>
 8004b10:	b108      	cbz	r0, 8004b16 <_svfprintf_r+0x1786>
 8004b12:	2301      	movs	r3, #1
 8004b14:	931c      	str	r3, [sp, #112]	; 0x70
 8004b16:	4bbc      	ldr	r3, [pc, #752]	; (8004e08 <_svfprintf_r+0x1a78>)
 8004b18:	930b      	str	r3, [sp, #44]	; 0x2c
 8004b1a:	9b03      	ldr	r3, [sp, #12]
 8004b1c:	9719      	str	r7, [sp, #100]	; 0x64
 8004b1e:	463e      	mov	r6, r7
 8004b20:	ee09 9a90 	vmov	s19, r9
 8004b24:	9f0b      	ldr	r7, [sp, #44]	; 0x2c
 8004b26:	9418      	str	r4, [sp, #96]	; 0x60
 8004b28:	1e5d      	subs	r5, r3, #1
 8004b2a:	f8cd 8030 	str.w	r8, [sp, #48]	; 0x30
 8004b2e:	e003      	b.n	8004b38 <_svfprintf_r+0x17a8>
 8004b30:	f003 facc 	bl	80080cc <__aeabi_dcmpeq>
 8004b34:	3d01      	subs	r5, #1
 8004b36:	bb08      	cbnz	r0, 8004b7c <_svfprintf_r+0x17ec>
 8004b38:	4bb4      	ldr	r3, [pc, #720]	; (8004e0c <_svfprintf_r+0x1a7c>)
 8004b3a:	2200      	movs	r2, #0
 8004b3c:	4650      	mov	r0, sl
 8004b3e:	4659      	mov	r1, fp
 8004b40:	f003 f85c 	bl	8007bfc <__aeabi_dmul>
 8004b44:	4689      	mov	r9, r1
 8004b46:	4680      	mov	r8, r0
 8004b48:	f003 fb08 	bl	800815c <__aeabi_d2iz>
 8004b4c:	4604      	mov	r4, r0
 8004b4e:	f002 ffeb 	bl	8007b28 <__aeabi_i2d>
 8004b52:	4602      	mov	r2, r0
 8004b54:	460b      	mov	r3, r1
 8004b56:	4640      	mov	r0, r8
 8004b58:	4649      	mov	r1, r9
 8004b5a:	f002 fe97 	bl	800788c <__aeabi_dsub>
 8004b5e:	f817 c004 	ldrb.w	ip, [r7, r4]
 8004b62:	f1b5 3fff 	cmp.w	r5, #4294967295	; 0xffffffff
 8004b66:	46b1      	mov	r9, r6
 8004b68:	4682      	mov	sl, r0
 8004b6a:	f806 cb01 	strb.w	ip, [r6], #1
 8004b6e:	468b      	mov	fp, r1
 8004b70:	f04f 0200 	mov.w	r2, #0
 8004b74:	f04f 0300 	mov.w	r3, #0
 8004b78:	46a8      	mov	r8, r5
 8004b7a:	d1d9      	bne.n	8004b30 <_svfprintf_r+0x17a0>
 8004b7c:	4ba4      	ldr	r3, [pc, #656]	; (8004e10 <_svfprintf_r+0x1a80>)
 8004b7e:	9f19      	ldr	r7, [sp, #100]	; 0x64
 8004b80:	2200      	movs	r2, #0
 8004b82:	4650      	mov	r0, sl
 8004b84:	4659      	mov	r1, fp
 8004b86:	4645      	mov	r5, r8
 8004b88:	f8dd 8030 	ldr.w	r8, [sp, #48]	; 0x30
 8004b8c:	e9cd 940c 	strd	r9, r4, [sp, #48]	; 0x30
 8004b90:	9c18      	ldr	r4, [sp, #96]	; 0x60
 8004b92:	ee19 9a90 	vmov	r9, s19
 8004b96:	f003 fac1 	bl	800811c <__aeabi_dcmpgt>
 8004b9a:	2800      	cmp	r0, #0
 8004b9c:	d152      	bne.n	8004c44 <_svfprintf_r+0x18b4>
 8004b9e:	4b9c      	ldr	r3, [pc, #624]	; (8004e10 <_svfprintf_r+0x1a80>)
 8004ba0:	4650      	mov	r0, sl
 8004ba2:	4659      	mov	r1, fp
 8004ba4:	2200      	movs	r2, #0
 8004ba6:	f003 fa91 	bl	80080cc <__aeabi_dcmpeq>
 8004baa:	b110      	cbz	r0, 8004bb2 <_svfprintf_r+0x1822>
 8004bac:	9b0d      	ldr	r3, [sp, #52]	; 0x34
 8004bae:	07d9      	lsls	r1, r3, #31
 8004bb0:	d448      	bmi.n	8004c44 <_svfprintf_r+0x18b4>
 8004bb2:	2d00      	cmp	r5, #0
 8004bb4:	462b      	mov	r3, r5
 8004bb6:	db06      	blt.n	8004bc6 <_svfprintf_r+0x1836>
 8004bb8:	3301      	adds	r3, #1
 8004bba:	4433      	add	r3, r6
 8004bbc:	2230      	movs	r2, #48	; 0x30
 8004bbe:	f806 2b01 	strb.w	r2, [r6], #1
 8004bc2:	42b3      	cmp	r3, r6
 8004bc4:	d1fb      	bne.n	8004bbe <_svfprintf_r+0x182e>
 8004bc6:	1bf3      	subs	r3, r6, r7
 8004bc8:	930c      	str	r3, [sp, #48]	; 0x30
 8004bca:	9b0a      	ldr	r3, [sp, #40]	; 0x28
 8004bcc:	f8dd b008 	ldr.w	fp, [sp, #8]
 8004bd0:	9302      	str	r3, [sp, #8]
 8004bd2:	f7ff baf6 	b.w	80041c2 <_svfprintf_r+0xe32>
 8004bd6:	9007      	str	r0, [sp, #28]
 8004bd8:	e9dd 230e 	ldrd	r2, r3, [sp, #56]	; 0x38
 8004bdc:	f103 4300 	add.w	r3, r3, #2147483648	; 0x80000000
 8004be0:	ee08 3a90 	vmov	s17, r3
 8004be4:	232d      	movs	r3, #45	; 0x2d
 8004be6:	ee08 2a10 	vmov	s16, r2
 8004bea:	9317      	str	r3, [sp, #92]	; 0x5c
 8004bec:	e776      	b.n	8004adc <_svfprintf_r+0x174c>
 8004bee:	ee19 1a10 	vmov	r1, s18
 8004bf2:	aa22      	add	r2, sp, #136	; 0x88
 8004bf4:	4648      	mov	r0, r9
 8004bf6:	f002 fac5 	bl	8007184 <__ssprint_r>
 8004bfa:	2800      	cmp	r0, #0
 8004bfc:	f47f a840 	bne.w	8003c80 <_svfprintf_r+0x8f0>
 8004c00:	9b1c      	ldr	r3, [sp, #112]	; 0x70
 8004c02:	9a0c      	ldr	r2, [sp, #48]	; 0x30
 8004c04:	9d24      	ldr	r5, [sp, #144]	; 0x90
 8004c06:	1ad3      	subs	r3, r2, r3
 8004c08:	f10d 0894 	add.w	r8, sp, #148	; 0x94
 8004c0c:	f7ff b996 	b.w	8003f3c <_svfprintf_r+0xbac>
 8004c10:	2300      	movs	r3, #0
 8004c12:	9303      	str	r3, [sp, #12]
 8004c14:	f7fe bc0b 	b.w	800342e <_svfprintf_r+0x9e>
 8004c18:	ee19 1a10 	vmov	r1, s18
 8004c1c:	4648      	mov	r0, r9
 8004c1e:	aa22      	add	r2, sp, #136	; 0x88
 8004c20:	f002 fab0 	bl	8007184 <__ssprint_r>
 8004c24:	f8bb 300c 	ldrh.w	r3, [fp, #12]
 8004c28:	f7fe bd44 	b.w	80036b4 <_svfprintf_r+0x324>
 8004c2c:	46d3      	mov	fp, sl
 8004c2e:	f7ff b9b1 	b.w	8003f94 <_svfprintf_r+0xc04>
 8004c32:	e9dd b302 	ldrd	fp, r3, [sp, #8]
 8004c36:	18fd      	adds	r5, r7, r3
 8004c38:	9b0a      	ldr	r3, [sp, #40]	; 0x28
 8004c3a:	9302      	str	r3, [sp, #8]
 8004c3c:	2347      	movs	r3, #71	; 0x47
 8004c3e:	9306      	str	r3, [sp, #24]
 8004c40:	f7ff bab3 	b.w	80041aa <_svfprintf_r+0xe1a>
 8004c44:	9b0c      	ldr	r3, [sp, #48]	; 0x30
 8004c46:	9320      	str	r3, [sp, #128]	; 0x80
 8004c48:	9b0b      	ldr	r3, [sp, #44]	; 0x2c
 8004c4a:	f816 2c01 	ldrb.w	r2, [r6, #-1]
 8004c4e:	7bd9      	ldrb	r1, [r3, #15]
 8004c50:	428a      	cmp	r2, r1
 8004c52:	4633      	mov	r3, r6
 8004c54:	d109      	bne.n	8004c6a <_svfprintf_r+0x18da>
 8004c56:	2030      	movs	r0, #48	; 0x30
 8004c58:	f803 0c01 	strb.w	r0, [r3, #-1]
 8004c5c:	9b20      	ldr	r3, [sp, #128]	; 0x80
 8004c5e:	1e5a      	subs	r2, r3, #1
 8004c60:	9220      	str	r2, [sp, #128]	; 0x80
 8004c62:	f813 2c01 	ldrb.w	r2, [r3, #-1]
 8004c66:	4291      	cmp	r1, r2
 8004c68:	d0f6      	beq.n	8004c58 <_svfprintf_r+0x18c8>
 8004c6a:	2a39      	cmp	r2, #57	; 0x39
 8004c6c:	bf0b      	itete	eq
 8004c6e:	9a0b      	ldreq	r2, [sp, #44]	; 0x2c
 8004c70:	3201      	addne	r2, #1
 8004c72:	7a92      	ldrbeq	r2, [r2, #10]
 8004c74:	b2d2      	uxtbne	r2, r2
 8004c76:	f803 2c01 	strb.w	r2, [r3, #-1]
 8004c7a:	e7a4      	b.n	8004bc6 <_svfprintf_r+0x1836>
 8004c7c:	1c59      	adds	r1, r3, #1
 8004c7e:	4648      	mov	r0, r9
 8004c80:	f001 fa80 	bl	8006184 <_malloc_r>
 8004c84:	4607      	mov	r7, r0
 8004c86:	2800      	cmp	r0, #0
 8004c88:	f000 810f 	beq.w	8004eaa <_svfprintf_r+0x1b1a>
 8004c8c:	9007      	str	r0, [sp, #28]
 8004c8e:	e714      	b.n	8004aba <_svfprintf_r+0x172a>
 8004c90:	46ab      	mov	fp, r5
 8004c92:	4615      	mov	r5, r2
 8004c94:	3301      	adds	r3, #1
 8004c96:	4425      	add	r5, r4
 8004c98:	2b07      	cmp	r3, #7
 8004c9a:	e9cd 3523 	strd	r3, r5, [sp, #140]	; 0x8c
 8004c9e:	e9c8 b400 	strd	fp, r4, [r8]
 8004ca2:	f77f aca8 	ble.w	80045f6 <_svfprintf_r+0x1266>
 8004ca6:	ee19 1a10 	vmov	r1, s18
 8004caa:	aa22      	add	r2, sp, #136	; 0x88
 8004cac:	4648      	mov	r0, r9
 8004cae:	f002 fa69 	bl	8007184 <__ssprint_r>
 8004cb2:	2800      	cmp	r0, #0
 8004cb4:	f47e afe4 	bne.w	8003c80 <_svfprintf_r+0x8f0>
 8004cb8:	e9dd 3523 	ldrd	r3, r5, [sp, #140]	; 0x8c
 8004cbc:	f10d 0894 	add.w	r8, sp, #148	; 0x94
 8004cc0:	e49b      	b.n	80045fa <_svfprintf_r+0x126a>
 8004cc2:	2330      	movs	r3, #48	; 0x30
 8004cc4:	f88d 306c 	strb.w	r3, [sp, #108]	; 0x6c
 8004cc8:	2378      	movs	r3, #120	; 0x78
 8004cca:	e6ea      	b.n	8004aa2 <_svfprintf_r+0x1712>
 8004ccc:	2b00      	cmp	r3, #0
 8004cce:	461a      	mov	r2, r3
 8004cd0:	bf08      	it	eq
 8004cd2:	2201      	moveq	r2, #1
 8004cd4:	9b0f      	ldr	r3, [sp, #60]	; 0x3c
 8004cd6:	9203      	str	r2, [sp, #12]
 8004cd8:	9a02      	ldr	r2, [sp, #8]
 8004cda:	2b00      	cmp	r3, #0
 8004cdc:	f442 7280 	orr.w	r2, r2, #256	; 0x100
 8004ce0:	920a      	str	r2, [sp, #40]	; 0x28
 8004ce2:	f6ff af78 	blt.w	8004bd6 <_svfprintf_r+0x1846>
 8004ce6:	e9dd ab0e 	ldrd	sl, fp, [sp, #56]	; 0x38
 8004cea:	aa20      	add	r2, sp, #128	; 0x80
 8004cec:	ab1d      	add	r3, sp, #116	; 0x74
 8004cee:	e9cd 3200 	strd	r3, r2, [sp]
 8004cf2:	ec4b ab10 	vmov	d0, sl, fp
 8004cf6:	9a03      	ldr	r2, [sp, #12]
 8004cf8:	9517      	str	r5, [sp, #92]	; 0x5c
 8004cfa:	ab1c      	add	r3, sp, #112	; 0x70
 8004cfc:	2102      	movs	r1, #2
 8004cfe:	4648      	mov	r0, r9
 8004d00:	f000 f972 	bl	8004fe8 <_dtoa_r>
 8004d04:	ec4b ab18 	vmov	d8, sl, fp
 8004d08:	4607      	mov	r7, r0
 8004d0a:	9507      	str	r5, [sp, #28]
 8004d0c:	e66b      	b.n	80049e6 <_svfprintf_r+0x1656>
 8004d0e:	9307      	str	r3, [sp, #28]
 8004d10:	e762      	b.n	8004bd8 <_svfprintf_r+0x1848>
 8004d12:	a81c      	add	r0, sp, #112	; 0x70
 8004d14:	eeb0 0a48 	vmov.f32	s0, s16
 8004d18:	eef0 0a68 	vmov.f32	s1, s17
 8004d1c:	f002 f92a 	bl	8006f74 <frexp>
 8004d20:	2200      	movs	r2, #0
 8004d22:	f04f 537f 	mov.w	r3, #1069547520	; 0x3fc00000
 8004d26:	ec51 0b10 	vmov	r0, r1, d0
 8004d2a:	f002 ff67 	bl	8007bfc <__aeabi_dmul>
 8004d2e:	2200      	movs	r2, #0
 8004d30:	2300      	movs	r3, #0
 8004d32:	4682      	mov	sl, r0
 8004d34:	468b      	mov	fp, r1
 8004d36:	f003 f9c9 	bl	80080cc <__aeabi_dcmpeq>
 8004d3a:	b108      	cbz	r0, 8004d40 <_svfprintf_r+0x19b0>
 8004d3c:	2301      	movs	r3, #1
 8004d3e:	931c      	str	r3, [sp, #112]	; 0x70
 8004d40:	4b34      	ldr	r3, [pc, #208]	; (8004e14 <_svfprintf_r+0x1a84>)
 8004d42:	930b      	str	r3, [sp, #44]	; 0x2c
 8004d44:	e6e9      	b.n	8004b1a <_svfprintf_r+0x178a>
 8004d46:	f104 020f 	add.w	r2, r4, #15
 8004d4a:	b2d2      	uxtb	r2, r2
 8004d4c:	2101      	movs	r1, #1
 8004d4e:	f7ff ba4b 	b.w	80041e8 <_svfprintf_r+0xe58>
 8004d52:	9b0f      	ldr	r3, [sp, #60]	; 0x3c
 8004d54:	4f30      	ldr	r7, [pc, #192]	; (8004e18 <_svfprintf_r+0x1a88>)
 8004d56:	2b00      	cmp	r3, #0
 8004d58:	bfb4      	ite	lt
 8004d5a:	222d      	movlt	r2, #45	; 0x2d
 8004d5c:	f89d 206b 	ldrbge.w	r2, [sp, #107]	; 0x6b
 8004d60:	4b2e      	ldr	r3, [pc, #184]	; (8004e1c <_svfprintf_r+0x1a8c>)
 8004d62:	bfb8      	it	lt
 8004d64:	f88d 206b 	strblt.w	r2, [sp, #107]	; 0x6b
 8004d68:	f7fe bce6 	b.w	8003738 <_svfprintf_r+0x3a8>
 8004d6c:	ee19 ba10 	vmov	fp, s18
 8004d70:	f8bb 300c 	ldrh.w	r3, [fp, #12]
 8004d74:	f7fe bc9e 	b.w	80036b4 <_svfprintf_r+0x324>
 8004d78:	2900      	cmp	r1, #0
 8004d7a:	d167      	bne.n	8004e4c <_svfprintf_r+0x1abc>
 8004d7c:	2230      	movs	r2, #48	; 0x30
 8004d7e:	f88d 207a 	strb.w	r2, [sp, #122]	; 0x7a
 8004d82:	f10d 027b 	add.w	r2, sp, #123	; 0x7b
 8004d86:	3330      	adds	r3, #48	; 0x30
 8004d88:	f802 3b01 	strb.w	r3, [r2], #1
 8004d8c:	ab1e      	add	r3, sp, #120	; 0x78
 8004d8e:	1ad3      	subs	r3, r2, r3
 8004d90:	9314      	str	r3, [sp, #80]	; 0x50
 8004d92:	f7ff ba6b 	b.w	800426c <_svfprintf_r+0xedc>
 8004d96:	9b0b      	ldr	r3, [sp, #44]	; 0x2c
 8004d98:	9306      	str	r3, [sp, #24]
 8004d9a:	e5c7      	b.n	800492c <_svfprintf_r+0x159c>
 8004d9c:	9b10      	ldr	r3, [sp, #64]	; 0x40
 8004d9e:	eb02 0a03 	add.w	sl, r2, r3
 8004da2:	4451      	add	r1, sl
 8004da4:	9106      	str	r1, [sp, #24]
 8004da6:	2466      	movs	r4, #102	; 0x66
 8004da8:	e665      	b.n	8004a76 <_svfprintf_r+0x16e6>
 8004daa:	2467      	movs	r4, #103	; 0x67
 8004dac:	9913      	ldr	r1, [sp, #76]	; 0x4c
 8004dae:	780b      	ldrb	r3, [r1, #0]
 8004db0:	2bff      	cmp	r3, #255	; 0xff
 8004db2:	d076      	beq.n	8004ea2 <_svfprintf_r+0x1b12>
 8004db4:	2500      	movs	r5, #0
 8004db6:	9a0b      	ldr	r2, [sp, #44]	; 0x2c
 8004db8:	4628      	mov	r0, r5
 8004dba:	e003      	b.n	8004dc4 <_svfprintf_r+0x1a34>
 8004dbc:	3001      	adds	r0, #1
 8004dbe:	3101      	adds	r1, #1
 8004dc0:	2bff      	cmp	r3, #255	; 0xff
 8004dc2:	d008      	beq.n	8004dd6 <_svfprintf_r+0x1a46>
 8004dc4:	4293      	cmp	r3, r2
 8004dc6:	da06      	bge.n	8004dd6 <_svfprintf_r+0x1a46>
 8004dc8:	1ad2      	subs	r2, r2, r3
 8004dca:	784b      	ldrb	r3, [r1, #1]
 8004dcc:	2b00      	cmp	r3, #0
 8004dce:	d1f5      	bne.n	8004dbc <_svfprintf_r+0x1a2c>
 8004dd0:	780b      	ldrb	r3, [r1, #0]
 8004dd2:	3501      	adds	r5, #1
 8004dd4:	e7f4      	b.n	8004dc0 <_svfprintf_r+0x1a30>
 8004dd6:	9113      	str	r1, [sp, #76]	; 0x4c
 8004dd8:	920b      	str	r2, [sp, #44]	; 0x2c
 8004dda:	900d      	str	r0, [sp, #52]	; 0x34
 8004ddc:	950a      	str	r5, [sp, #40]	; 0x28
 8004dde:	9a0a      	ldr	r2, [sp, #40]	; 0x28
 8004de0:	9b0d      	ldr	r3, [sp, #52]	; 0x34
 8004de2:	9906      	ldr	r1, [sp, #24]
 8004de4:	4413      	add	r3, r2
 8004de6:	9a16      	ldr	r2, [sp, #88]	; 0x58
 8004de8:	fb02 1303 	mla	r3, r2, r3, r1
 8004dec:	9306      	str	r3, [sp, #24]
 8004dee:	ea23 7ae3 	bic.w	sl, r3, r3, asr #31
 8004df2:	f7ff ba52 	b.w	800429a <_svfprintf_r+0xf0a>
 8004df6:	f1c3 0301 	rsb	r3, r3, #1
 8004dfa:	441a      	add	r2, r3
 8004dfc:	9206      	str	r2, [sp, #24]
 8004dfe:	ea22 7ae2 	bic.w	sl, r2, r2, asr #31
 8004e02:	2467      	movs	r4, #103	; 0x67
 8004e04:	e59d      	b.n	8004942 <_svfprintf_r+0x15b2>
 8004e06:	bf00      	nop
 8004e08:	08008d84 	.word	0x08008d84
 8004e0c:	40300000 	.word	0x40300000
 8004e10:	3fe00000 	.word	0x3fe00000
 8004e14:	08008d70 	.word	0x08008d70
 8004e18:	08008d68 	.word	0x08008d68
 8004e1c:	08008d6c 	.word	0x08008d6c
 8004e20:	08008db4 	.word	0x08008db4
 8004e24:	ec51 0b18 	vmov	r0, r1, d8
 8004e28:	2200      	movs	r2, #0
 8004e2a:	2300      	movs	r3, #0
 8004e2c:	f003 f94e 	bl	80080cc <__aeabi_dcmpeq>
 8004e30:	2800      	cmp	r0, #0
 8004e32:	f47f adfd 	bne.w	8004a30 <_svfprintf_r+0x16a0>
 8004e36:	9b03      	ldr	r3, [sp, #12]
 8004e38:	f1c3 0301 	rsb	r3, r3, #1
 8004e3c:	931c      	str	r3, [sp, #112]	; 0x70
 8004e3e:	e5f8      	b.n	8004a32 <_svfprintf_r+0x16a2>
 8004e40:	f01b 0f01 	tst.w	fp, #1
 8004e44:	f43f aa1d 	beq.w	8004282 <_svfprintf_r+0xef2>
 8004e48:	f7ff ba17 	b.w	800427a <_svfprintf_r+0xeea>
 8004e4c:	f10d 027a 	add.w	r2, sp, #122	; 0x7a
 8004e50:	e799      	b.n	8004d86 <_svfprintf_r+0x19f6>
 8004e52:	9b03      	ldr	r3, [sp, #12]
 8004e54:	f00b 0601 	and.w	r6, fp, #1
 8004e58:	ea56 0203 	orrs.w	r2, r6, r3
 8004e5c:	d105      	bne.n	8004e6a <_svfprintf_r+0x1ada>
 8004e5e:	f04f 0a01 	mov.w	sl, #1
 8004e62:	f8cd a018 	str.w	sl, [sp, #24]
 8004e66:	2466      	movs	r4, #102	; 0x66
 8004e68:	e56b      	b.n	8004942 <_svfprintf_r+0x15b2>
 8004e6a:	9a10      	ldr	r2, [sp, #64]	; 0x40
 8004e6c:	f102 0a01 	add.w	sl, r2, #1
 8004e70:	4453      	add	r3, sl
 8004e72:	9306      	str	r3, [sp, #24]
 8004e74:	ea23 7ae3 	bic.w	sl, r3, r3, asr #31
 8004e78:	2466      	movs	r4, #102	; 0x66
 8004e7a:	e562      	b.n	8004942 <_svfprintf_r+0x15b2>
 8004e7c:	9b08      	ldr	r3, [sp, #32]
 8004e7e:	7874      	ldrb	r4, [r6, #1]
 8004e80:	f853 1b04 	ldr.w	r1, [r3], #4
 8004e84:	9308      	str	r3, [sp, #32]
 8004e86:	4616      	mov	r6, r2
 8004e88:	ea41 72e1 	orr.w	r2, r1, r1, asr #31
 8004e8c:	9203      	str	r2, [sp, #12]
 8004e8e:	f7fe bacd 	b.w	800342c <_svfprintf_r+0x9c>
 8004e92:	230c      	movs	r3, #12
 8004e94:	f8c9 3000 	str.w	r3, [r9]
 8004e98:	f04f 33ff 	mov.w	r3, #4294967295	; 0xffffffff
 8004e9c:	9304      	str	r3, [sp, #16]
 8004e9e:	f7fe bc10 	b.w	80036c2 <_svfprintf_r+0x332>
 8004ea2:	2300      	movs	r3, #0
 8004ea4:	930a      	str	r3, [sp, #40]	; 0x28
 8004ea6:	930d      	str	r3, [sp, #52]	; 0x34
 8004ea8:	e799      	b.n	8004dde <_svfprintf_r+0x1a4e>
 8004eaa:	ee19 ba10 	vmov	fp, s18
 8004eae:	f8bb 300c 	ldrh.w	r3, [fp, #12]
 8004eb2:	f043 0340 	orr.w	r3, r3, #64	; 0x40
 8004eb6:	f8ab 300c 	strh.w	r3, [fp, #12]
 8004eba:	f7fe bbfb 	b.w	80036b4 <_svfprintf_r+0x324>
 8004ebe:	2302      	movs	r3, #2
 8004ec0:	9314      	str	r3, [sp, #80]	; 0x50
 8004ec2:	f7ff b9d3 	b.w	800426c <_svfprintf_r+0xedc>
 8004ec6:	bf00      	nop

08004ec8 <quorem>:
 8004ec8:	e92d 4ff0 	stmdb	sp!, {r4, r5, r6, r7, r8, r9, sl, fp, lr}
 8004ecc:	6903      	ldr	r3, [r0, #16]
 8004ece:	690e      	ldr	r6, [r1, #16]
 8004ed0:	42b3      	cmp	r3, r6
 8004ed2:	b083      	sub	sp, #12
 8004ed4:	f2c0 8082 	blt.w	8004fdc <quorem+0x114>
 8004ed8:	3e01      	subs	r6, #1
 8004eda:	f101 0714 	add.w	r7, r1, #20
 8004ede:	f100 0a14 	add.w	sl, r0, #20
 8004ee2:	f857 3026 	ldr.w	r3, [r7, r6, lsl #2]
 8004ee6:	f85a 2026 	ldr.w	r2, [sl, r6, lsl #2]
 8004eea:	3301      	adds	r3, #1
 8004eec:	4683      	mov	fp, r0
 8004eee:	00b0      	lsls	r0, r6, #2
 8004ef0:	9000      	str	r0, [sp, #0]
 8004ef2:	429a      	cmp	r2, r3
 8004ef4:	eb0a 0086 	add.w	r0, sl, r6, lsl #2
 8004ef8:	eb07 0986 	add.w	r9, r7, r6, lsl #2
 8004efc:	9001      	str	r0, [sp, #4]
 8004efe:	fbb2 f8f3 	udiv	r8, r2, r3
 8004f02:	d336      	bcc.n	8004f72 <quorem+0xaa>
 8004f04:	2500      	movs	r5, #0
 8004f06:	462a      	mov	r2, r5
 8004f08:	46bc      	mov	ip, r7
 8004f0a:	4650      	mov	r0, sl
 8004f0c:	f85c 4b04 	ldr.w	r4, [ip], #4
 8004f10:	6803      	ldr	r3, [r0, #0]
 8004f12:	fa1f fe84 	uxth.w	lr, r4
 8004f16:	fb08 550e 	mla	r5, r8, lr, r5
 8004f1a:	ea4f 4e15 	mov.w	lr, r5, lsr #16
 8004f1e:	0c24      	lsrs	r4, r4, #16
 8004f20:	fb08 e404 	mla	r4, r8, r4, lr
 8004f24:	b2ad      	uxth	r5, r5
 8004f26:	1b55      	subs	r5, r2, r5
 8004f28:	b2a2      	uxth	r2, r4
 8004f2a:	ebc2 4213 	rsb	r2, r2, r3, lsr #16
 8004f2e:	fa15 f383 	uxtah	r3, r5, r3
 8004f32:	eb02 4223 	add.w	r2, r2, r3, asr #16
 8004f36:	b29b      	uxth	r3, r3
 8004f38:	ea43 4302 	orr.w	r3, r3, r2, lsl #16
 8004f3c:	45e1      	cmp	r9, ip
 8004f3e:	f840 3b04 	str.w	r3, [r0], #4
 8004f42:	ea4f 4514 	mov.w	r5, r4, lsr #16
 8004f46:	ea4f 4222 	mov.w	r2, r2, asr #16
 8004f4a:	d2df      	bcs.n	8004f0c <quorem+0x44>
 8004f4c:	9b00      	ldr	r3, [sp, #0]
 8004f4e:	f85a 3003 	ldr.w	r3, [sl, r3]
 8004f52:	b973      	cbnz	r3, 8004f72 <quorem+0xaa>
 8004f54:	9b01      	ldr	r3, [sp, #4]
 8004f56:	3b04      	subs	r3, #4
 8004f58:	459a      	cmp	sl, r3
 8004f5a:	d304      	bcc.n	8004f66 <quorem+0x9e>
 8004f5c:	e007      	b.n	8004f6e <quorem+0xa6>
 8004f5e:	459a      	cmp	sl, r3
 8004f60:	f106 36ff 	add.w	r6, r6, #4294967295	; 0xffffffff
 8004f64:	d203      	bcs.n	8004f6e <quorem+0xa6>
 8004f66:	f853 2904 	ldr.w	r2, [r3], #-4
 8004f6a:	2a00      	cmp	r2, #0
 8004f6c:	d0f7      	beq.n	8004f5e <quorem+0x96>
 8004f6e:	f8cb 6010 	str.w	r6, [fp, #16]
 8004f72:	4658      	mov	r0, fp
 8004f74:	f001 fee6 	bl	8006d44 <__mcmp>
 8004f78:	2800      	cmp	r0, #0
 8004f7a:	db2b      	blt.n	8004fd4 <quorem+0x10c>
 8004f7c:	f108 0801 	add.w	r8, r8, #1
 8004f80:	4650      	mov	r0, sl
 8004f82:	2300      	movs	r3, #0
 8004f84:	f857 1b04 	ldr.w	r1, [r7], #4
 8004f88:	6804      	ldr	r4, [r0, #0]
 8004f8a:	b28a      	uxth	r2, r1
 8004f8c:	1a9a      	subs	r2, r3, r2
 8004f8e:	0c0b      	lsrs	r3, r1, #16
 8004f90:	fa12 f284 	uxtah	r2, r2, r4
 8004f94:	ebc3 4314 	rsb	r3, r3, r4, lsr #16
 8004f98:	eb03 4322 	add.w	r3, r3, r2, asr #16
 8004f9c:	b292      	uxth	r2, r2
 8004f9e:	ea42 4203 	orr.w	r2, r2, r3, lsl #16
 8004fa2:	45b9      	cmp	r9, r7
 8004fa4:	f840 2b04 	str.w	r2, [r0], #4
 8004fa8:	ea4f 4323 	mov.w	r3, r3, asr #16
 8004fac:	d2ea      	bcs.n	8004f84 <quorem+0xbc>
 8004fae:	f85a 2026 	ldr.w	r2, [sl, r6, lsl #2]
 8004fb2:	eb0a 0386 	add.w	r3, sl, r6, lsl #2
 8004fb6:	b96a      	cbnz	r2, 8004fd4 <quorem+0x10c>
 8004fb8:	3b04      	subs	r3, #4
 8004fba:	459a      	cmp	sl, r3
 8004fbc:	d304      	bcc.n	8004fc8 <quorem+0x100>
 8004fbe:	e007      	b.n	8004fd0 <quorem+0x108>
 8004fc0:	459a      	cmp	sl, r3
 8004fc2:	f106 36ff 	add.w	r6, r6, #4294967295	; 0xffffffff
 8004fc6:	d203      	bcs.n	8004fd0 <quorem+0x108>
 8004fc8:	f853 2904 	ldr.w	r2, [r3], #-4
 8004fcc:	2a00      	cmp	r2, #0
 8004fce:	d0f7      	beq.n	8004fc0 <quorem+0xf8>
 8004fd0:	f8cb 6010 	str.w	r6, [fp, #16]
 8004fd4:	4640      	mov	r0, r8
 8004fd6:	b003      	add	sp, #12
 8004fd8:	e8bd 8ff0 	ldmia.w	sp!, {r4, r5, r6, r7, r8, r9, sl, fp, pc}
 8004fdc:	2000      	movs	r0, #0
 8004fde:	b003      	add	sp, #12
 8004fe0:	e8bd 8ff0 	ldmia.w	sp!, {r4, r5, r6, r7, r8, r9, sl, fp, pc}
 8004fe4:	0000      	movs	r0, r0
	...

08004fe8 <_dtoa_r>:
 8004fe8:	e92d 4ff0 	stmdb	sp!, {r4, r5, r6, r7, r8, r9, sl, fp, lr}
 8004fec:	ed2d 8b04 	vpush	{d8-d9}
 8004ff0:	ec57 6b10 	vmov	r6, r7, d0
 8004ff4:	b099      	sub	sp, #100	; 0x64
 8004ff6:	6c05      	ldr	r5, [r0, #64]	; 0x40
 8004ff8:	9106      	str	r1, [sp, #24]
 8004ffa:	e9cd 6704 	strd	r6, r7, [sp, #16]
 8004ffe:	4604      	mov	r4, r0
 8005000:	920c      	str	r2, [sp, #48]	; 0x30
 8005002:	9309      	str	r3, [sp, #36]	; 0x24
 8005004:	b14d      	cbz	r5, 800501a <_dtoa_r+0x32>
 8005006:	6c42      	ldr	r2, [r0, #68]	; 0x44
 8005008:	606a      	str	r2, [r5, #4]
 800500a:	2301      	movs	r3, #1
 800500c:	4093      	lsls	r3, r2
 800500e:	60ab      	str	r3, [r5, #8]
 8005010:	4629      	mov	r1, r5
 8005012:	f001 fc91 	bl	8006938 <_Bfree>
 8005016:	2300      	movs	r3, #0
 8005018:	6423      	str	r3, [r4, #64]	; 0x40
 800501a:	f1b7 0900 	subs.w	r9, r7, #0
 800501e:	9a26      	ldr	r2, [sp, #152]	; 0x98
 8005020:	bfb4      	ite	lt
 8005022:	2301      	movlt	r3, #1
 8005024:	2300      	movge	r3, #0
 8005026:	6013      	str	r3, [r2, #0]
 8005028:	4b77      	ldr	r3, [pc, #476]	; (8005208 <_dtoa_r+0x220>)
 800502a:	bfbc      	itt	lt
 800502c:	f029 4900 	biclt.w	r9, r9, #2147483648	; 0x80000000
 8005030:	f8cd 9014 	strlt.w	r9, [sp, #20]
 8005034:	ea33 0309 	bics.w	r3, r3, r9
 8005038:	f000 80ab 	beq.w	8005192 <_dtoa_r+0x1aa>
 800503c:	ed9d 7b04 	vldr	d7, [sp, #16]
 8005040:	2200      	movs	r2, #0
 8005042:	ec51 0b17 	vmov	r0, r1, d7
 8005046:	2300      	movs	r3, #0
 8005048:	ed8d 7b02 	vstr	d7, [sp, #8]
 800504c:	f003 f83e 	bl	80080cc <__aeabi_dcmpeq>
 8005050:	4680      	mov	r8, r0
 8005052:	b180      	cbz	r0, 8005076 <_dtoa_r+0x8e>
 8005054:	9a09      	ldr	r2, [sp, #36]	; 0x24
 8005056:	2301      	movs	r3, #1
 8005058:	6013      	str	r3, [r2, #0]
 800505a:	9b27      	ldr	r3, [sp, #156]	; 0x9c
 800505c:	2b00      	cmp	r3, #0
 800505e:	f000 82d8 	beq.w	8005612 <_dtoa_r+0x62a>
 8005062:	486a      	ldr	r0, [pc, #424]	; (800520c <_dtoa_r+0x224>)
 8005064:	6018      	str	r0, [r3, #0]
 8005066:	1e43      	subs	r3, r0, #1
 8005068:	9301      	str	r3, [sp, #4]
 800506a:	9801      	ldr	r0, [sp, #4]
 800506c:	b019      	add	sp, #100	; 0x64
 800506e:	ecbd 8b04 	vpop	{d8-d9}
 8005072:	e8bd 8ff0 	ldmia.w	sp!, {r4, r5, r6, r7, r8, r9, sl, fp, pc}
 8005076:	ed9d 0b02 	vldr	d0, [sp, #8]
 800507a:	aa16      	add	r2, sp, #88	; 0x58
 800507c:	a917      	add	r1, sp, #92	; 0x5c
 800507e:	4620      	mov	r0, r4
 8005080:	f001 ff1a 	bl	8006eb8 <__d2b>
 8005084:	ea5f 5519 	movs.w	r5, r9, lsr #20
 8005088:	4682      	mov	sl, r0
 800508a:	f040 809a 	bne.w	80051c2 <_dtoa_r+0x1da>
 800508e:	e9dd 8516 	ldrd	r8, r5, [sp, #88]	; 0x58
 8005092:	4445      	add	r5, r8
 8005094:	f205 4032 	addw	r0, r5, #1074	; 0x432
 8005098:	2820      	cmp	r0, #32
 800509a:	f340 83ae 	ble.w	80057fa <_dtoa_r+0x812>
 800509e:	f1c0 0340 	rsb	r3, r0, #64	; 0x40
 80050a2:	f205 4012 	addw	r0, r5, #1042	; 0x412
 80050a6:	fa09 f903 	lsl.w	r9, r9, r3
 80050aa:	fa26 f000 	lsr.w	r0, r6, r0
 80050ae:	ea49 0000 	orr.w	r0, r9, r0
 80050b2:	f002 fd29 	bl	8007b08 <__aeabi_ui2d>
 80050b6:	2301      	movs	r3, #1
 80050b8:	3d01      	subs	r5, #1
 80050ba:	f1a1 71f8 	sub.w	r1, r1, #32505856	; 0x1f00000
 80050be:	9310      	str	r3, [sp, #64]	; 0x40
 80050c0:	4b53      	ldr	r3, [pc, #332]	; (8005210 <_dtoa_r+0x228>)
 80050c2:	2200      	movs	r2, #0
 80050c4:	f002 fbe2 	bl	800788c <__aeabi_dsub>
 80050c8:	a349      	add	r3, pc, #292	; (adr r3, 80051f0 <_dtoa_r+0x208>)
 80050ca:	e9d3 2300 	ldrd	r2, r3, [r3]
 80050ce:	f002 fd95 	bl	8007bfc <__aeabi_dmul>
 80050d2:	a349      	add	r3, pc, #292	; (adr r3, 80051f8 <_dtoa_r+0x210>)
 80050d4:	e9d3 2300 	ldrd	r2, r3, [r3]
 80050d8:	f002 fbda 	bl	8007890 <__adddf3>
 80050dc:	4606      	mov	r6, r0
 80050de:	4628      	mov	r0, r5
 80050e0:	460f      	mov	r7, r1
 80050e2:	f002 fd21 	bl	8007b28 <__aeabi_i2d>
 80050e6:	a346      	add	r3, pc, #280	; (adr r3, 8005200 <_dtoa_r+0x218>)
 80050e8:	e9d3 2300 	ldrd	r2, r3, [r3]
 80050ec:	f002 fd86 	bl	8007bfc <__aeabi_dmul>
 80050f0:	4602      	mov	r2, r0
 80050f2:	460b      	mov	r3, r1
 80050f4:	4630      	mov	r0, r6
 80050f6:	4639      	mov	r1, r7
 80050f8:	f002 fbca 	bl	8007890 <__adddf3>
 80050fc:	4606      	mov	r6, r0
 80050fe:	460f      	mov	r7, r1
 8005100:	f003 f82c 	bl	800815c <__aeabi_d2iz>
 8005104:	2200      	movs	r2, #0
 8005106:	4683      	mov	fp, r0
 8005108:	2300      	movs	r3, #0
 800510a:	4630      	mov	r0, r6
 800510c:	4639      	mov	r1, r7
 800510e:	f002 ffe7 	bl	80080e0 <__aeabi_dcmplt>
 8005112:	2800      	cmp	r0, #0
 8005114:	f040 8270 	bne.w	80055f8 <_dtoa_r+0x610>
 8005118:	f1bb 0f16 	cmp.w	fp, #22
 800511c:	f200 825e 	bhi.w	80055dc <_dtoa_r+0x5f4>
 8005120:	4b3c      	ldr	r3, [pc, #240]	; (8005214 <_dtoa_r+0x22c>)
 8005122:	eb03 03cb 	add.w	r3, r3, fp, lsl #3
 8005126:	e9d3 2300 	ldrd	r2, r3, [r3]
 800512a:	e9dd 0102 	ldrd	r0, r1, [sp, #8]
 800512e:	f002 ffd7 	bl	80080e0 <__aeabi_dcmplt>
 8005132:	2800      	cmp	r0, #0
 8005134:	d074      	beq.n	8005220 <_dtoa_r+0x238>
 8005136:	2300      	movs	r3, #0
 8005138:	eba8 0505 	sub.w	r5, r8, r5
 800513c:	930f      	str	r3, [sp, #60]	; 0x3c
 800513e:	1e6b      	subs	r3, r5, #1
 8005140:	f10b 3bff 	add.w	fp, fp, #4294967295	; 0xffffffff
 8005144:	9307      	str	r3, [sp, #28]
 8005146:	f100 8251 	bmi.w	80055ec <_dtoa_r+0x604>
 800514a:	2300      	movs	r3, #0
 800514c:	930a      	str	r3, [sp, #40]	; 0x28
 800514e:	f1bb 0f00 	cmp.w	fp, #0
 8005152:	da6d      	bge.n	8005230 <_dtoa_r+0x248>
 8005154:	9b0a      	ldr	r3, [sp, #40]	; 0x28
 8005156:	f8cd b020 	str.w	fp, [sp, #32]
 800515a:	eba3 030b 	sub.w	r3, r3, fp
 800515e:	930a      	str	r3, [sp, #40]	; 0x28
 8005160:	f1cb 0300 	rsb	r3, fp, #0
 8005164:	930e      	str	r3, [sp, #56]	; 0x38
 8005166:	9b06      	ldr	r3, [sp, #24]
 8005168:	2b09      	cmp	r3, #9
 800516a:	f04f 0b00 	mov.w	fp, #0
 800516e:	d868      	bhi.n	8005242 <_dtoa_r+0x25a>
 8005170:	2b05      	cmp	r3, #5
 8005172:	f340 8340 	ble.w	80057f6 <_dtoa_r+0x80e>
 8005176:	3b04      	subs	r3, #4
 8005178:	9306      	str	r3, [sp, #24]
 800517a:	2500      	movs	r5, #0
 800517c:	9b06      	ldr	r3, [sp, #24]
 800517e:	3b02      	subs	r3, #2
 8005180:	2b03      	cmp	r3, #3
 8005182:	f200 868c 	bhi.w	8005e9e <_dtoa_r+0xeb6>
 8005186:	e8df f013 	tbh	[pc, r3, lsl #1]
 800518a:	045b      	.short	0x045b
 800518c:	04500458 	.word	0x04500458
 8005190:	0433      	.short	0x0433
 8005192:	9a09      	ldr	r2, [sp, #36]	; 0x24
 8005194:	f242 730f 	movw	r3, #9999	; 0x270f
 8005198:	f3c9 0913 	ubfx	r9, r9, #0, #20
 800519c:	6013      	str	r3, [r2, #0]
 800519e:	ea59 0306 	orrs.w	r3, r9, r6
 80051a2:	d11e      	bne.n	80051e2 <_dtoa_r+0x1fa>
 80051a4:	9b27      	ldr	r3, [sp, #156]	; 0x9c
 80051a6:	2b00      	cmp	r3, #0
 80051a8:	f000 8670 	beq.w	8005e8c <_dtoa_r+0xea4>
 80051ac:	4b1a      	ldr	r3, [pc, #104]	; (8005218 <_dtoa_r+0x230>)
 80051ae:	9301      	str	r3, [sp, #4]
 80051b0:	3308      	adds	r3, #8
 80051b2:	9a27      	ldr	r2, [sp, #156]	; 0x9c
 80051b4:	9801      	ldr	r0, [sp, #4]
 80051b6:	6013      	str	r3, [r2, #0]
 80051b8:	b019      	add	sp, #100	; 0x64
 80051ba:	ecbd 8b04 	vpop	{d8-d9}
 80051be:	e8bd 8ff0 	ldmia.w	sp!, {r4, r5, r6, r7, r8, r9, sl, fp, pc}
 80051c2:	e9dd 1202 	ldrd	r1, r2, [sp, #8]
 80051c6:	f3c2 0313 	ubfx	r3, r2, #0, #20
 80051ca:	4608      	mov	r0, r1
 80051cc:	f043 517f 	orr.w	r1, r3, #1069547520	; 0x3fc00000
 80051d0:	f8cd 8040 	str.w	r8, [sp, #64]	; 0x40
 80051d4:	f2a5 35ff 	subw	r5, r5, #1023	; 0x3ff
 80051d8:	f8dd 8058 	ldr.w	r8, [sp, #88]	; 0x58
 80051dc:	f441 1140 	orr.w	r1, r1, #3145728	; 0x300000
 80051e0:	e76e      	b.n	80050c0 <_dtoa_r+0xd8>
 80051e2:	9b27      	ldr	r3, [sp, #156]	; 0x9c
 80051e4:	2b00      	cmp	r3, #0
 80051e6:	f040 83f2 	bne.w	80059ce <_dtoa_r+0x9e6>
 80051ea:	4b0c      	ldr	r3, [pc, #48]	; (800521c <_dtoa_r+0x234>)
 80051ec:	9301      	str	r3, [sp, #4]
 80051ee:	e73c      	b.n	800506a <_dtoa_r+0x82>
 80051f0:	636f4361 	.word	0x636f4361
 80051f4:	3fd287a7 	.word	0x3fd287a7
 80051f8:	8b60c8b3 	.word	0x8b60c8b3
 80051fc:	3fc68a28 	.word	0x3fc68a28
 8005200:	509f79fb 	.word	0x509f79fb
 8005204:	3fd34413 	.word	0x3fd34413
 8005208:	7ff00000 	.word	0x7ff00000
 800520c:	08008da1 	.word	0x08008da1
 8005210:	3ff80000 	.word	0x3ff80000
 8005214:	08008e00 	.word	0x08008e00
 8005218:	08008dc8 	.word	0x08008dc8
 800521c:	08008dc4 	.word	0x08008dc4
 8005220:	eba8 0505 	sub.w	r5, r8, r5
 8005224:	1e6b      	subs	r3, r5, #1
 8005226:	9307      	str	r3, [sp, #28]
 8005228:	f100 84bf 	bmi.w	8005baa <_dtoa_r+0xbc2>
 800522c:	900f      	str	r0, [sp, #60]	; 0x3c
 800522e:	900a      	str	r0, [sp, #40]	; 0x28
 8005230:	9b07      	ldr	r3, [sp, #28]
 8005232:	445b      	add	r3, fp
 8005234:	e9cd 3b07 	strd	r3, fp, [sp, #28]
 8005238:	2300      	movs	r3, #0
 800523a:	930e      	str	r3, [sp, #56]	; 0x38
 800523c:	9b06      	ldr	r3, [sp, #24]
 800523e:	2b09      	cmp	r3, #9
 8005240:	d996      	bls.n	8005170 <_dtoa_r+0x188>
 8005242:	2300      	movs	r3, #0
 8005244:	2501      	movs	r5, #1
 8005246:	e9cd 350c 	strd	r3, r5, [sp, #48]	; 0x30
 800524a:	f04f 36ff 	mov.w	r6, #4294967295	; 0xffffffff
 800524e:	9306      	str	r3, [sp, #24]
 8005250:	960b      	str	r6, [sp, #44]	; 0x2c
 8005252:	2100      	movs	r1, #0
 8005254:	6461      	str	r1, [r4, #68]	; 0x44
 8005256:	9611      	str	r6, [sp, #68]	; 0x44
 8005258:	4620      	mov	r0, r4
 800525a:	f001 fb47 	bl	80068ec <_Balloc>
 800525e:	2e0e      	cmp	r6, #14
 8005260:	9001      	str	r0, [sp, #4]
 8005262:	6420      	str	r0, [r4, #64]	; 0x40
 8005264:	f200 80f7 	bhi.w	8005456 <_dtoa_r+0x46e>
 8005268:	2d00      	cmp	r5, #0
 800526a:	f000 80f4 	beq.w	8005456 <_dtoa_r+0x46e>
 800526e:	9908      	ldr	r1, [sp, #32]
 8005270:	2900      	cmp	r1, #0
 8005272:	f340 8464 	ble.w	8005b3e <_dtoa_r+0xb56>
 8005276:	4bc0      	ldr	r3, [pc, #768]	; (8005578 <_dtoa_r+0x590>)
 8005278:	f001 020f 	and.w	r2, r1, #15
 800527c:	eb03 03c2 	add.w	r3, r3, r2, lsl #3
 8005280:	05ca      	lsls	r2, r1, #23
 8005282:	e9d3 6700 	ldrd	r6, r7, [r3]
 8005286:	ea4f 1521 	mov.w	r5, r1, asr #4
 800528a:	f140 83fa 	bpl.w	8005a82 <_dtoa_r+0xa9a>
 800528e:	4bbb      	ldr	r3, [pc, #748]	; (800557c <_dtoa_r+0x594>)
 8005290:	e9dd 0102 	ldrd	r0, r1, [sp, #8]
 8005294:	e9d3 2308 	ldrd	r2, r3, [r3, #32]
 8005298:	f002 fdda 	bl	8007e50 <__aeabi_ddiv>
 800529c:	ec41 0b18 	vmov	d8, r0, r1
 80052a0:	f005 050f 	and.w	r5, r5, #15
 80052a4:	f04f 0903 	mov.w	r9, #3
 80052a8:	b18d      	cbz	r5, 80052ce <_dtoa_r+0x2e6>
 80052aa:	f8df 82d0 	ldr.w	r8, [pc, #720]	; 800557c <_dtoa_r+0x594>
 80052ae:	07eb      	lsls	r3, r5, #31
 80052b0:	4630      	mov	r0, r6
 80052b2:	4639      	mov	r1, r7
 80052b4:	d507      	bpl.n	80052c6 <_dtoa_r+0x2de>
 80052b6:	e9d8 2300 	ldrd	r2, r3, [r8]
 80052ba:	f002 fc9f 	bl	8007bfc <__aeabi_dmul>
 80052be:	f109 0901 	add.w	r9, r9, #1
 80052c2:	4606      	mov	r6, r0
 80052c4:	460f      	mov	r7, r1
 80052c6:	106d      	asrs	r5, r5, #1
 80052c8:	f108 0808 	add.w	r8, r8, #8
 80052cc:	d1ef      	bne.n	80052ae <_dtoa_r+0x2c6>
 80052ce:	463b      	mov	r3, r7
 80052d0:	ec51 0b18 	vmov	r0, r1, d8
 80052d4:	4632      	mov	r2, r6
 80052d6:	f002 fdbb 	bl	8007e50 <__aeabi_ddiv>
 80052da:	4607      	mov	r7, r0
 80052dc:	4688      	mov	r8, r1
 80052de:	9b0f      	ldr	r3, [sp, #60]	; 0x3c
 80052e0:	b143      	cbz	r3, 80052f4 <_dtoa_r+0x30c>
 80052e2:	4ba7      	ldr	r3, [pc, #668]	; (8005580 <_dtoa_r+0x598>)
 80052e4:	2200      	movs	r2, #0
 80052e6:	4638      	mov	r0, r7
 80052e8:	4641      	mov	r1, r8
 80052ea:	f002 fef9 	bl	80080e0 <__aeabi_dcmplt>
 80052ee:	2800      	cmp	r0, #0
 80052f0:	f040 8553 	bne.w	8005d9a <_dtoa_r+0xdb2>
 80052f4:	4648      	mov	r0, r9
 80052f6:	f002 fc17 	bl	8007b28 <__aeabi_i2d>
 80052fa:	463a      	mov	r2, r7
 80052fc:	4643      	mov	r3, r8
 80052fe:	f002 fc7d 	bl	8007bfc <__aeabi_dmul>
 8005302:	4ba0      	ldr	r3, [pc, #640]	; (8005584 <_dtoa_r+0x59c>)
 8005304:	2200      	movs	r2, #0
 8005306:	f002 fac3 	bl	8007890 <__adddf3>
 800530a:	f1a1 7350 	sub.w	r3, r1, #54525952	; 0x3400000
 800530e:	e9cd 0112 	strd	r0, r1, [sp, #72]	; 0x48
 8005312:	9313      	str	r3, [sp, #76]	; 0x4c
 8005314:	9b0b      	ldr	r3, [sp, #44]	; 0x2c
 8005316:	2b00      	cmp	r3, #0
 8005318:	f000 83f2 	beq.w	8005b00 <_dtoa_r+0xb18>
 800531c:	9b08      	ldr	r3, [sp, #32]
 800531e:	9315      	str	r3, [sp, #84]	; 0x54
 8005320:	9b0b      	ldr	r3, [sp, #44]	; 0x2c
 8005322:	9314      	str	r3, [sp, #80]	; 0x50
 8005324:	9b0d      	ldr	r3, [sp, #52]	; 0x34
 8005326:	2b00      	cmp	r3, #0
 8005328:	f000 84c6 	beq.w	8005cb8 <_dtoa_r+0xcd0>
 800532c:	9a14      	ldr	r2, [sp, #80]	; 0x50
 800532e:	4b92      	ldr	r3, [pc, #584]	; (8005578 <_dtoa_r+0x590>)
 8005330:	4995      	ldr	r1, [pc, #596]	; (8005588 <_dtoa_r+0x5a0>)
 8005332:	eb03 03c2 	add.w	r3, r3, r2, lsl #3
 8005336:	e953 2302 	ldrd	r2, r3, [r3, #-8]
 800533a:	2000      	movs	r0, #0
 800533c:	f002 fd88 	bl	8007e50 <__aeabi_ddiv>
 8005340:	e9dd 2312 	ldrd	r2, r3, [sp, #72]	; 0x48
 8005344:	f002 faa2 	bl	800788c <__aeabi_dsub>
 8005348:	4602      	mov	r2, r0
 800534a:	460b      	mov	r3, r1
 800534c:	4638      	mov	r0, r7
 800534e:	4641      	mov	r1, r8
 8005350:	ec43 2b18 	vmov	d8, r2, r3
 8005354:	f002 ff02 	bl	800815c <__aeabi_d2iz>
 8005358:	4605      	mov	r5, r0
 800535a:	f002 fbe5 	bl	8007b28 <__aeabi_i2d>
 800535e:	4602      	mov	r2, r0
 8005360:	460b      	mov	r3, r1
 8005362:	4638      	mov	r0, r7
 8005364:	4641      	mov	r1, r8
 8005366:	f002 fa91 	bl	800788c <__aeabi_dsub>
 800536a:	f8dd 9004 	ldr.w	r9, [sp, #4]
 800536e:	3530      	adds	r5, #48	; 0x30
 8005370:	4606      	mov	r6, r0
 8005372:	460f      	mov	r7, r1
 8005374:	4602      	mov	r2, r0
 8005376:	460b      	mov	r3, r1
 8005378:	f809 5b01 	strb.w	r5, [r9], #1
 800537c:	ec51 0b18 	vmov	r0, r1, d8
 8005380:	f002 fecc 	bl	800811c <__aeabi_dcmpgt>
 8005384:	2800      	cmp	r0, #0
 8005386:	f040 854c 	bne.w	8005e22 <_dtoa_r+0xe3a>
 800538a:	f04f 0800 	mov.w	r8, #0
 800538e:	ee09 aa10 	vmov	s18, sl
 8005392:	ee09 4a90 	vmov	s19, r4
 8005396:	f8cd b048 	str.w	fp, [sp, #72]	; 0x48
 800539a:	464c      	mov	r4, r9
 800539c:	46c3      	mov	fp, r8
 800539e:	f8dd a050 	ldr.w	sl, [sp, #80]	; 0x50
 80053a2:	ec59 8b18 	vmov	r8, r9, d8
 80053a6:	e024      	b.n	80053f2 <_dtoa_r+0x40a>
 80053a8:	45d3      	cmp	fp, sl
 80053aa:	da4e      	bge.n	800544a <_dtoa_r+0x462>
 80053ac:	f002 fc26 	bl	8007bfc <__aeabi_dmul>
 80053b0:	4b76      	ldr	r3, [pc, #472]	; (800558c <_dtoa_r+0x5a4>)
 80053b2:	2200      	movs	r2, #0
 80053b4:	4680      	mov	r8, r0
 80053b6:	4689      	mov	r9, r1
 80053b8:	4630      	mov	r0, r6
 80053ba:	4639      	mov	r1, r7
 80053bc:	f002 fc1e 	bl	8007bfc <__aeabi_dmul>
 80053c0:	460f      	mov	r7, r1
 80053c2:	4606      	mov	r6, r0
 80053c4:	f002 feca 	bl	800815c <__aeabi_d2iz>
 80053c8:	4605      	mov	r5, r0
 80053ca:	f002 fbad 	bl	8007b28 <__aeabi_i2d>
 80053ce:	4602      	mov	r2, r0
 80053d0:	460b      	mov	r3, r1
 80053d2:	4630      	mov	r0, r6
 80053d4:	4639      	mov	r1, r7
 80053d6:	f002 fa59 	bl	800788c <__aeabi_dsub>
 80053da:	3530      	adds	r5, #48	; 0x30
 80053dc:	f804 5b01 	strb.w	r5, [r4], #1
 80053e0:	4642      	mov	r2, r8
 80053e2:	464b      	mov	r3, r9
 80053e4:	4606      	mov	r6, r0
 80053e6:	460f      	mov	r7, r1
 80053e8:	f002 fe7a 	bl	80080e0 <__aeabi_dcmplt>
 80053ec:	2800      	cmp	r0, #0
 80053ee:	f040 8513 	bne.w	8005e18 <_dtoa_r+0xe30>
 80053f2:	4632      	mov	r2, r6
 80053f4:	463b      	mov	r3, r7
 80053f6:	4962      	ldr	r1, [pc, #392]	; (8005580 <_dtoa_r+0x598>)
 80053f8:	2000      	movs	r0, #0
 80053fa:	f002 fa47 	bl	800788c <__aeabi_dsub>
 80053fe:	4642      	mov	r2, r8
 8005400:	464b      	mov	r3, r9
 8005402:	f002 fe6d 	bl	80080e0 <__aeabi_dcmplt>
 8005406:	4605      	mov	r5, r0
 8005408:	4b60      	ldr	r3, [pc, #384]	; (800558c <_dtoa_r+0x5a4>)
 800540a:	f10b 0b01 	add.w	fp, fp, #1
 800540e:	2200      	movs	r2, #0
 8005410:	4640      	mov	r0, r8
 8005412:	4649      	mov	r1, r9
 8005414:	2d00      	cmp	r5, #0
 8005416:	d0c7      	beq.n	80053a8 <_dtoa_r+0x3c0>
 8005418:	9b15      	ldr	r3, [sp, #84]	; 0x54
 800541a:	9308      	str	r3, [sp, #32]
 800541c:	46a1      	mov	r9, r4
 800541e:	ee19 aa10 	vmov	sl, s18
 8005422:	ee19 4a90 	vmov	r4, s19
 8005426:	9b01      	ldr	r3, [sp, #4]
 8005428:	e002      	b.n	8005430 <_dtoa_r+0x448>
 800542a:	4599      	cmp	r9, r3
 800542c:	f000 84e3 	beq.w	8005df6 <_dtoa_r+0xe0e>
 8005430:	464e      	mov	r6, r9
 8005432:	f819 2d01 	ldrb.w	r2, [r9, #-1]!
 8005436:	2a39      	cmp	r2, #57	; 0x39
 8005438:	d0f7      	beq.n	800542a <_dtoa_r+0x442>
 800543a:	3201      	adds	r2, #1
 800543c:	b2d2      	uxtb	r2, r2
 800543e:	9b08      	ldr	r3, [sp, #32]
 8005440:	f889 2000 	strb.w	r2, [r9]
 8005444:	3301      	adds	r3, #1
 8005446:	9308      	str	r3, [sp, #32]
 8005448:	e1b7      	b.n	80057ba <_dtoa_r+0x7d2>
 800544a:	f8dd b048 	ldr.w	fp, [sp, #72]	; 0x48
 800544e:	ee19 aa10 	vmov	sl, s18
 8005452:	ee19 4a90 	vmov	r4, s19
 8005456:	9b17      	ldr	r3, [sp, #92]	; 0x5c
 8005458:	2b00      	cmp	r3, #0
 800545a:	f2c0 809b 	blt.w	8005594 <_dtoa_r+0x5ac>
 800545e:	9a08      	ldr	r2, [sp, #32]
 8005460:	2a0e      	cmp	r2, #14
 8005462:	f300 8097 	bgt.w	8005594 <_dtoa_r+0x5ac>
 8005466:	4b44      	ldr	r3, [pc, #272]	; (8005578 <_dtoa_r+0x590>)
 8005468:	eb03 03c2 	add.w	r3, r3, r2, lsl #3
 800546c:	ed93 7b00 	vldr	d7, [r3]
 8005470:	9b0c      	ldr	r3, [sp, #48]	; 0x30
 8005472:	eeb0 8a47 	vmov.f32	s16, s14
 8005476:	eef0 8a67 	vmov.f32	s17, s15
 800547a:	2b00      	cmp	r3, #0
 800547c:	da1b      	bge.n	80054b6 <_dtoa_r+0x4ce>
 800547e:	9b0b      	ldr	r3, [sp, #44]	; 0x2c
 8005480:	2b00      	cmp	r3, #0
 8005482:	dc18      	bgt.n	80054b6 <_dtoa_r+0x4ce>
 8005484:	f040 8357 	bne.w	8005b36 <_dtoa_r+0xb4e>
 8005488:	ec51 0b17 	vmov	r0, r1, d7
 800548c:	4b40      	ldr	r3, [pc, #256]	; (8005590 <_dtoa_r+0x5a8>)
 800548e:	2200      	movs	r2, #0
 8005490:	f002 fbb4 	bl	8007bfc <__aeabi_dmul>
 8005494:	4602      	mov	r2, r0
 8005496:	460b      	mov	r3, r1
 8005498:	e9dd 0102 	ldrd	r0, r1, [sp, #8]
 800549c:	f002 fe2a 	bl	80080f4 <__aeabi_dcmple>
 80054a0:	f8dd 802c 	ldr.w	r8, [sp, #44]	; 0x2c
 80054a4:	4645      	mov	r5, r8
 80054a6:	2800      	cmp	r0, #0
 80054a8:	f000 8259 	beq.w	800595e <_dtoa_r+0x976>
 80054ac:	9b0c      	ldr	r3, [sp, #48]	; 0x30
 80054ae:	9f01      	ldr	r7, [sp, #4]
 80054b0:	ea6f 0903 	mvn.w	r9, r3
 80054b4:	e25c      	b.n	8005970 <_dtoa_r+0x988>
 80054b6:	e9dd 6702 	ldrd	r6, r7, [sp, #8]
 80054ba:	ec53 2b18 	vmov	r2, r3, d8
 80054be:	4630      	mov	r0, r6
 80054c0:	4639      	mov	r1, r7
 80054c2:	f002 fcc5 	bl	8007e50 <__aeabi_ddiv>
 80054c6:	f002 fe49 	bl	800815c <__aeabi_d2iz>
 80054ca:	4605      	mov	r5, r0
 80054cc:	f002 fb2c 	bl	8007b28 <__aeabi_i2d>
 80054d0:	ec53 2b18 	vmov	r2, r3, d8
 80054d4:	f002 fb92 	bl	8007bfc <__aeabi_dmul>
 80054d8:	460b      	mov	r3, r1
 80054da:	4602      	mov	r2, r0
 80054dc:	4639      	mov	r1, r7
 80054de:	4630      	mov	r0, r6
 80054e0:	f002 f9d4 	bl	800788c <__aeabi_dsub>
 80054e4:	f8dd 9004 	ldr.w	r9, [sp, #4]
 80054e8:	f105 0330 	add.w	r3, r5, #48	; 0x30
 80054ec:	f809 3b01 	strb.w	r3, [r9], #1
 80054f0:	9b0b      	ldr	r3, [sp, #44]	; 0x2c
 80054f2:	2b01      	cmp	r3, #1
 80054f4:	f000 8393 	beq.w	8005c1e <_dtoa_r+0xc36>
 80054f8:	ee09 aa10 	vmov	s18, sl
 80054fc:	46cb      	mov	fp, r9
 80054fe:	ee09 4a90 	vmov	s19, r4
 8005502:	ec5a 9b18 	vmov	r9, sl, d8
 8005506:	f04f 0801 	mov.w	r8, #1
 800550a:	461d      	mov	r5, r3
 800550c:	e017      	b.n	800553e <_dtoa_r+0x556>
 800550e:	f002 fc9f 	bl	8007e50 <__aeabi_ddiv>
 8005512:	f002 fe23 	bl	800815c <__aeabi_d2iz>
 8005516:	4604      	mov	r4, r0
 8005518:	f002 fb06 	bl	8007b28 <__aeabi_i2d>
 800551c:	464a      	mov	r2, r9
 800551e:	4653      	mov	r3, sl
 8005520:	f002 fb6c 	bl	8007bfc <__aeabi_dmul>
 8005524:	460b      	mov	r3, r1
 8005526:	4602      	mov	r2, r0
 8005528:	4639      	mov	r1, r7
 800552a:	4630      	mov	r0, r6
 800552c:	f002 f9ae 	bl	800788c <__aeabi_dsub>
 8005530:	f104 0330 	add.w	r3, r4, #48	; 0x30
 8005534:	45a8      	cmp	r8, r5
 8005536:	f80b 3b01 	strb.w	r3, [fp], #1
 800553a:	f000 836a 	beq.w	8005c12 <_dtoa_r+0xc2a>
 800553e:	4b13      	ldr	r3, [pc, #76]	; (800558c <_dtoa_r+0x5a4>)
 8005540:	2200      	movs	r2, #0
 8005542:	f002 fb5b 	bl	8007bfc <__aeabi_dmul>
 8005546:	2200      	movs	r2, #0
 8005548:	2300      	movs	r3, #0
 800554a:	4606      	mov	r6, r0
 800554c:	460f      	mov	r7, r1
 800554e:	f002 fdbd 	bl	80080cc <__aeabi_dcmpeq>
 8005552:	4604      	mov	r4, r0
 8005554:	f108 0801 	add.w	r8, r8, #1
 8005558:	464a      	mov	r2, r9
 800555a:	4653      	mov	r3, sl
 800555c:	4630      	mov	r0, r6
 800555e:	4639      	mov	r1, r7
 8005560:	2c00      	cmp	r4, #0
 8005562:	d0d4      	beq.n	800550e <_dtoa_r+0x526>
 8005564:	ee19 aa10 	vmov	sl, s18
 8005568:	ee19 4a90 	vmov	r4, s19
 800556c:	46d9      	mov	r9, fp
 800556e:	9b08      	ldr	r3, [sp, #32]
 8005570:	3301      	adds	r3, #1
 8005572:	9308      	str	r3, [sp, #32]
 8005574:	464e      	mov	r6, r9
 8005576:	e120      	b.n	80057ba <_dtoa_r+0x7d2>
 8005578:	08008e00 	.word	0x08008e00
 800557c:	08008dd8 	.word	0x08008dd8
 8005580:	3ff00000 	.word	0x3ff00000
 8005584:	401c0000 	.word	0x401c0000
 8005588:	3fe00000 	.word	0x3fe00000
 800558c:	40240000 	.word	0x40240000
 8005590:	40140000 	.word	0x40140000
 8005594:	9a0d      	ldr	r2, [sp, #52]	; 0x34
 8005596:	2a00      	cmp	r2, #0
 8005598:	d043      	beq.n	8005622 <_dtoa_r+0x63a>
 800559a:	9a06      	ldr	r2, [sp, #24]
 800559c:	2a01      	cmp	r2, #1
 800559e:	f340 8290 	ble.w	8005ac2 <_dtoa_r+0xada>
 80055a2:	9b0b      	ldr	r3, [sp, #44]	; 0x2c
 80055a4:	1e5f      	subs	r7, r3, #1
 80055a6:	9b0e      	ldr	r3, [sp, #56]	; 0x38
 80055a8:	42bb      	cmp	r3, r7
 80055aa:	f280 8268 	bge.w	8005a7e <_dtoa_r+0xa96>
 80055ae:	9b0e      	ldr	r3, [sp, #56]	; 0x38
 80055b0:	970e      	str	r7, [sp, #56]	; 0x38
 80055b2:	1afb      	subs	r3, r7, r3
 80055b4:	449b      	add	fp, r3
 80055b6:	2700      	movs	r7, #0
 80055b8:	9b0b      	ldr	r3, [sp, #44]	; 0x2c
 80055ba:	2b00      	cmp	r3, #0
 80055bc:	f2c0 835d 	blt.w	8005c7a <_dtoa_r+0xc92>
 80055c0:	9a07      	ldr	r2, [sp, #28]
 80055c2:	4611      	mov	r1, r2
 80055c4:	9a0a      	ldr	r2, [sp, #40]	; 0x28
 80055c6:	4419      	add	r1, r3
 80055c8:	4616      	mov	r6, r2
 80055ca:	441a      	add	r2, r3
 80055cc:	9107      	str	r1, [sp, #28]
 80055ce:	920a      	str	r2, [sp, #40]	; 0x28
 80055d0:	2101      	movs	r1, #1
 80055d2:	4620      	mov	r0, r4
 80055d4:	f001 fa50 	bl	8006a78 <__i2b>
 80055d8:	4605      	mov	r5, r0
 80055da:	e025      	b.n	8005628 <_dtoa_r+0x640>
 80055dc:	2301      	movs	r3, #1
 80055de:	eba8 0505 	sub.w	r5, r8, r5
 80055e2:	930f      	str	r3, [sp, #60]	; 0x3c
 80055e4:	1e6b      	subs	r3, r5, #1
 80055e6:	9307      	str	r3, [sp, #28]
 80055e8:	f57f adaf 	bpl.w	800514a <_dtoa_r+0x162>
 80055ec:	f1c5 0301 	rsb	r3, r5, #1
 80055f0:	930a      	str	r3, [sp, #40]	; 0x28
 80055f2:	2300      	movs	r3, #0
 80055f4:	9307      	str	r3, [sp, #28]
 80055f6:	e5aa      	b.n	800514e <_dtoa_r+0x166>
 80055f8:	4658      	mov	r0, fp
 80055fa:	f002 fa95 	bl	8007b28 <__aeabi_i2d>
 80055fe:	4632      	mov	r2, r6
 8005600:	463b      	mov	r3, r7
 8005602:	f002 fd63 	bl	80080cc <__aeabi_dcmpeq>
 8005606:	2800      	cmp	r0, #0
 8005608:	f47f ad86 	bne.w	8005118 <_dtoa_r+0x130>
 800560c:	f10b 3bff 	add.w	fp, fp, #4294967295	; 0xffffffff
 8005610:	e582      	b.n	8005118 <_dtoa_r+0x130>
 8005612:	4bc7      	ldr	r3, [pc, #796]	; (8005930 <_dtoa_r+0x948>)
 8005614:	9301      	str	r3, [sp, #4]
 8005616:	9801      	ldr	r0, [sp, #4]
 8005618:	b019      	add	sp, #100	; 0x64
 800561a:	ecbd 8b04 	vpop	{d8-d9}
 800561e:	e8bd 8ff0 	ldmia.w	sp!, {r4, r5, r6, r7, r8, r9, sl, fp, pc}
 8005622:	9f0e      	ldr	r7, [sp, #56]	; 0x38
 8005624:	9e0a      	ldr	r6, [sp, #40]	; 0x28
 8005626:	9d0d      	ldr	r5, [sp, #52]	; 0x34
 8005628:	2e00      	cmp	r6, #0
 800562a:	dd0c      	ble.n	8005646 <_dtoa_r+0x65e>
 800562c:	9a07      	ldr	r2, [sp, #28]
 800562e:	2a00      	cmp	r2, #0
 8005630:	dd09      	ble.n	8005646 <_dtoa_r+0x65e>
 8005632:	990a      	ldr	r1, [sp, #40]	; 0x28
 8005634:	42b2      	cmp	r2, r6
 8005636:	4613      	mov	r3, r2
 8005638:	bfa8      	it	ge
 800563a:	4633      	movge	r3, r6
 800563c:	1ac9      	subs	r1, r1, r3
 800563e:	1af6      	subs	r6, r6, r3
 8005640:	1ad3      	subs	r3, r2, r3
 8005642:	910a      	str	r1, [sp, #40]	; 0x28
 8005644:	9307      	str	r3, [sp, #28]
 8005646:	9b0e      	ldr	r3, [sp, #56]	; 0x38
 8005648:	b1d3      	cbz	r3, 8005680 <_dtoa_r+0x698>
 800564a:	9b0d      	ldr	r3, [sp, #52]	; 0x34
 800564c:	2b00      	cmp	r3, #0
 800564e:	f000 81b7 	beq.w	80059c0 <_dtoa_r+0x9d8>
 8005652:	2f00      	cmp	r7, #0
 8005654:	dd10      	ble.n	8005678 <_dtoa_r+0x690>
 8005656:	4629      	mov	r1, r5
 8005658:	463a      	mov	r2, r7
 800565a:	4620      	mov	r0, r4
 800565c:	f001 fab8 	bl	8006bd0 <__pow5mult>
 8005660:	4652      	mov	r2, sl
 8005662:	4601      	mov	r1, r0
 8005664:	4605      	mov	r5, r0
 8005666:	4620      	mov	r0, r4
 8005668:	f001 fa10 	bl	8006a8c <__multiply>
 800566c:	4651      	mov	r1, sl
 800566e:	4680      	mov	r8, r0
 8005670:	4620      	mov	r0, r4
 8005672:	f001 f961 	bl	8006938 <_Bfree>
 8005676:	46c2      	mov	sl, r8
 8005678:	9b0e      	ldr	r3, [sp, #56]	; 0x38
 800567a:	1bda      	subs	r2, r3, r7
 800567c:	f040 81a1 	bne.w	80059c2 <_dtoa_r+0x9da>
 8005680:	2101      	movs	r1, #1
 8005682:	4620      	mov	r0, r4
 8005684:	f001 f9f8 	bl	8006a78 <__i2b>
 8005688:	f1bb 0f00 	cmp.w	fp, #0
 800568c:	4680      	mov	r8, r0
 800568e:	f300 80b9 	bgt.w	8005804 <_dtoa_r+0x81c>
 8005692:	9b06      	ldr	r3, [sp, #24]
 8005694:	2b01      	cmp	r3, #1
 8005696:	f340 819f 	ble.w	80059d8 <_dtoa_r+0x9f0>
 800569a:	2700      	movs	r7, #0
 800569c:	2001      	movs	r0, #1
 800569e:	f1bb 0f00 	cmp.w	fp, #0
 80056a2:	f040 80ba 	bne.w	800581a <_dtoa_r+0x832>
 80056a6:	9a07      	ldr	r2, [sp, #28]
 80056a8:	4410      	add	r0, r2
 80056aa:	f010 001f 	ands.w	r0, r0, #31
 80056ae:	f000 8099 	beq.w	80057e4 <_dtoa_r+0x7fc>
 80056b2:	f1c0 0320 	rsb	r3, r0, #32
 80056b6:	2b04      	cmp	r3, #4
 80056b8:	f340 83ec 	ble.w	8005e94 <_dtoa_r+0xeac>
 80056bc:	9b0a      	ldr	r3, [sp, #40]	; 0x28
 80056be:	f1c0 001c 	rsb	r0, r0, #28
 80056c2:	4403      	add	r3, r0
 80056c4:	4402      	add	r2, r0
 80056c6:	930a      	str	r3, [sp, #40]	; 0x28
 80056c8:	4406      	add	r6, r0
 80056ca:	9207      	str	r2, [sp, #28]
 80056cc:	9b0a      	ldr	r3, [sp, #40]	; 0x28
 80056ce:	2b00      	cmp	r3, #0
 80056d0:	dd05      	ble.n	80056de <_dtoa_r+0x6f6>
 80056d2:	4651      	mov	r1, sl
 80056d4:	461a      	mov	r2, r3
 80056d6:	4620      	mov	r0, r4
 80056d8:	f001 faca 	bl	8006c70 <__lshift>
 80056dc:	4682      	mov	sl, r0
 80056de:	9b07      	ldr	r3, [sp, #28]
 80056e0:	2b00      	cmp	r3, #0
 80056e2:	dd05      	ble.n	80056f0 <_dtoa_r+0x708>
 80056e4:	4641      	mov	r1, r8
 80056e6:	461a      	mov	r2, r3
 80056e8:	4620      	mov	r0, r4
 80056ea:	f001 fac1 	bl	8006c70 <__lshift>
 80056ee:	4680      	mov	r8, r0
 80056f0:	9b0f      	ldr	r3, [sp, #60]	; 0x3c
 80056f2:	2b00      	cmp	r3, #0
 80056f4:	f040 8149 	bne.w	800598a <_dtoa_r+0x9a2>
 80056f8:	9b0b      	ldr	r3, [sp, #44]	; 0x2c
 80056fa:	2b00      	cmp	r3, #0
 80056fc:	f340 811a 	ble.w	8005934 <_dtoa_r+0x94c>
 8005700:	9b0d      	ldr	r3, [sp, #52]	; 0x34
 8005702:	2b00      	cmp	r3, #0
 8005704:	f040 809b 	bne.w	800583e <_dtoa_r+0x856>
 8005708:	9b08      	ldr	r3, [sp, #32]
 800570a:	3301      	adds	r3, #1
 800570c:	9308      	str	r3, [sp, #32]
 800570e:	9f01      	ldr	r7, [sp, #4]
 8005710:	f8dd 902c 	ldr.w	r9, [sp, #44]	; 0x2c
 8005714:	2601      	movs	r6, #1
 8005716:	e003      	b.n	8005720 <_dtoa_r+0x738>
 8005718:	f001 f918 	bl	800694c <__multadd>
 800571c:	3601      	adds	r6, #1
 800571e:	4682      	mov	sl, r0
 8005720:	4641      	mov	r1, r8
 8005722:	4650      	mov	r0, sl
 8005724:	f7ff fbd0 	bl	8004ec8 <quorem>
 8005728:	454e      	cmp	r6, r9
 800572a:	f100 0c30 	add.w	ip, r0, #48	; 0x30
 800572e:	f807 cb01 	strb.w	ip, [r7], #1
 8005732:	4651      	mov	r1, sl
 8005734:	f04f 0300 	mov.w	r3, #0
 8005738:	f04f 020a 	mov.w	r2, #10
 800573c:	4620      	mov	r0, r4
 800573e:	dbeb      	blt.n	8005718 <_dtoa_r+0x730>
 8005740:	9b0b      	ldr	r3, [sp, #44]	; 0x2c
 8005742:	f8cd c008 	str.w	ip, [sp, #8]
 8005746:	2b00      	cmp	r3, #0
 8005748:	bfc8      	it	gt
 800574a:	469b      	movgt	fp, r3
 800574c:	9b01      	ldr	r3, [sp, #4]
 800574e:	bfd8      	it	le
 8005750:	f04f 0b01 	movle.w	fp, #1
 8005754:	449b      	add	fp, r3
 8005756:	f04f 0900 	mov.w	r9, #0
 800575a:	4651      	mov	r1, sl
 800575c:	2201      	movs	r2, #1
 800575e:	4620      	mov	r0, r4
 8005760:	f001 fa86 	bl	8006c70 <__lshift>
 8005764:	4641      	mov	r1, r8
 8005766:	4682      	mov	sl, r0
 8005768:	f001 faec 	bl	8006d44 <__mcmp>
 800576c:	2800      	cmp	r0, #0
 800576e:	f340 8196 	ble.w	8005a9e <_dtoa_r+0xab6>
 8005772:	f81b 2c01 	ldrb.w	r2, [fp, #-1]
 8005776:	9b01      	ldr	r3, [sp, #4]
 8005778:	f10b 3bff 	add.w	fp, fp, #4294967295	; 0xffffffff
 800577c:	e004      	b.n	8005788 <_dtoa_r+0x7a0>
 800577e:	455b      	cmp	r3, fp
 8005780:	f000 8198 	beq.w	8005ab4 <_dtoa_r+0xacc>
 8005784:	f81b 2d01 	ldrb.w	r2, [fp, #-1]!
 8005788:	2a39      	cmp	r2, #57	; 0x39
 800578a:	f10b 0601 	add.w	r6, fp, #1
 800578e:	d0f6      	beq.n	800577e <_dtoa_r+0x796>
 8005790:	3201      	adds	r2, #1
 8005792:	f88b 2000 	strb.w	r2, [fp]
 8005796:	4641      	mov	r1, r8
 8005798:	4620      	mov	r0, r4
 800579a:	f001 f8cd 	bl	8006938 <_Bfree>
 800579e:	b165      	cbz	r5, 80057ba <_dtoa_r+0x7d2>
 80057a0:	f1b9 0f00 	cmp.w	r9, #0
 80057a4:	d005      	beq.n	80057b2 <_dtoa_r+0x7ca>
 80057a6:	45a9      	cmp	r9, r5
 80057a8:	d003      	beq.n	80057b2 <_dtoa_r+0x7ca>
 80057aa:	4649      	mov	r1, r9
 80057ac:	4620      	mov	r0, r4
 80057ae:	f001 f8c3 	bl	8006938 <_Bfree>
 80057b2:	4629      	mov	r1, r5
 80057b4:	4620      	mov	r0, r4
 80057b6:	f001 f8bf 	bl	8006938 <_Bfree>
 80057ba:	4651      	mov	r1, sl
 80057bc:	4620      	mov	r0, r4
 80057be:	f001 f8bb 	bl	8006938 <_Bfree>
 80057c2:	9b09      	ldr	r3, [sp, #36]	; 0x24
 80057c4:	2200      	movs	r2, #0
 80057c6:	7032      	strb	r2, [r6, #0]
 80057c8:	461a      	mov	r2, r3
 80057ca:	9b08      	ldr	r3, [sp, #32]
 80057cc:	6013      	str	r3, [r2, #0]
 80057ce:	9b27      	ldr	r3, [sp, #156]	; 0x9c
 80057d0:	2b00      	cmp	r3, #0
 80057d2:	f43f ac4a 	beq.w	800506a <_dtoa_r+0x82>
 80057d6:	9801      	ldr	r0, [sp, #4]
 80057d8:	601e      	str	r6, [r3, #0]
 80057da:	b019      	add	sp, #100	; 0x64
 80057dc:	ecbd 8b04 	vpop	{d8-d9}
 80057e0:	e8bd 8ff0 	ldmia.w	sp!, {r4, r5, r6, r7, r8, r9, sl, fp, pc}
 80057e4:	201c      	movs	r0, #28
 80057e6:	9b0a      	ldr	r3, [sp, #40]	; 0x28
 80057e8:	4403      	add	r3, r0
 80057ea:	930a      	str	r3, [sp, #40]	; 0x28
 80057ec:	9b07      	ldr	r3, [sp, #28]
 80057ee:	4403      	add	r3, r0
 80057f0:	4406      	add	r6, r0
 80057f2:	9307      	str	r3, [sp, #28]
 80057f4:	e76a      	b.n	80056cc <_dtoa_r+0x6e4>
 80057f6:	2501      	movs	r5, #1
 80057f8:	e4c0      	b.n	800517c <_dtoa_r+0x194>
 80057fa:	f1c0 0020 	rsb	r0, r0, #32
 80057fe:	fa06 f000 	lsl.w	r0, r6, r0
 8005802:	e456      	b.n	80050b2 <_dtoa_r+0xca>
 8005804:	4601      	mov	r1, r0
 8005806:	465a      	mov	r2, fp
 8005808:	4620      	mov	r0, r4
 800580a:	f001 f9e1 	bl	8006bd0 <__pow5mult>
 800580e:	9b06      	ldr	r3, [sp, #24]
 8005810:	2b01      	cmp	r3, #1
 8005812:	4680      	mov	r8, r0
 8005814:	f340 81cb 	ble.w	8005bae <_dtoa_r+0xbc6>
 8005818:	2700      	movs	r7, #0
 800581a:	f8d8 3010 	ldr.w	r3, [r8, #16]
 800581e:	eb08 0383 	add.w	r3, r8, r3, lsl #2
 8005822:	6918      	ldr	r0, [r3, #16]
 8005824:	f001 f8d8 	bl	80069d8 <__hi0bits>
 8005828:	f1c0 0020 	rsb	r0, r0, #32
 800582c:	e73b      	b.n	80056a6 <_dtoa_r+0x6be>
 800582e:	9b06      	ldr	r3, [sp, #24]
 8005830:	2b02      	cmp	r3, #2
 8005832:	f300 8322 	bgt.w	8005e7a <_dtoa_r+0xe92>
 8005836:	9b11      	ldr	r3, [sp, #68]	; 0x44
 8005838:	f8cd 9020 	str.w	r9, [sp, #32]
 800583c:	930b      	str	r3, [sp, #44]	; 0x2c
 800583e:	9b08      	ldr	r3, [sp, #32]
 8005840:	3301      	adds	r3, #1
 8005842:	9308      	str	r3, [sp, #32]
 8005844:	2e00      	cmp	r6, #0
 8005846:	f300 8113 	bgt.w	8005a70 <_dtoa_r+0xa88>
 800584a:	2f00      	cmp	r7, #0
 800584c:	f040 8201 	bne.w	8005c52 <_dtoa_r+0xc6a>
 8005850:	462f      	mov	r7, r5
 8005852:	9b04      	ldr	r3, [sp, #16]
 8005854:	9906      	ldr	r1, [sp, #24]
 8005856:	9e01      	ldr	r6, [sp, #4]
 8005858:	f003 0201 	and.w	r2, r3, #1
 800585c:	920d      	str	r2, [sp, #52]	; 0x34
 800585e:	430a      	orrs	r2, r1
 8005860:	920c      	str	r2, [sp, #48]	; 0x30
 8005862:	9a0b      	ldr	r2, [sp, #44]	; 0x2c
 8005864:	1e73      	subs	r3, r6, #1
 8005866:	441a      	add	r2, r3
 8005868:	920a      	str	r2, [sp, #40]	; 0x28
 800586a:	4641      	mov	r1, r8
 800586c:	4650      	mov	r0, sl
 800586e:	f7ff fb2b 	bl	8004ec8 <quorem>
 8005872:	4629      	mov	r1, r5
 8005874:	4683      	mov	fp, r0
 8005876:	4650      	mov	r0, sl
 8005878:	f001 fa64 	bl	8006d44 <__mcmp>
 800587c:	4641      	mov	r1, r8
 800587e:	4681      	mov	r9, r0
 8005880:	463a      	mov	r2, r7
 8005882:	4620      	mov	r0, r4
 8005884:	f001 fa7c 	bl	8006d80 <__mdiff>
 8005888:	f10b 0330 	add.w	r3, fp, #48	; 0x30
 800588c:	9302      	str	r3, [sp, #8]
 800588e:	68c3      	ldr	r3, [r0, #12]
 8005890:	4601      	mov	r1, r0
 8005892:	2b00      	cmp	r3, #0
 8005894:	d141      	bne.n	800591a <_dtoa_r+0x932>
 8005896:	9007      	str	r0, [sp, #28]
 8005898:	4650      	mov	r0, sl
 800589a:	f001 fa53 	bl	8006d44 <__mcmp>
 800589e:	9907      	ldr	r1, [sp, #28]
 80058a0:	9004      	str	r0, [sp, #16]
 80058a2:	4620      	mov	r0, r4
 80058a4:	f001 f848 	bl	8006938 <_Bfree>
 80058a8:	9b04      	ldr	r3, [sp, #16]
 80058aa:	b91b      	cbnz	r3, 80058b4 <_dtoa_r+0x8cc>
 80058ac:	9a0c      	ldr	r2, [sp, #48]	; 0x30
 80058ae:	2a00      	cmp	r2, #0
 80058b0:	f000 82c8 	beq.w	8005e44 <_dtoa_r+0xe5c>
 80058b4:	f1b9 0f00 	cmp.w	r9, #0
 80058b8:	f2c0 8190 	blt.w	8005bdc <_dtoa_r+0xbf4>
 80058bc:	9a06      	ldr	r2, [sp, #24]
 80058be:	ea42 0909 	orr.w	r9, r2, r9
 80058c2:	9a0d      	ldr	r2, [sp, #52]	; 0x34
 80058c4:	ea52 0209 	orrs.w	r2, r2, r9
 80058c8:	f000 8188 	beq.w	8005bdc <_dtoa_r+0xbf4>
 80058cc:	2b00      	cmp	r3, #0
 80058ce:	f300 81d8 	bgt.w	8005c82 <_dtoa_r+0xc9a>
 80058d2:	9b02      	ldr	r3, [sp, #8]
 80058d4:	7033      	strb	r3, [r6, #0]
 80058d6:	9b0a      	ldr	r3, [sp, #40]	; 0x28
 80058d8:	f106 0901 	add.w	r9, r6, #1
 80058dc:	42b3      	cmp	r3, r6
 80058de:	46cb      	mov	fp, r9
 80058e0:	f000 81da 	beq.w	8005c98 <_dtoa_r+0xcb0>
 80058e4:	4651      	mov	r1, sl
 80058e6:	2300      	movs	r3, #0
 80058e8:	220a      	movs	r2, #10
 80058ea:	4620      	mov	r0, r4
 80058ec:	f001 f82e 	bl	800694c <__multadd>
 80058f0:	42bd      	cmp	r5, r7
 80058f2:	4682      	mov	sl, r0
 80058f4:	4629      	mov	r1, r5
 80058f6:	f04f 0300 	mov.w	r3, #0
 80058fa:	f04f 020a 	mov.w	r2, #10
 80058fe:	4620      	mov	r0, r4
 8005900:	d010      	beq.n	8005924 <_dtoa_r+0x93c>
 8005902:	f001 f823 	bl	800694c <__multadd>
 8005906:	4639      	mov	r1, r7
 8005908:	4605      	mov	r5, r0
 800590a:	2300      	movs	r3, #0
 800590c:	220a      	movs	r2, #10
 800590e:	4620      	mov	r0, r4
 8005910:	f001 f81c 	bl	800694c <__multadd>
 8005914:	464e      	mov	r6, r9
 8005916:	4607      	mov	r7, r0
 8005918:	e7a7      	b.n	800586a <_dtoa_r+0x882>
 800591a:	4620      	mov	r0, r4
 800591c:	f001 f80c 	bl	8006938 <_Bfree>
 8005920:	2301      	movs	r3, #1
 8005922:	e7c7      	b.n	80058b4 <_dtoa_r+0x8cc>
 8005924:	f001 f812 	bl	800694c <__multadd>
 8005928:	464e      	mov	r6, r9
 800592a:	4605      	mov	r5, r0
 800592c:	4607      	mov	r7, r0
 800592e:	e79c      	b.n	800586a <_dtoa_r+0x882>
 8005930:	08008da0 	.word	0x08008da0
 8005934:	9b06      	ldr	r3, [sp, #24]
 8005936:	2b02      	cmp	r3, #2
 8005938:	f340 8085 	ble.w	8005a46 <_dtoa_r+0xa5e>
 800593c:	9b0b      	ldr	r3, [sp, #44]	; 0x2c
 800593e:	2b00      	cmp	r3, #0
 8005940:	f47f adb4 	bne.w	80054ac <_dtoa_r+0x4c4>
 8005944:	4641      	mov	r1, r8
 8005946:	2205      	movs	r2, #5
 8005948:	4620      	mov	r0, r4
 800594a:	f000 ffff 	bl	800694c <__multadd>
 800594e:	4601      	mov	r1, r0
 8005950:	4680      	mov	r8, r0
 8005952:	4650      	mov	r0, sl
 8005954:	f001 f9f6 	bl	8006d44 <__mcmp>
 8005958:	2800      	cmp	r0, #0
 800595a:	f77f ada7 	ble.w	80054ac <_dtoa_r+0x4c4>
 800595e:	9f01      	ldr	r7, [sp, #4]
 8005960:	463b      	mov	r3, r7
 8005962:	2231      	movs	r2, #49	; 0x31
 8005964:	f803 2b01 	strb.w	r2, [r3], #1
 8005968:	9a08      	ldr	r2, [sp, #32]
 800596a:	9301      	str	r3, [sp, #4]
 800596c:	f102 0901 	add.w	r9, r2, #1
 8005970:	4641      	mov	r1, r8
 8005972:	4620      	mov	r0, r4
 8005974:	f000 ffe0 	bl	8006938 <_Bfree>
 8005978:	f109 0301 	add.w	r3, r9, #1
 800597c:	9e01      	ldr	r6, [sp, #4]
 800597e:	9308      	str	r3, [sp, #32]
 8005980:	9701      	str	r7, [sp, #4]
 8005982:	2d00      	cmp	r5, #0
 8005984:	f47f af15 	bne.w	80057b2 <_dtoa_r+0x7ca>
 8005988:	e717      	b.n	80057ba <_dtoa_r+0x7d2>
 800598a:	4641      	mov	r1, r8
 800598c:	4650      	mov	r0, sl
 800598e:	f001 f9d9 	bl	8006d44 <__mcmp>
 8005992:	2800      	cmp	r0, #0
 8005994:	f6bf aeb0 	bge.w	80056f8 <_dtoa_r+0x710>
 8005998:	4651      	mov	r1, sl
 800599a:	2300      	movs	r3, #0
 800599c:	220a      	movs	r2, #10
 800599e:	4620      	mov	r0, r4
 80059a0:	f000 ffd4 	bl	800694c <__multadd>
 80059a4:	9b08      	ldr	r3, [sp, #32]
 80059a6:	f103 39ff 	add.w	r9, r3, #4294967295	; 0xffffffff
 80059aa:	9b0d      	ldr	r3, [sp, #52]	; 0x34
 80059ac:	4682      	mov	sl, r0
 80059ae:	2b00      	cmp	r3, #0
 80059b0:	f040 8250 	bne.w	8005e54 <_dtoa_r+0xe6c>
 80059b4:	9b11      	ldr	r3, [sp, #68]	; 0x44
 80059b6:	2b00      	cmp	r3, #0
 80059b8:	f340 8259 	ble.w	8005e6e <_dtoa_r+0xe86>
 80059bc:	930b      	str	r3, [sp, #44]	; 0x2c
 80059be:	e6a6      	b.n	800570e <_dtoa_r+0x726>
 80059c0:	9a0e      	ldr	r2, [sp, #56]	; 0x38
 80059c2:	4651      	mov	r1, sl
 80059c4:	4620      	mov	r0, r4
 80059c6:	f001 f903 	bl	8006bd0 <__pow5mult>
 80059ca:	4682      	mov	sl, r0
 80059cc:	e658      	b.n	8005680 <_dtoa_r+0x698>
 80059ce:	4bb4      	ldr	r3, [pc, #720]	; (8005ca0 <_dtoa_r+0xcb8>)
 80059d0:	9301      	str	r3, [sp, #4]
 80059d2:	3303      	adds	r3, #3
 80059d4:	f7ff bbed 	b.w	80051b2 <_dtoa_r+0x1ca>
 80059d8:	e9dd 1204 	ldrd	r1, r2, [sp, #16]
 80059dc:	2900      	cmp	r1, #0
 80059de:	f47f ae5c 	bne.w	800569a <_dtoa_r+0x6b2>
 80059e2:	f3c2 0313 	ubfx	r3, r2, #0, #20
 80059e6:	2b00      	cmp	r3, #0
 80059e8:	f000 80eb 	beq.w	8005bc2 <_dtoa_r+0xbda>
 80059ec:	9f04      	ldr	r7, [sp, #16]
 80059ee:	e655      	b.n	800569c <_dtoa_r+0x6b4>
 80059f0:	2301      	movs	r3, #1
 80059f2:	930d      	str	r3, [sp, #52]	; 0x34
 80059f4:	9b0c      	ldr	r3, [sp, #48]	; 0x30
 80059f6:	9a08      	ldr	r2, [sp, #32]
 80059f8:	4413      	add	r3, r2
 80059fa:	9311      	str	r3, [sp, #68]	; 0x44
 80059fc:	3301      	adds	r3, #1
 80059fe:	2b01      	cmp	r3, #1
 8005a00:	461e      	mov	r6, r3
 8005a02:	930b      	str	r3, [sp, #44]	; 0x2c
 8005a04:	bfb8      	it	lt
 8005a06:	2601      	movlt	r6, #1
 8005a08:	2100      	movs	r1, #0
 8005a0a:	2e17      	cmp	r6, #23
 8005a0c:	6461      	str	r1, [r4, #68]	; 0x44
 8005a0e:	dd0a      	ble.n	8005a26 <_dtoa_r+0xa3e>
 8005a10:	2201      	movs	r2, #1
 8005a12:	2304      	movs	r3, #4
 8005a14:	005b      	lsls	r3, r3, #1
 8005a16:	f103 0014 	add.w	r0, r3, #20
 8005a1a:	42b0      	cmp	r0, r6
 8005a1c:	4611      	mov	r1, r2
 8005a1e:	f102 0201 	add.w	r2, r2, #1
 8005a22:	d9f7      	bls.n	8005a14 <_dtoa_r+0xa2c>
 8005a24:	6461      	str	r1, [r4, #68]	; 0x44
 8005a26:	9e0b      	ldr	r6, [sp, #44]	; 0x2c
 8005a28:	e416      	b.n	8005258 <_dtoa_r+0x270>
 8005a2a:	2301      	movs	r3, #1
 8005a2c:	930d      	str	r3, [sp, #52]	; 0x34
 8005a2e:	9e0c      	ldr	r6, [sp, #48]	; 0x30
 8005a30:	2e00      	cmp	r6, #0
 8005a32:	dd2f      	ble.n	8005a94 <_dtoa_r+0xaac>
 8005a34:	9611      	str	r6, [sp, #68]	; 0x44
 8005a36:	960b      	str	r6, [sp, #44]	; 0x2c
 8005a38:	e7e6      	b.n	8005a08 <_dtoa_r+0xa20>
 8005a3a:	2300      	movs	r3, #0
 8005a3c:	930d      	str	r3, [sp, #52]	; 0x34
 8005a3e:	e7d9      	b.n	80059f4 <_dtoa_r+0xa0c>
 8005a40:	2300      	movs	r3, #0
 8005a42:	930d      	str	r3, [sp, #52]	; 0x34
 8005a44:	e7f3      	b.n	8005a2e <_dtoa_r+0xa46>
 8005a46:	9b0d      	ldr	r3, [sp, #52]	; 0x34
 8005a48:	2b00      	cmp	r3, #0
 8005a4a:	f47f aef8 	bne.w	800583e <_dtoa_r+0x856>
 8005a4e:	4641      	mov	r1, r8
 8005a50:	4650      	mov	r0, sl
 8005a52:	f7ff fa39 	bl	8004ec8 <quorem>
 8005a56:	9a08      	ldr	r2, [sp, #32]
 8005a58:	f8dd b004 	ldr.w	fp, [sp, #4]
 8005a5c:	f100 0330 	add.w	r3, r0, #48	; 0x30
 8005a60:	3201      	adds	r2, #1
 8005a62:	f80b 3b01 	strb.w	r3, [fp], #1
 8005a66:	9302      	str	r3, [sp, #8]
 8005a68:	9208      	str	r2, [sp, #32]
 8005a6a:	f04f 0900 	mov.w	r9, #0
 8005a6e:	e674      	b.n	800575a <_dtoa_r+0x772>
 8005a70:	4629      	mov	r1, r5
 8005a72:	4632      	mov	r2, r6
 8005a74:	4620      	mov	r0, r4
 8005a76:	f001 f8fb 	bl	8006c70 <__lshift>
 8005a7a:	4605      	mov	r5, r0
 8005a7c:	e6e5      	b.n	800584a <_dtoa_r+0x862>
 8005a7e:	1bdf      	subs	r7, r3, r7
 8005a80:	e59a      	b.n	80055b8 <_dtoa_r+0x5d0>
 8005a82:	ed9d 7b02 	vldr	d7, [sp, #8]
 8005a86:	f04f 0902 	mov.w	r9, #2
 8005a8a:	eeb0 8a47 	vmov.f32	s16, s14
 8005a8e:	eef0 8a67 	vmov.f32	s17, s15
 8005a92:	e409      	b.n	80052a8 <_dtoa_r+0x2c0>
 8005a94:	2601      	movs	r6, #1
 8005a96:	e9cd 660b 	strd	r6, r6, [sp, #44]	; 0x2c
 8005a9a:	f7ff bbda 	b.w	8005252 <_dtoa_r+0x26a>
 8005a9e:	d103      	bne.n	8005aa8 <_dtoa_r+0xac0>
 8005aa0:	9b02      	ldr	r3, [sp, #8]
 8005aa2:	07db      	lsls	r3, r3, #31
 8005aa4:	f53f ae65 	bmi.w	8005772 <_dtoa_r+0x78a>
 8005aa8:	465e      	mov	r6, fp
 8005aaa:	f81b 3d01 	ldrb.w	r3, [fp, #-1]!
 8005aae:	2b30      	cmp	r3, #48	; 0x30
 8005ab0:	d0fa      	beq.n	8005aa8 <_dtoa_r+0xac0>
 8005ab2:	e670      	b.n	8005796 <_dtoa_r+0x7ae>
 8005ab4:	9b08      	ldr	r3, [sp, #32]
 8005ab6:	3301      	adds	r3, #1
 8005ab8:	9308      	str	r3, [sp, #32]
 8005aba:	9b01      	ldr	r3, [sp, #4]
 8005abc:	2231      	movs	r2, #49	; 0x31
 8005abe:	701a      	strb	r2, [r3, #0]
 8005ac0:	e669      	b.n	8005796 <_dtoa_r+0x7ae>
 8005ac2:	9a10      	ldr	r2, [sp, #64]	; 0x40
 8005ac4:	2a00      	cmp	r2, #0
 8005ac6:	f000 8164 	beq.w	8005d92 <_dtoa_r+0xdaa>
 8005aca:	f203 4333 	addw	r3, r3, #1075	; 0x433
 8005ace:	9a07      	ldr	r2, [sp, #28]
 8005ad0:	9f0e      	ldr	r7, [sp, #56]	; 0x38
 8005ad2:	441a      	add	r2, r3
 8005ad4:	9207      	str	r2, [sp, #28]
 8005ad6:	9a0a      	ldr	r2, [sp, #40]	; 0x28
 8005ad8:	4616      	mov	r6, r2
 8005ada:	441a      	add	r2, r3
 8005adc:	920a      	str	r2, [sp, #40]	; 0x28
 8005ade:	e577      	b.n	80055d0 <_dtoa_r+0x5e8>
 8005ae0:	4648      	mov	r0, r9
 8005ae2:	f002 f821 	bl	8007b28 <__aeabi_i2d>
 8005ae6:	463a      	mov	r2, r7
 8005ae8:	4643      	mov	r3, r8
 8005aea:	f002 f887 	bl	8007bfc <__aeabi_dmul>
 8005aee:	4b6d      	ldr	r3, [pc, #436]	; (8005ca4 <_dtoa_r+0xcbc>)
 8005af0:	2200      	movs	r2, #0
 8005af2:	f001 fecd 	bl	8007890 <__adddf3>
 8005af6:	f1a1 7350 	sub.w	r3, r1, #54525952	; 0x3400000
 8005afa:	e9cd 0112 	strd	r0, r1, [sp, #72]	; 0x48
 8005afe:	9313      	str	r3, [sp, #76]	; 0x4c
 8005b00:	4b69      	ldr	r3, [pc, #420]	; (8005ca8 <_dtoa_r+0xcc0>)
 8005b02:	4638      	mov	r0, r7
 8005b04:	4641      	mov	r1, r8
 8005b06:	2200      	movs	r2, #0
 8005b08:	f001 fec0 	bl	800788c <__aeabi_dsub>
 8005b0c:	e9dd 8912 	ldrd	r8, r9, [sp, #72]	; 0x48
 8005b10:	4642      	mov	r2, r8
 8005b12:	464b      	mov	r3, r9
 8005b14:	4606      	mov	r6, r0
 8005b16:	460f      	mov	r7, r1
 8005b18:	f002 fb00 	bl	800811c <__aeabi_dcmpgt>
 8005b1c:	2800      	cmp	r0, #0
 8005b1e:	f040 8177 	bne.w	8005e10 <_dtoa_r+0xe28>
 8005b22:	4642      	mov	r2, r8
 8005b24:	f109 4300 	add.w	r3, r9, #2147483648	; 0x80000000
 8005b28:	4630      	mov	r0, r6
 8005b2a:	4639      	mov	r1, r7
 8005b2c:	f002 fad8 	bl	80080e0 <__aeabi_dcmplt>
 8005b30:	2800      	cmp	r0, #0
 8005b32:	f43f ac90 	beq.w	8005456 <_dtoa_r+0x46e>
 8005b36:	f04f 0800 	mov.w	r8, #0
 8005b3a:	4645      	mov	r5, r8
 8005b3c:	e4b6      	b.n	80054ac <_dtoa_r+0x4c4>
 8005b3e:	f000 8154 	beq.w	8005dea <_dtoa_r+0xe02>
 8005b42:	9b08      	ldr	r3, [sp, #32]
 8005b44:	425d      	negs	r5, r3
 8005b46:	4b59      	ldr	r3, [pc, #356]	; (8005cac <_dtoa_r+0xcc4>)
 8005b48:	f005 020f 	and.w	r2, r5, #15
 8005b4c:	eb03 03c2 	add.w	r3, r3, r2, lsl #3
 8005b50:	e9d3 2300 	ldrd	r2, r3, [r3]
 8005b54:	e9dd 0102 	ldrd	r0, r1, [sp, #8]
 8005b58:	f002 f850 	bl	8007bfc <__aeabi_dmul>
 8005b5c:	112d      	asrs	r5, r5, #4
 8005b5e:	4607      	mov	r7, r0
 8005b60:	4688      	mov	r8, r1
 8005b62:	f000 818f 	beq.w	8005e84 <_dtoa_r+0xe9c>
 8005b66:	4e52      	ldr	r6, [pc, #328]	; (8005cb0 <_dtoa_r+0xcc8>)
 8005b68:	4602      	mov	r2, r0
 8005b6a:	460b      	mov	r3, r1
 8005b6c:	f04f 0c00 	mov.w	ip, #0
 8005b70:	f04f 0902 	mov.w	r9, #2
 8005b74:	f015 0f01 	tst.w	r5, #1
 8005b78:	4610      	mov	r0, r2
 8005b7a:	4619      	mov	r1, r3
 8005b7c:	d009      	beq.n	8005b92 <_dtoa_r+0xbaa>
 8005b7e:	e9d6 2300 	ldrd	r2, r3, [r6]
 8005b82:	f002 f83b 	bl	8007bfc <__aeabi_dmul>
 8005b86:	f109 0901 	add.w	r9, r9, #1
 8005b8a:	4602      	mov	r2, r0
 8005b8c:	460b      	mov	r3, r1
 8005b8e:	f04f 0c01 	mov.w	ip, #1
 8005b92:	106d      	asrs	r5, r5, #1
 8005b94:	f106 0608 	add.w	r6, r6, #8
 8005b98:	d1ec      	bne.n	8005b74 <_dtoa_r+0xb8c>
 8005b9a:	f1bc 0f00 	cmp.w	ip, #0
 8005b9e:	f43f ab9e 	beq.w	80052de <_dtoa_r+0x2f6>
 8005ba2:	4617      	mov	r7, r2
 8005ba4:	4698      	mov	r8, r3
 8005ba6:	f7ff bb9a 	b.w	80052de <_dtoa_r+0x2f6>
 8005baa:	900f      	str	r0, [sp, #60]	; 0x3c
 8005bac:	e51e      	b.n	80055ec <_dtoa_r+0x604>
 8005bae:	e9dd 1204 	ldrd	r1, r2, [sp, #16]
 8005bb2:	2900      	cmp	r1, #0
 8005bb4:	f47f ae30 	bne.w	8005818 <_dtoa_r+0x830>
 8005bb8:	f3c2 0313 	ubfx	r3, r2, #0, #20
 8005bbc:	2b00      	cmp	r3, #0
 8005bbe:	f47f ae2b 	bne.w	8005818 <_dtoa_r+0x830>
 8005bc2:	4f3c      	ldr	r7, [pc, #240]	; (8005cb4 <_dtoa_r+0xccc>)
 8005bc4:	4017      	ands	r7, r2
 8005bc6:	2f00      	cmp	r7, #0
 8005bc8:	f43f ad68 	beq.w	800569c <_dtoa_r+0x6b4>
 8005bcc:	9b0a      	ldr	r3, [sp, #40]	; 0x28
 8005bce:	3301      	adds	r3, #1
 8005bd0:	930a      	str	r3, [sp, #40]	; 0x28
 8005bd2:	9b07      	ldr	r3, [sp, #28]
 8005bd4:	3301      	adds	r3, #1
 8005bd6:	9307      	str	r3, [sp, #28]
 8005bd8:	2701      	movs	r7, #1
 8005bda:	e55f      	b.n	800569c <_dtoa_r+0x6b4>
 8005bdc:	2b00      	cmp	r3, #0
 8005bde:	dd12      	ble.n	8005c06 <_dtoa_r+0xc1e>
 8005be0:	4651      	mov	r1, sl
 8005be2:	2201      	movs	r2, #1
 8005be4:	4620      	mov	r0, r4
 8005be6:	f001 f843 	bl	8006c70 <__lshift>
 8005bea:	4641      	mov	r1, r8
 8005bec:	4682      	mov	sl, r0
 8005bee:	f001 f8a9 	bl	8006d44 <__mcmp>
 8005bf2:	2800      	cmp	r0, #0
 8005bf4:	f340 811f 	ble.w	8005e36 <_dtoa_r+0xe4e>
 8005bf8:	9b02      	ldr	r3, [sp, #8]
 8005bfa:	2b39      	cmp	r3, #57	; 0x39
 8005bfc:	f000 8101 	beq.w	8005e02 <_dtoa_r+0xe1a>
 8005c00:	f10b 0331 	add.w	r3, fp, #49	; 0x31
 8005c04:	9302      	str	r3, [sp, #8]
 8005c06:	9b02      	ldr	r3, [sp, #8]
 8005c08:	f806 3b01 	strb.w	r3, [r6], #1
 8005c0c:	46a9      	mov	r9, r5
 8005c0e:	463d      	mov	r5, r7
 8005c10:	e5c1      	b.n	8005796 <_dtoa_r+0x7ae>
 8005c12:	4625      	mov	r5, r4
 8005c14:	ee19 aa10 	vmov	sl, s18
 8005c18:	ee19 4a90 	vmov	r4, s19
 8005c1c:	46d9      	mov	r9, fp
 8005c1e:	4602      	mov	r2, r0
 8005c20:	460b      	mov	r3, r1
 8005c22:	f001 fe35 	bl	8007890 <__adddf3>
 8005c26:	ec53 2b18 	vmov	r2, r3, d8
 8005c2a:	4606      	mov	r6, r0
 8005c2c:	460f      	mov	r7, r1
 8005c2e:	f002 fa75 	bl	800811c <__aeabi_dcmpgt>
 8005c32:	b958      	cbnz	r0, 8005c4c <_dtoa_r+0xc64>
 8005c34:	ec53 2b18 	vmov	r2, r3, d8
 8005c38:	4630      	mov	r0, r6
 8005c3a:	4639      	mov	r1, r7
 8005c3c:	f002 fa46 	bl	80080cc <__aeabi_dcmpeq>
 8005c40:	2800      	cmp	r0, #0
 8005c42:	f43f ac94 	beq.w	800556e <_dtoa_r+0x586>
 8005c46:	07e9      	lsls	r1, r5, #31
 8005c48:	f57f ac91 	bpl.w	800556e <_dtoa_r+0x586>
 8005c4c:	9b01      	ldr	r3, [sp, #4]
 8005c4e:	f7ff bbef 	b.w	8005430 <_dtoa_r+0x448>
 8005c52:	6869      	ldr	r1, [r5, #4]
 8005c54:	4620      	mov	r0, r4
 8005c56:	f000 fe49 	bl	80068ec <_Balloc>
 8005c5a:	692b      	ldr	r3, [r5, #16]
 8005c5c:	3302      	adds	r3, #2
 8005c5e:	009a      	lsls	r2, r3, #2
 8005c60:	4606      	mov	r6, r0
 8005c62:	f105 010c 	add.w	r1, r5, #12
 8005c66:	300c      	adds	r0, #12
 8005c68:	f000 fd9a 	bl	80067a0 <memcpy>
 8005c6c:	4631      	mov	r1, r6
 8005c6e:	2201      	movs	r2, #1
 8005c70:	4620      	mov	r0, r4
 8005c72:	f000 fffd 	bl	8006c70 <__lshift>
 8005c76:	4607      	mov	r7, r0
 8005c78:	e5eb      	b.n	8005852 <_dtoa_r+0x86a>
 8005c7a:	e9dd 320a 	ldrd	r3, r2, [sp, #40]	; 0x28
 8005c7e:	1a9e      	subs	r6, r3, r2
 8005c80:	e4a6      	b.n	80055d0 <_dtoa_r+0x5e8>
 8005c82:	9b02      	ldr	r3, [sp, #8]
 8005c84:	2b39      	cmp	r3, #57	; 0x39
 8005c86:	f000 80bc 	beq.w	8005e02 <_dtoa_r+0xe1a>
 8005c8a:	9b02      	ldr	r3, [sp, #8]
 8005c8c:	3301      	adds	r3, #1
 8005c8e:	46a9      	mov	r9, r5
 8005c90:	f806 3b01 	strb.w	r3, [r6], #1
 8005c94:	463d      	mov	r5, r7
 8005c96:	e57e      	b.n	8005796 <_dtoa_r+0x7ae>
 8005c98:	46a9      	mov	r9, r5
 8005c9a:	463d      	mov	r5, r7
 8005c9c:	e55d      	b.n	800575a <_dtoa_r+0x772>
 8005c9e:	bf00      	nop
 8005ca0:	08008dc4 	.word	0x08008dc4
 8005ca4:	401c0000 	.word	0x401c0000
 8005ca8:	40140000 	.word	0x40140000
 8005cac:	08008e00 	.word	0x08008e00
 8005cb0:	08008dd8 	.word	0x08008dd8
 8005cb4:	7ff00000 	.word	0x7ff00000
 8005cb8:	9b14      	ldr	r3, [sp, #80]	; 0x50
 8005cba:	4981      	ldr	r1, [pc, #516]	; (8005ec0 <_dtoa_r+0xed8>)
 8005cbc:	eb01 01c3 	add.w	r1, r1, r3, lsl #3
 8005cc0:	e951 0102 	ldrd	r0, r1, [r1, #-8]
 8005cc4:	e9dd 2312 	ldrd	r2, r3, [sp, #72]	; 0x48
 8005cc8:	f001 ff98 	bl	8007bfc <__aeabi_dmul>
 8005ccc:	4602      	mov	r2, r0
 8005cce:	460b      	mov	r3, r1
 8005cd0:	4638      	mov	r0, r7
 8005cd2:	4641      	mov	r1, r8
 8005cd4:	ec43 2b18 	vmov	d8, r2, r3
 8005cd8:	f002 fa40 	bl	800815c <__aeabi_d2iz>
 8005cdc:	4605      	mov	r5, r0
 8005cde:	f001 ff23 	bl	8007b28 <__aeabi_i2d>
 8005ce2:	460b      	mov	r3, r1
 8005ce4:	4602      	mov	r2, r0
 8005ce6:	4641      	mov	r1, r8
 8005ce8:	4638      	mov	r0, r7
 8005cea:	f001 fdcf 	bl	800788c <__aeabi_dsub>
 8005cee:	9b14      	ldr	r3, [sp, #80]	; 0x50
 8005cf0:	f8dd 9004 	ldr.w	r9, [sp, #4]
 8005cf4:	3530      	adds	r5, #48	; 0x30
 8005cf6:	2b01      	cmp	r3, #1
 8005cf8:	f809 5b01 	strb.w	r5, [r9], #1
 8005cfc:	4606      	mov	r6, r0
 8005cfe:	460f      	mov	r7, r1
 8005d00:	d023      	beq.n	8005d4a <_dtoa_r+0xd62>
 8005d02:	9b14      	ldr	r3, [sp, #80]	; 0x50
 8005d04:	9a01      	ldr	r2, [sp, #4]
 8005d06:	f8cd b048 	str.w	fp, [sp, #72]	; 0x48
 8005d0a:	4413      	add	r3, r2
 8005d0c:	469b      	mov	fp, r3
 8005d0e:	464d      	mov	r5, r9
 8005d10:	4b6c      	ldr	r3, [pc, #432]	; (8005ec4 <_dtoa_r+0xedc>)
 8005d12:	2200      	movs	r2, #0
 8005d14:	4630      	mov	r0, r6
 8005d16:	4639      	mov	r1, r7
 8005d18:	f001 ff70 	bl	8007bfc <__aeabi_dmul>
 8005d1c:	4689      	mov	r9, r1
 8005d1e:	4680      	mov	r8, r0
 8005d20:	f002 fa1c 	bl	800815c <__aeabi_d2iz>
 8005d24:	4607      	mov	r7, r0
 8005d26:	f001 feff 	bl	8007b28 <__aeabi_i2d>
 8005d2a:	3730      	adds	r7, #48	; 0x30
 8005d2c:	4602      	mov	r2, r0
 8005d2e:	460b      	mov	r3, r1
 8005d30:	4640      	mov	r0, r8
 8005d32:	4649      	mov	r1, r9
 8005d34:	f001 fdaa 	bl	800788c <__aeabi_dsub>
 8005d38:	f805 7b01 	strb.w	r7, [r5], #1
 8005d3c:	455d      	cmp	r5, fp
 8005d3e:	4606      	mov	r6, r0
 8005d40:	460f      	mov	r7, r1
 8005d42:	d1e5      	bne.n	8005d10 <_dtoa_r+0xd28>
 8005d44:	f8dd b048 	ldr.w	fp, [sp, #72]	; 0x48
 8005d48:	46a9      	mov	r9, r5
 8005d4a:	4b5f      	ldr	r3, [pc, #380]	; (8005ec8 <_dtoa_r+0xee0>)
 8005d4c:	2200      	movs	r2, #0
 8005d4e:	ec51 0b18 	vmov	r0, r1, d8
 8005d52:	f001 fd9d 	bl	8007890 <__adddf3>
 8005d56:	4632      	mov	r2, r6
 8005d58:	463b      	mov	r3, r7
 8005d5a:	f002 f9c1 	bl	80080e0 <__aeabi_dcmplt>
 8005d5e:	2800      	cmp	r0, #0
 8005d60:	d164      	bne.n	8005e2c <_dtoa_r+0xe44>
 8005d62:	ec53 2b18 	vmov	r2, r3, d8
 8005d66:	4958      	ldr	r1, [pc, #352]	; (8005ec8 <_dtoa_r+0xee0>)
 8005d68:	2000      	movs	r0, #0
 8005d6a:	f001 fd8f 	bl	800788c <__aeabi_dsub>
 8005d6e:	4632      	mov	r2, r6
 8005d70:	463b      	mov	r3, r7
 8005d72:	f002 f9d3 	bl	800811c <__aeabi_dcmpgt>
 8005d76:	2800      	cmp	r0, #0
 8005d78:	f43f ab6d 	beq.w	8005456 <_dtoa_r+0x46e>
 8005d7c:	464e      	mov	r6, r9
 8005d7e:	f109 39ff 	add.w	r9, r9, #4294967295	; 0xffffffff
 8005d82:	f816 3c01 	ldrb.w	r3, [r6, #-1]
 8005d86:	2b30      	cmp	r3, #48	; 0x30
 8005d88:	d0f8      	beq.n	8005d7c <_dtoa_r+0xd94>
 8005d8a:	9b15      	ldr	r3, [sp, #84]	; 0x54
 8005d8c:	3301      	adds	r3, #1
 8005d8e:	9308      	str	r3, [sp, #32]
 8005d90:	e513      	b.n	80057ba <_dtoa_r+0x7d2>
 8005d92:	9b16      	ldr	r3, [sp, #88]	; 0x58
 8005d94:	f1c3 0336 	rsb	r3, r3, #54	; 0x36
 8005d98:	e699      	b.n	8005ace <_dtoa_r+0xae6>
 8005d9a:	9b0b      	ldr	r3, [sp, #44]	; 0x2c
 8005d9c:	2b00      	cmp	r3, #0
 8005d9e:	f43f ae9f 	beq.w	8005ae0 <_dtoa_r+0xaf8>
 8005da2:	9d11      	ldr	r5, [sp, #68]	; 0x44
 8005da4:	2d00      	cmp	r5, #0
 8005da6:	f77f ab56 	ble.w	8005456 <_dtoa_r+0x46e>
 8005daa:	4b46      	ldr	r3, [pc, #280]	; (8005ec4 <_dtoa_r+0xedc>)
 8005dac:	4638      	mov	r0, r7
 8005dae:	4641      	mov	r1, r8
 8005db0:	2200      	movs	r2, #0
 8005db2:	f001 ff23 	bl	8007bfc <__aeabi_dmul>
 8005db6:	4602      	mov	r2, r0
 8005db8:	4617      	mov	r7, r2
 8005dba:	4688      	mov	r8, r1
 8005dbc:	f109 0001 	add.w	r0, r9, #1
 8005dc0:	f001 feb2 	bl	8007b28 <__aeabi_i2d>
 8005dc4:	463a      	mov	r2, r7
 8005dc6:	4643      	mov	r3, r8
 8005dc8:	f001 ff18 	bl	8007bfc <__aeabi_dmul>
 8005dcc:	4b3f      	ldr	r3, [pc, #252]	; (8005ecc <_dtoa_r+0xee4>)
 8005dce:	2200      	movs	r2, #0
 8005dd0:	f001 fd5e 	bl	8007890 <__adddf3>
 8005dd4:	f1a1 7350 	sub.w	r3, r1, #54525952	; 0x3400000
 8005dd8:	e9cd 0112 	strd	r0, r1, [sp, #72]	; 0x48
 8005ddc:	9313      	str	r3, [sp, #76]	; 0x4c
 8005dde:	9b08      	ldr	r3, [sp, #32]
 8005de0:	3b01      	subs	r3, #1
 8005de2:	e9cd 5314 	strd	r5, r3, [sp, #80]	; 0x50
 8005de6:	f7ff ba9d 	b.w	8005324 <_dtoa_r+0x33c>
 8005dea:	e9dd 7802 	ldrd	r7, r8, [sp, #8]
 8005dee:	f04f 0902 	mov.w	r9, #2
 8005df2:	f7ff ba74 	b.w	80052de <_dtoa_r+0x2f6>
 8005df6:	9b08      	ldr	r3, [sp, #32]
 8005df8:	3301      	adds	r3, #1
 8005dfa:	9308      	str	r3, [sp, #32]
 8005dfc:	2231      	movs	r2, #49	; 0x31
 8005dfe:	f7ff bb1e 	b.w	800543e <_dtoa_r+0x456>
 8005e02:	46b3      	mov	fp, r6
 8005e04:	2239      	movs	r2, #57	; 0x39
 8005e06:	46a9      	mov	r9, r5
 8005e08:	f80b 2b01 	strb.w	r2, [fp], #1
 8005e0c:	463d      	mov	r5, r7
 8005e0e:	e4b2      	b.n	8005776 <_dtoa_r+0x78e>
 8005e10:	f04f 0800 	mov.w	r8, #0
 8005e14:	4645      	mov	r5, r8
 8005e16:	e5a2      	b.n	800595e <_dtoa_r+0x976>
 8005e18:	46a1      	mov	r9, r4
 8005e1a:	ee19 aa10 	vmov	sl, s18
 8005e1e:	ee19 4a90 	vmov	r4, s19
 8005e22:	9b15      	ldr	r3, [sp, #84]	; 0x54
 8005e24:	3301      	adds	r3, #1
 8005e26:	9308      	str	r3, [sp, #32]
 8005e28:	464e      	mov	r6, r9
 8005e2a:	e4c6      	b.n	80057ba <_dtoa_r+0x7d2>
 8005e2c:	9b15      	ldr	r3, [sp, #84]	; 0x54
 8005e2e:	9308      	str	r3, [sp, #32]
 8005e30:	9b01      	ldr	r3, [sp, #4]
 8005e32:	f7ff bafd 	b.w	8005430 <_dtoa_r+0x448>
 8005e36:	f47f aee6 	bne.w	8005c06 <_dtoa_r+0xc1e>
 8005e3a:	9b02      	ldr	r3, [sp, #8]
 8005e3c:	07da      	lsls	r2, r3, #31
 8005e3e:	f57f aee2 	bpl.w	8005c06 <_dtoa_r+0xc1e>
 8005e42:	e6d9      	b.n	8005bf8 <_dtoa_r+0xc10>
 8005e44:	9b02      	ldr	r3, [sp, #8]
 8005e46:	2b39      	cmp	r3, #57	; 0x39
 8005e48:	d0db      	beq.n	8005e02 <_dtoa_r+0xe1a>
 8005e4a:	f1b9 0f00 	cmp.w	r9, #0
 8005e4e:	f73f aed7 	bgt.w	8005c00 <_dtoa_r+0xc18>
 8005e52:	e6d8      	b.n	8005c06 <_dtoa_r+0xc1e>
 8005e54:	4629      	mov	r1, r5
 8005e56:	2300      	movs	r3, #0
 8005e58:	220a      	movs	r2, #10
 8005e5a:	4620      	mov	r0, r4
 8005e5c:	f000 fd76 	bl	800694c <__multadd>
 8005e60:	9b11      	ldr	r3, [sp, #68]	; 0x44
 8005e62:	2b00      	cmp	r3, #0
 8005e64:	4605      	mov	r5, r0
 8005e66:	f77f ace2 	ble.w	800582e <_dtoa_r+0x846>
 8005e6a:	930b      	str	r3, [sp, #44]	; 0x2c
 8005e6c:	e4ea      	b.n	8005844 <_dtoa_r+0x85c>
 8005e6e:	9b06      	ldr	r3, [sp, #24]
 8005e70:	2b02      	cmp	r3, #2
 8005e72:	dc02      	bgt.n	8005e7a <_dtoa_r+0xe92>
 8005e74:	f8cd 9020 	str.w	r9, [sp, #32]
 8005e78:	e5e9      	b.n	8005a4e <_dtoa_r+0xa66>
 8005e7a:	9b11      	ldr	r3, [sp, #68]	; 0x44
 8005e7c:	f8cd 9020 	str.w	r9, [sp, #32]
 8005e80:	930b      	str	r3, [sp, #44]	; 0x2c
 8005e82:	e55b      	b.n	800593c <_dtoa_r+0x954>
 8005e84:	f04f 0902 	mov.w	r9, #2
 8005e88:	f7ff ba29 	b.w	80052de <_dtoa_r+0x2f6>
 8005e8c:	4b10      	ldr	r3, [pc, #64]	; (8005ed0 <_dtoa_r+0xee8>)
 8005e8e:	9301      	str	r3, [sp, #4]
 8005e90:	f7ff b8eb 	b.w	800506a <_dtoa_r+0x82>
 8005e94:	f43f ac1a 	beq.w	80056cc <_dtoa_r+0x6e4>
 8005e98:	f1c0 003c 	rsb	r0, r0, #60	; 0x3c
 8005e9c:	e4a3      	b.n	80057e6 <_dtoa_r+0x7fe>
 8005e9e:	2500      	movs	r5, #0
 8005ea0:	6465      	str	r5, [r4, #68]	; 0x44
 8005ea2:	4629      	mov	r1, r5
 8005ea4:	4620      	mov	r0, r4
 8005ea6:	f000 fd21 	bl	80068ec <_Balloc>
 8005eaa:	f04f 33ff 	mov.w	r3, #4294967295	; 0xffffffff
 8005eae:	9311      	str	r3, [sp, #68]	; 0x44
 8005eb0:	930b      	str	r3, [sp, #44]	; 0x2c
 8005eb2:	2301      	movs	r3, #1
 8005eb4:	9001      	str	r0, [sp, #4]
 8005eb6:	950c      	str	r5, [sp, #48]	; 0x30
 8005eb8:	6420      	str	r0, [r4, #64]	; 0x40
 8005eba:	930d      	str	r3, [sp, #52]	; 0x34
 8005ebc:	f7ff bacb 	b.w	8005456 <_dtoa_r+0x46e>
 8005ec0:	08008e00 	.word	0x08008e00
 8005ec4:	40240000 	.word	0x40240000
 8005ec8:	3fe00000 	.word	0x3fe00000
 8005ecc:	401c0000 	.word	0x401c0000
 8005ed0:	08008dc8 	.word	0x08008dc8

08005ed4 <_malloc_trim_r>:
 8005ed4:	b5f8      	push	{r3, r4, r5, r6, r7, lr}
 8005ed6:	4f24      	ldr	r7, [pc, #144]	; (8005f68 <_malloc_trim_r+0x94>)
 8005ed8:	460c      	mov	r4, r1
 8005eda:	4606      	mov	r6, r0
 8005edc:	f000 fcfa 	bl	80068d4 <__malloc_lock>
 8005ee0:	68bb      	ldr	r3, [r7, #8]
 8005ee2:	685d      	ldr	r5, [r3, #4]
 8005ee4:	f5c4 617e 	rsb	r1, r4, #4064	; 0xfe0
 8005ee8:	310f      	adds	r1, #15
 8005eea:	f025 0503 	bic.w	r5, r5, #3
 8005eee:	194b      	adds	r3, r1, r5
 8005ef0:	f423 637f 	bic.w	r3, r3, #4080	; 0xff0
 8005ef4:	f023 030f 	bic.w	r3, r3, #15
 8005ef8:	f5a3 5480 	sub.w	r4, r3, #4096	; 0x1000
 8005efc:	f5b4 5f80 	cmp.w	r4, #4096	; 0x1000
 8005f00:	db07      	blt.n	8005f12 <_malloc_trim_r+0x3e>
 8005f02:	2100      	movs	r1, #0
 8005f04:	4630      	mov	r0, r6
 8005f06:	f001 f86b 	bl	8006fe0 <_sbrk_r>
 8005f0a:	68bb      	ldr	r3, [r7, #8]
 8005f0c:	442b      	add	r3, r5
 8005f0e:	4298      	cmp	r0, r3
 8005f10:	d004      	beq.n	8005f1c <_malloc_trim_r+0x48>
 8005f12:	4630      	mov	r0, r6
 8005f14:	f000 fce4 	bl	80068e0 <__malloc_unlock>
 8005f18:	2000      	movs	r0, #0
 8005f1a:	bdf8      	pop	{r3, r4, r5, r6, r7, pc}
 8005f1c:	4261      	negs	r1, r4
 8005f1e:	4630      	mov	r0, r6
 8005f20:	f001 f85e 	bl	8006fe0 <_sbrk_r>
 8005f24:	3001      	adds	r0, #1
 8005f26:	d00d      	beq.n	8005f44 <_malloc_trim_r+0x70>
 8005f28:	4a10      	ldr	r2, [pc, #64]	; (8005f6c <_malloc_trim_r+0x98>)
 8005f2a:	68b9      	ldr	r1, [r7, #8]
 8005f2c:	6813      	ldr	r3, [r2, #0]
 8005f2e:	1b2d      	subs	r5, r5, r4
 8005f30:	f045 0501 	orr.w	r5, r5, #1
 8005f34:	4630      	mov	r0, r6
 8005f36:	1b1b      	subs	r3, r3, r4
 8005f38:	604d      	str	r5, [r1, #4]
 8005f3a:	6013      	str	r3, [r2, #0]
 8005f3c:	f000 fcd0 	bl	80068e0 <__malloc_unlock>
 8005f40:	2001      	movs	r0, #1
 8005f42:	bdf8      	pop	{r3, r4, r5, r6, r7, pc}
 8005f44:	2100      	movs	r1, #0
 8005f46:	4630      	mov	r0, r6
 8005f48:	f001 f84a 	bl	8006fe0 <_sbrk_r>
 8005f4c:	68ba      	ldr	r2, [r7, #8]
 8005f4e:	1a83      	subs	r3, r0, r2
 8005f50:	2b0f      	cmp	r3, #15
 8005f52:	ddde      	ble.n	8005f12 <_malloc_trim_r+0x3e>
 8005f54:	4c06      	ldr	r4, [pc, #24]	; (8005f70 <_malloc_trim_r+0x9c>)
 8005f56:	4905      	ldr	r1, [pc, #20]	; (8005f6c <_malloc_trim_r+0x98>)
 8005f58:	6824      	ldr	r4, [r4, #0]
 8005f5a:	f043 0301 	orr.w	r3, r3, #1
 8005f5e:	1b00      	subs	r0, r0, r4
 8005f60:	6053      	str	r3, [r2, #4]
 8005f62:	6008      	str	r0, [r1, #0]
 8005f64:	e7d5      	b.n	8005f12 <_malloc_trim_r+0x3e>
 8005f66:	bf00      	nop
 8005f68:	20000430 	.word	0x20000430
 8005f6c:	200009b8 	.word	0x200009b8
 8005f70:	20000838 	.word	0x20000838

08005f74 <_free_r>:
 8005f74:	2900      	cmp	r1, #0
 8005f76:	d05e      	beq.n	8006036 <_free_r+0xc2>
 8005f78:	b5f8      	push	{r3, r4, r5, r6, r7, lr}
 8005f7a:	460c      	mov	r4, r1
 8005f7c:	4606      	mov	r6, r0
 8005f7e:	f000 fca9 	bl	80068d4 <__malloc_lock>
 8005f82:	f854 3c04 	ldr.w	r3, [r4, #-4]
 8005f86:	f8df c1f0 	ldr.w	ip, [pc, #496]	; 8006178 <_free_r+0x204>
 8005f8a:	f023 0101 	bic.w	r1, r3, #1
 8005f8e:	f1a4 0008 	sub.w	r0, r4, #8
 8005f92:	1842      	adds	r2, r0, r1
 8005f94:	f8dc 7008 	ldr.w	r7, [ip, #8]
 8005f98:	6855      	ldr	r5, [r2, #4]
 8005f9a:	4297      	cmp	r7, r2
 8005f9c:	f025 0503 	bic.w	r5, r5, #3
 8005fa0:	f000 8088 	beq.w	80060b4 <_free_r+0x140>
 8005fa4:	07df      	lsls	r7, r3, #31
 8005fa6:	6055      	str	r5, [r2, #4]
 8005fa8:	d433      	bmi.n	8006012 <_free_r+0x9e>
 8005faa:	f854 7c08 	ldr.w	r7, [r4, #-8]
 8005fae:	1bc0      	subs	r0, r0, r7
 8005fb0:	f10c 0408 	add.w	r4, ip, #8
 8005fb4:	6883      	ldr	r3, [r0, #8]
 8005fb6:	42a3      	cmp	r3, r4
 8005fb8:	4439      	add	r1, r7
 8005fba:	d069      	beq.n	8006090 <_free_r+0x11c>
 8005fbc:	1957      	adds	r7, r2, r5
 8005fbe:	f8d0 e00c 	ldr.w	lr, [r0, #12]
 8005fc2:	687f      	ldr	r7, [r7, #4]
 8005fc4:	f8c3 e00c 	str.w	lr, [r3, #12]
 8005fc8:	f8ce 3008 	str.w	r3, [lr, #8]
 8005fcc:	07fb      	lsls	r3, r7, #31
 8005fce:	f140 8096 	bpl.w	80060fe <_free_r+0x18a>
 8005fd2:	f041 0301 	orr.w	r3, r1, #1
 8005fd6:	6043      	str	r3, [r0, #4]
 8005fd8:	6011      	str	r1, [r2, #0]
 8005fda:	f5b1 7f00 	cmp.w	r1, #512	; 0x200
 8005fde:	d233      	bcs.n	8006048 <_free_r+0xd4>
 8005fe0:	08cb      	lsrs	r3, r1, #3
 8005fe2:	f8dc 4004 	ldr.w	r4, [ip, #4]
 8005fe6:	3301      	adds	r3, #1
 8005fe8:	094a      	lsrs	r2, r1, #5
 8005fea:	2101      	movs	r1, #1
 8005fec:	4091      	lsls	r1, r2
 8005fee:	4321      	orrs	r1, r4
 8005ff0:	eb0c 02c3 	add.w	r2, ip, r3, lsl #3
 8005ff4:	f85c 4033 	ldr.w	r4, [ip, r3, lsl #3]
 8005ff8:	f8cc 1004 	str.w	r1, [ip, #4]
 8005ffc:	3a08      	subs	r2, #8
 8005ffe:	e9c0 4202 	strd	r4, r2, [r0, #8]
 8006002:	f84c 0033 	str.w	r0, [ip, r3, lsl #3]
 8006006:	60e0      	str	r0, [r4, #12]
 8006008:	4630      	mov	r0, r6
 800600a:	e8bd 40f8 	ldmia.w	sp!, {r3, r4, r5, r6, r7, lr}
 800600e:	f000 bc67 	b.w	80068e0 <__malloc_unlock>
 8006012:	1953      	adds	r3, r2, r5
 8006014:	685b      	ldr	r3, [r3, #4]
 8006016:	07df      	lsls	r7, r3, #31
 8006018:	d40e      	bmi.n	8006038 <_free_r+0xc4>
 800601a:	4429      	add	r1, r5
 800601c:	f10c 0408 	add.w	r4, ip, #8
 8006020:	6893      	ldr	r3, [r2, #8]
 8006022:	42a3      	cmp	r3, r4
 8006024:	d073      	beq.n	800610e <_free_r+0x19a>
 8006026:	68d4      	ldr	r4, [r2, #12]
 8006028:	60dc      	str	r4, [r3, #12]
 800602a:	f041 0201 	orr.w	r2, r1, #1
 800602e:	60a3      	str	r3, [r4, #8]
 8006030:	6042      	str	r2, [r0, #4]
 8006032:	5041      	str	r1, [r0, r1]
 8006034:	e7d1      	b.n	8005fda <_free_r+0x66>
 8006036:	4770      	bx	lr
 8006038:	f041 0301 	orr.w	r3, r1, #1
 800603c:	f5b1 7f00 	cmp.w	r1, #512	; 0x200
 8006040:	f844 3c04 	str.w	r3, [r4, #-4]
 8006044:	6011      	str	r1, [r2, #0]
 8006046:	d3cb      	bcc.n	8005fe0 <_free_r+0x6c>
 8006048:	f5b1 6f20 	cmp.w	r1, #2560	; 0xa00
 800604c:	ea4f 2351 	mov.w	r3, r1, lsr #9
 8006050:	d24a      	bcs.n	80060e8 <_free_r+0x174>
 8006052:	098b      	lsrs	r3, r1, #6
 8006054:	f103 0539 	add.w	r5, r3, #57	; 0x39
 8006058:	00ed      	lsls	r5, r5, #3
 800605a:	f103 0238 	add.w	r2, r3, #56	; 0x38
 800605e:	f85c 3005 	ldr.w	r3, [ip, r5]
 8006062:	eb0c 0405 	add.w	r4, ip, r5
 8006066:	3c08      	subs	r4, #8
 8006068:	429c      	cmp	r4, r3
 800606a:	d059      	beq.n	8006120 <_free_r+0x1ac>
 800606c:	685a      	ldr	r2, [r3, #4]
 800606e:	f022 0203 	bic.w	r2, r2, #3
 8006072:	428a      	cmp	r2, r1
 8006074:	d902      	bls.n	800607c <_free_r+0x108>
 8006076:	689b      	ldr	r3, [r3, #8]
 8006078:	429c      	cmp	r4, r3
 800607a:	d1f7      	bne.n	800606c <_free_r+0xf8>
 800607c:	68dc      	ldr	r4, [r3, #12]
 800607e:	e9c0 3402 	strd	r3, r4, [r0, #8]
 8006082:	60a0      	str	r0, [r4, #8]
 8006084:	60d8      	str	r0, [r3, #12]
 8006086:	4630      	mov	r0, r6
 8006088:	e8bd 40f8 	ldmia.w	sp!, {r3, r4, r5, r6, r7, lr}
 800608c:	f000 bc28 	b.w	80068e0 <__malloc_unlock>
 8006090:	1953      	adds	r3, r2, r5
 8006092:	685b      	ldr	r3, [r3, #4]
 8006094:	07db      	lsls	r3, r3, #31
 8006096:	d466      	bmi.n	8006166 <_free_r+0x1f2>
 8006098:	e9d2 2302 	ldrd	r2, r3, [r2, #8]
 800609c:	4429      	add	r1, r5
 800609e:	f041 0401 	orr.w	r4, r1, #1
 80060a2:	60d3      	str	r3, [r2, #12]
 80060a4:	609a      	str	r2, [r3, #8]
 80060a6:	6044      	str	r4, [r0, #4]
 80060a8:	5041      	str	r1, [r0, r1]
 80060aa:	4630      	mov	r0, r6
 80060ac:	e8bd 40f8 	ldmia.w	sp!, {r3, r4, r5, r6, r7, lr}
 80060b0:	f000 bc16 	b.w	80068e0 <__malloc_unlock>
 80060b4:	07db      	lsls	r3, r3, #31
 80060b6:	4429      	add	r1, r5
 80060b8:	d407      	bmi.n	80060ca <_free_r+0x156>
 80060ba:	f854 3c08 	ldr.w	r3, [r4, #-8]
 80060be:	1ac0      	subs	r0, r0, r3
 80060c0:	4419      	add	r1, r3
 80060c2:	e9d0 2302 	ldrd	r2, r3, [r0, #8]
 80060c6:	60d3      	str	r3, [r2, #12]
 80060c8:	609a      	str	r2, [r3, #8]
 80060ca:	4b29      	ldr	r3, [pc, #164]	; (8006170 <_free_r+0x1fc>)
 80060cc:	681b      	ldr	r3, [r3, #0]
 80060ce:	f041 0201 	orr.w	r2, r1, #1
 80060d2:	428b      	cmp	r3, r1
 80060d4:	6042      	str	r2, [r0, #4]
 80060d6:	f8cc 0008 	str.w	r0, [ip, #8]
 80060da:	d895      	bhi.n	8006008 <_free_r+0x94>
 80060dc:	4b25      	ldr	r3, [pc, #148]	; (8006174 <_free_r+0x200>)
 80060de:	4630      	mov	r0, r6
 80060e0:	6819      	ldr	r1, [r3, #0]
 80060e2:	f7ff fef7 	bl	8005ed4 <_malloc_trim_r>
 80060e6:	e78f      	b.n	8006008 <_free_r+0x94>
 80060e8:	2b14      	cmp	r3, #20
 80060ea:	d90a      	bls.n	8006102 <_free_r+0x18e>
 80060ec:	2b54      	cmp	r3, #84	; 0x54
 80060ee:	d821      	bhi.n	8006134 <_free_r+0x1c0>
 80060f0:	0b0b      	lsrs	r3, r1, #12
 80060f2:	f103 056f 	add.w	r5, r3, #111	; 0x6f
 80060f6:	00ed      	lsls	r5, r5, #3
 80060f8:	f103 026e 	add.w	r2, r3, #110	; 0x6e
 80060fc:	e7af      	b.n	800605e <_free_r+0xea>
 80060fe:	4429      	add	r1, r5
 8006100:	e78e      	b.n	8006020 <_free_r+0xac>
 8006102:	f103 055c 	add.w	r5, r3, #92	; 0x5c
 8006106:	00ed      	lsls	r5, r5, #3
 8006108:	f103 025b 	add.w	r2, r3, #91	; 0x5b
 800610c:	e7a7      	b.n	800605e <_free_r+0xea>
 800610e:	f041 0301 	orr.w	r3, r1, #1
 8006112:	e9cc 0004 	strd	r0, r0, [ip, #16]
 8006116:	e9c0 4402 	strd	r4, r4, [r0, #8]
 800611a:	6043      	str	r3, [r0, #4]
 800611c:	5041      	str	r1, [r0, r1]
 800611e:	e773      	b.n	8006008 <_free_r+0x94>
 8006120:	f8dc 1004 	ldr.w	r1, [ip, #4]
 8006124:	1092      	asrs	r2, r2, #2
 8006126:	2501      	movs	r5, #1
 8006128:	fa05 f202 	lsl.w	r2, r5, r2
 800612c:	430a      	orrs	r2, r1
 800612e:	f8cc 2004 	str.w	r2, [ip, #4]
 8006132:	e7a4      	b.n	800607e <_free_r+0x10a>
 8006134:	f5b3 7faa 	cmp.w	r3, #340	; 0x154
 8006138:	d806      	bhi.n	8006148 <_free_r+0x1d4>
 800613a:	0bcb      	lsrs	r3, r1, #15
 800613c:	f103 0578 	add.w	r5, r3, #120	; 0x78
 8006140:	00ed      	lsls	r5, r5, #3
 8006142:	f103 0277 	add.w	r2, r3, #119	; 0x77
 8006146:	e78a      	b.n	800605e <_free_r+0xea>
 8006148:	f240 5254 	movw	r2, #1364	; 0x554
 800614c:	4293      	cmp	r3, r2
 800614e:	d806      	bhi.n	800615e <_free_r+0x1ea>
 8006150:	0c8b      	lsrs	r3, r1, #18
 8006152:	f103 057d 	add.w	r5, r3, #125	; 0x7d
 8006156:	00ed      	lsls	r5, r5, #3
 8006158:	f103 027c 	add.w	r2, r3, #124	; 0x7c
 800615c:	e77f      	b.n	800605e <_free_r+0xea>
 800615e:	f44f 757e 	mov.w	r5, #1016	; 0x3f8
 8006162:	227e      	movs	r2, #126	; 0x7e
 8006164:	e77b      	b.n	800605e <_free_r+0xea>
 8006166:	f041 0301 	orr.w	r3, r1, #1
 800616a:	6043      	str	r3, [r0, #4]
 800616c:	6011      	str	r1, [r2, #0]
 800616e:	e74b      	b.n	8006008 <_free_r+0x94>
 8006170:	2000083c 	.word	0x2000083c
 8006174:	200009e8 	.word	0x200009e8
 8006178:	20000430 	.word	0x20000430

0800617c <_localeconv_r>:
 800617c:	4800      	ldr	r0, [pc, #0]	; (8006180 <_localeconv_r+0x4>)
 800617e:	4770      	bx	lr
 8006180:	20000930 	.word	0x20000930

08006184 <_malloc_r>:
 8006184:	e92d 4ff0 	stmdb	sp!, {r4, r5, r6, r7, r8, r9, sl, fp, lr}
 8006188:	f101 050b 	add.w	r5, r1, #11
 800618c:	2d16      	cmp	r5, #22
 800618e:	b083      	sub	sp, #12
 8006190:	4606      	mov	r6, r0
 8006192:	d824      	bhi.n	80061de <_malloc_r+0x5a>
 8006194:	2910      	cmp	r1, #16
 8006196:	f200 80b7 	bhi.w	8006308 <_malloc_r+0x184>
 800619a:	f000 fb9b 	bl	80068d4 <__malloc_lock>
 800619e:	2510      	movs	r5, #16
 80061a0:	2102      	movs	r1, #2
 80061a2:	2318      	movs	r3, #24
 80061a4:	f8df 84f0 	ldr.w	r8, [pc, #1264]	; 8006698 <_malloc_r+0x514>
 80061a8:	4443      	add	r3, r8
 80061aa:	f1a3 0208 	sub.w	r2, r3, #8
 80061ae:	685c      	ldr	r4, [r3, #4]
 80061b0:	4294      	cmp	r4, r2
 80061b2:	f000 80b5 	beq.w	8006320 <_malloc_r+0x19c>
 80061b6:	6863      	ldr	r3, [r4, #4]
 80061b8:	f023 0303 	bic.w	r3, r3, #3
 80061bc:	4423      	add	r3, r4
 80061be:	e9d4 5102 	ldrd	r5, r1, [r4, #8]
 80061c2:	685a      	ldr	r2, [r3, #4]
 80061c4:	60e9      	str	r1, [r5, #12]
 80061c6:	f042 0201 	orr.w	r2, r2, #1
 80061ca:	4630      	mov	r0, r6
 80061cc:	608d      	str	r5, [r1, #8]
 80061ce:	605a      	str	r2, [r3, #4]
 80061d0:	f000 fb86 	bl	80068e0 <__malloc_unlock>
 80061d4:	3408      	adds	r4, #8
 80061d6:	4620      	mov	r0, r4
 80061d8:	b003      	add	sp, #12
 80061da:	e8bd 8ff0 	ldmia.w	sp!, {r4, r5, r6, r7, r8, r9, sl, fp, pc}
 80061de:	f035 0507 	bics.w	r5, r5, #7
 80061e2:	f100 8091 	bmi.w	8006308 <_malloc_r+0x184>
 80061e6:	42a9      	cmp	r1, r5
 80061e8:	f200 808e 	bhi.w	8006308 <_malloc_r+0x184>
 80061ec:	f000 fb72 	bl	80068d4 <__malloc_lock>
 80061f0:	f5b5 7ffc 	cmp.w	r5, #504	; 0x1f8
 80061f4:	f0c0 8190 	bcc.w	8006518 <_malloc_r+0x394>
 80061f8:	0a6b      	lsrs	r3, r5, #9
 80061fa:	f000 808c 	beq.w	8006316 <_malloc_r+0x192>
 80061fe:	2b04      	cmp	r3, #4
 8006200:	f200 8166 	bhi.w	80064d0 <_malloc_r+0x34c>
 8006204:	09ab      	lsrs	r3, r5, #6
 8006206:	f103 0139 	add.w	r1, r3, #57	; 0x39
 800620a:	f103 0738 	add.w	r7, r3, #56	; 0x38
 800620e:	00cb      	lsls	r3, r1, #3
 8006210:	f8df 8484 	ldr.w	r8, [pc, #1156]	; 8006698 <_malloc_r+0x514>
 8006214:	4443      	add	r3, r8
 8006216:	f1a3 0008 	sub.w	r0, r3, #8
 800621a:	685c      	ldr	r4, [r3, #4]
 800621c:	42a0      	cmp	r0, r4
 800621e:	d106      	bne.n	800622e <_malloc_r+0xaa>
 8006220:	e00c      	b.n	800623c <_malloc_r+0xb8>
 8006222:	2a00      	cmp	r2, #0
 8006224:	f280 8122 	bge.w	800646c <_malloc_r+0x2e8>
 8006228:	68e4      	ldr	r4, [r4, #12]
 800622a:	42a0      	cmp	r0, r4
 800622c:	d006      	beq.n	800623c <_malloc_r+0xb8>
 800622e:	6863      	ldr	r3, [r4, #4]
 8006230:	f023 0303 	bic.w	r3, r3, #3
 8006234:	1b5a      	subs	r2, r3, r5
 8006236:	2a0f      	cmp	r2, #15
 8006238:	ddf3      	ble.n	8006222 <_malloc_r+0x9e>
 800623a:	4639      	mov	r1, r7
 800623c:	f8d8 4010 	ldr.w	r4, [r8, #16]
 8006240:	f8df c458 	ldr.w	ip, [pc, #1112]	; 800669c <_malloc_r+0x518>
 8006244:	4564      	cmp	r4, ip
 8006246:	d077      	beq.n	8006338 <_malloc_r+0x1b4>
 8006248:	6862      	ldr	r2, [r4, #4]
 800624a:	f022 0203 	bic.w	r2, r2, #3
 800624e:	1b53      	subs	r3, r2, r5
 8006250:	2b0f      	cmp	r3, #15
 8006252:	f300 816f 	bgt.w	8006534 <_malloc_r+0x3b0>
 8006256:	2b00      	cmp	r3, #0
 8006258:	e9c8 cc04 	strd	ip, ip, [r8, #16]
 800625c:	f280 8160 	bge.w	8006520 <_malloc_r+0x39c>
 8006260:	f5b2 7f00 	cmp.w	r2, #512	; 0x200
 8006264:	f080 8110 	bcs.w	8006488 <_malloc_r+0x304>
 8006268:	08d3      	lsrs	r3, r2, #3
 800626a:	3301      	adds	r3, #1
 800626c:	0950      	lsrs	r0, r2, #5
 800626e:	2201      	movs	r2, #1
 8006270:	4082      	lsls	r2, r0
 8006272:	f8d8 0004 	ldr.w	r0, [r8, #4]
 8006276:	f858 7033 	ldr.w	r7, [r8, r3, lsl #3]
 800627a:	60a7      	str	r7, [r4, #8]
 800627c:	eb08 0ec3 	add.w	lr, r8, r3, lsl #3
 8006280:	4302      	orrs	r2, r0
 8006282:	f1ae 0008 	sub.w	r0, lr, #8
 8006286:	60e0      	str	r0, [r4, #12]
 8006288:	f8c8 2004 	str.w	r2, [r8, #4]
 800628c:	f848 4033 	str.w	r4, [r8, r3, lsl #3]
 8006290:	60fc      	str	r4, [r7, #12]
 8006292:	108b      	asrs	r3, r1, #2
 8006294:	2001      	movs	r0, #1
 8006296:	4098      	lsls	r0, r3
 8006298:	4290      	cmp	r0, r2
 800629a:	d854      	bhi.n	8006346 <_malloc_r+0x1c2>
 800629c:	4210      	tst	r0, r2
 800629e:	d106      	bne.n	80062ae <_malloc_r+0x12a>
 80062a0:	f021 0103 	bic.w	r1, r1, #3
 80062a4:	0040      	lsls	r0, r0, #1
 80062a6:	4210      	tst	r0, r2
 80062a8:	f101 0104 	add.w	r1, r1, #4
 80062ac:	d0fa      	beq.n	80062a4 <_malloc_r+0x120>
 80062ae:	eb08 09c1 	add.w	r9, r8, r1, lsl #3
 80062b2:	464c      	mov	r4, r9
 80062b4:	468e      	mov	lr, r1
 80062b6:	68e7      	ldr	r7, [r4, #12]
 80062b8:	42bc      	cmp	r4, r7
 80062ba:	d107      	bne.n	80062cc <_malloc_r+0x148>
 80062bc:	e114      	b.n	80064e8 <_malloc_r+0x364>
 80062be:	2b00      	cmp	r3, #0
 80062c0:	f280 811b 	bge.w	80064fa <_malloc_r+0x376>
 80062c4:	68ff      	ldr	r7, [r7, #12]
 80062c6:	42bc      	cmp	r4, r7
 80062c8:	f000 810e 	beq.w	80064e8 <_malloc_r+0x364>
 80062cc:	687a      	ldr	r2, [r7, #4]
 80062ce:	f022 0203 	bic.w	r2, r2, #3
 80062d2:	1b53      	subs	r3, r2, r5
 80062d4:	2b0f      	cmp	r3, #15
 80062d6:	ddf2      	ble.n	80062be <_malloc_r+0x13a>
 80062d8:	e9d7 e402 	ldrd	lr, r4, [r7, #8]
 80062dc:	1979      	adds	r1, r7, r5
 80062de:	f045 0501 	orr.w	r5, r5, #1
 80062e2:	607d      	str	r5, [r7, #4]
 80062e4:	f043 0501 	orr.w	r5, r3, #1
 80062e8:	f8ce 400c 	str.w	r4, [lr, #12]
 80062ec:	4630      	mov	r0, r6
 80062ee:	f8c4 e008 	str.w	lr, [r4, #8]
 80062f2:	e9c8 1104 	strd	r1, r1, [r8, #16]
 80062f6:	e9c1 cc02 	strd	ip, ip, [r1, #8]
 80062fa:	604d      	str	r5, [r1, #4]
 80062fc:	50bb      	str	r3, [r7, r2]
 80062fe:	f000 faef 	bl	80068e0 <__malloc_unlock>
 8006302:	f107 0408 	add.w	r4, r7, #8
 8006306:	e002      	b.n	800630e <_malloc_r+0x18a>
 8006308:	230c      	movs	r3, #12
 800630a:	6033      	str	r3, [r6, #0]
 800630c:	2400      	movs	r4, #0
 800630e:	4620      	mov	r0, r4
 8006310:	b003      	add	sp, #12
 8006312:	e8bd 8ff0 	ldmia.w	sp!, {r4, r5, r6, r7, r8, r9, sl, fp, pc}
 8006316:	f44f 7300 	mov.w	r3, #512	; 0x200
 800631a:	2140      	movs	r1, #64	; 0x40
 800631c:	273f      	movs	r7, #63	; 0x3f
 800631e:	e777      	b.n	8006210 <_malloc_r+0x8c>
 8006320:	68dc      	ldr	r4, [r3, #12]
 8006322:	42a3      	cmp	r3, r4
 8006324:	bf08      	it	eq
 8006326:	3102      	addeq	r1, #2
 8006328:	f47f af45 	bne.w	80061b6 <_malloc_r+0x32>
 800632c:	f8d8 4010 	ldr.w	r4, [r8, #16]
 8006330:	f8df c368 	ldr.w	ip, [pc, #872]	; 800669c <_malloc_r+0x518>
 8006334:	4564      	cmp	r4, ip
 8006336:	d187      	bne.n	8006248 <_malloc_r+0xc4>
 8006338:	f8d8 2004 	ldr.w	r2, [r8, #4]
 800633c:	108b      	asrs	r3, r1, #2
 800633e:	2001      	movs	r0, #1
 8006340:	4098      	lsls	r0, r3
 8006342:	4290      	cmp	r0, r2
 8006344:	d9aa      	bls.n	800629c <_malloc_r+0x118>
 8006346:	f8d8 4008 	ldr.w	r4, [r8, #8]
 800634a:	6867      	ldr	r7, [r4, #4]
 800634c:	f027 0703 	bic.w	r7, r7, #3
 8006350:	42bd      	cmp	r5, r7
 8006352:	d802      	bhi.n	800635a <_malloc_r+0x1d6>
 8006354:	1b7b      	subs	r3, r7, r5
 8006356:	2b0f      	cmp	r3, #15
 8006358:	dc77      	bgt.n	800644a <_malloc_r+0x2c6>
 800635a:	f8df 9344 	ldr.w	r9, [pc, #836]	; 80066a0 <_malloc_r+0x51c>
 800635e:	4bca      	ldr	r3, [pc, #808]	; (8006688 <_malloc_r+0x504>)
 8006360:	f8d9 2000 	ldr.w	r2, [r9]
 8006364:	681b      	ldr	r3, [r3, #0]
 8006366:	3201      	adds	r2, #1
 8006368:	442b      	add	r3, r5
 800636a:	eb04 0a07 	add.w	sl, r4, r7
 800636e:	f000 812e 	beq.w	80065ce <_malloc_r+0x44a>
 8006372:	f503 5380 	add.w	r3, r3, #4096	; 0x1000
 8006376:	330f      	adds	r3, #15
 8006378:	f423 6b7f 	bic.w	fp, r3, #4080	; 0xff0
 800637c:	f02b 0b0f 	bic.w	fp, fp, #15
 8006380:	4659      	mov	r1, fp
 8006382:	4630      	mov	r0, r6
 8006384:	f000 fe2c 	bl	8006fe0 <_sbrk_r>
 8006388:	1c41      	adds	r1, r0, #1
 800638a:	4602      	mov	r2, r0
 800638c:	f000 80eb 	beq.w	8006566 <_malloc_r+0x3e2>
 8006390:	4582      	cmp	sl, r0
 8006392:	f200 80e6 	bhi.w	8006562 <_malloc_r+0x3de>
 8006396:	4bbd      	ldr	r3, [pc, #756]	; (800668c <_malloc_r+0x508>)
 8006398:	6819      	ldr	r1, [r3, #0]
 800639a:	4459      	add	r1, fp
 800639c:	6019      	str	r1, [r3, #0]
 800639e:	4608      	mov	r0, r1
 80063a0:	f000 814b 	beq.w	800663a <_malloc_r+0x4b6>
 80063a4:	f8d9 1000 	ldr.w	r1, [r9]
 80063a8:	9301      	str	r3, [sp, #4]
 80063aa:	3101      	adds	r1, #1
 80063ac:	bf1b      	ittet	ne
 80063ae:	eba2 0a0a 	subne.w	sl, r2, sl
 80063b2:	4450      	addne	r0, sl
 80063b4:	f8c9 2000 	streq.w	r2, [r9]
 80063b8:	6018      	strne	r0, [r3, #0]
 80063ba:	f012 0a07 	ands.w	sl, r2, #7
 80063be:	f000 8114 	beq.w	80065ea <_malloc_r+0x466>
 80063c2:	f1ca 0108 	rsb	r1, sl, #8
 80063c6:	440a      	add	r2, r1
 80063c8:	f5ca 5180 	rsb	r1, sl, #4096	; 0x1000
 80063cc:	4493      	add	fp, r2
 80063ce:	3108      	adds	r1, #8
 80063d0:	eba1 010b 	sub.w	r1, r1, fp
 80063d4:	f3c1 090b 	ubfx	r9, r1, #0, #12
 80063d8:	4649      	mov	r1, r9
 80063da:	4630      	mov	r0, r6
 80063dc:	9200      	str	r2, [sp, #0]
 80063de:	f000 fdff 	bl	8006fe0 <_sbrk_r>
 80063e2:	1c42      	adds	r2, r0, #1
 80063e4:	e9dd 2300 	ldrd	r2, r3, [sp]
 80063e8:	f000 815c 	beq.w	80066a4 <_malloc_r+0x520>
 80063ec:	1a80      	subs	r0, r0, r2
 80063ee:	eb00 0b09 	add.w	fp, r0, r9
 80063f2:	6819      	ldr	r1, [r3, #0]
 80063f4:	f8c8 2008 	str.w	r2, [r8, #8]
 80063f8:	f04b 0001 	orr.w	r0, fp, #1
 80063fc:	4449      	add	r1, r9
 80063fe:	4544      	cmp	r4, r8
 8006400:	6050      	str	r0, [r2, #4]
 8006402:	6019      	str	r1, [r3, #0]
 8006404:	f000 8126 	beq.w	8006654 <_malloc_r+0x4d0>
 8006408:	2f0f      	cmp	r7, #15
 800640a:	f240 8125 	bls.w	8006658 <_malloc_r+0x4d4>
 800640e:	6860      	ldr	r0, [r4, #4]
 8006410:	3f0c      	subs	r7, #12
 8006412:	f027 0707 	bic.w	r7, r7, #7
 8006416:	f000 0001 	and.w	r0, r0, #1
 800641a:	eb04 0c07 	add.w	ip, r4, r7
 800641e:	4338      	orrs	r0, r7
 8006420:	f04f 0e05 	mov.w	lr, #5
 8006424:	2f0f      	cmp	r7, #15
 8006426:	6060      	str	r0, [r4, #4]
 8006428:	e9cc ee01 	strd	lr, lr, [ip, #4]
 800642c:	f200 8142 	bhi.w	80066b4 <_malloc_r+0x530>
 8006430:	6850      	ldr	r0, [r2, #4]
 8006432:	4614      	mov	r4, r2
 8006434:	4b96      	ldr	r3, [pc, #600]	; (8006690 <_malloc_r+0x50c>)
 8006436:	681a      	ldr	r2, [r3, #0]
 8006438:	428a      	cmp	r2, r1
 800643a:	bf38      	it	cc
 800643c:	6019      	strcc	r1, [r3, #0]
 800643e:	4b95      	ldr	r3, [pc, #596]	; (8006694 <_malloc_r+0x510>)
 8006440:	681a      	ldr	r2, [r3, #0]
 8006442:	428a      	cmp	r2, r1
 8006444:	bf38      	it	cc
 8006446:	6019      	strcc	r1, [r3, #0]
 8006448:	e090      	b.n	800656c <_malloc_r+0x3e8>
 800644a:	1962      	adds	r2, r4, r5
 800644c:	f043 0301 	orr.w	r3, r3, #1
 8006450:	f045 0501 	orr.w	r5, r5, #1
 8006454:	6065      	str	r5, [r4, #4]
 8006456:	4630      	mov	r0, r6
 8006458:	f8c8 2008 	str.w	r2, [r8, #8]
 800645c:	6053      	str	r3, [r2, #4]
 800645e:	f000 fa3f 	bl	80068e0 <__malloc_unlock>
 8006462:	3408      	adds	r4, #8
 8006464:	4620      	mov	r0, r4
 8006466:	b003      	add	sp, #12
 8006468:	e8bd 8ff0 	ldmia.w	sp!, {r4, r5, r6, r7, r8, r9, sl, fp, pc}
 800646c:	4423      	add	r3, r4
 800646e:	68e1      	ldr	r1, [r4, #12]
 8006470:	685a      	ldr	r2, [r3, #4]
 8006472:	68a5      	ldr	r5, [r4, #8]
 8006474:	f042 0201 	orr.w	r2, r2, #1
 8006478:	60e9      	str	r1, [r5, #12]
 800647a:	4630      	mov	r0, r6
 800647c:	608d      	str	r5, [r1, #8]
 800647e:	605a      	str	r2, [r3, #4]
 8006480:	f000 fa2e 	bl	80068e0 <__malloc_unlock>
 8006484:	3408      	adds	r4, #8
 8006486:	e742      	b.n	800630e <_malloc_r+0x18a>
 8006488:	f5b2 6f20 	cmp.w	r2, #2560	; 0xa00
 800648c:	ea4f 2352 	mov.w	r3, r2, lsr #9
 8006490:	d361      	bcc.n	8006556 <_malloc_r+0x3d2>
 8006492:	2b14      	cmp	r3, #20
 8006494:	f200 80ba 	bhi.w	800660c <_malloc_r+0x488>
 8006498:	f103 005c 	add.w	r0, r3, #92	; 0x5c
 800649c:	00c0      	lsls	r0, r0, #3
 800649e:	335b      	adds	r3, #91	; 0x5b
 80064a0:	eb08 0700 	add.w	r7, r8, r0
 80064a4:	f858 0000 	ldr.w	r0, [r8, r0]
 80064a8:	3f08      	subs	r7, #8
 80064aa:	4287      	cmp	r7, r0
 80064ac:	f000 8092 	beq.w	80065d4 <_malloc_r+0x450>
 80064b0:	6843      	ldr	r3, [r0, #4]
 80064b2:	f023 0303 	bic.w	r3, r3, #3
 80064b6:	4293      	cmp	r3, r2
 80064b8:	d902      	bls.n	80064c0 <_malloc_r+0x33c>
 80064ba:	6880      	ldr	r0, [r0, #8]
 80064bc:	4287      	cmp	r7, r0
 80064be:	d1f7      	bne.n	80064b0 <_malloc_r+0x32c>
 80064c0:	68c7      	ldr	r7, [r0, #12]
 80064c2:	f8d8 2004 	ldr.w	r2, [r8, #4]
 80064c6:	e9c4 0702 	strd	r0, r7, [r4, #8]
 80064ca:	60bc      	str	r4, [r7, #8]
 80064cc:	60c4      	str	r4, [r0, #12]
 80064ce:	e6e0      	b.n	8006292 <_malloc_r+0x10e>
 80064d0:	2b14      	cmp	r3, #20
 80064d2:	d959      	bls.n	8006588 <_malloc_r+0x404>
 80064d4:	2b54      	cmp	r3, #84	; 0x54
 80064d6:	f200 80a1 	bhi.w	800661c <_malloc_r+0x498>
 80064da:	0b2b      	lsrs	r3, r5, #12
 80064dc:	f103 016f 	add.w	r1, r3, #111	; 0x6f
 80064e0:	f103 076e 	add.w	r7, r3, #110	; 0x6e
 80064e4:	00cb      	lsls	r3, r1, #3
 80064e6:	e693      	b.n	8006210 <_malloc_r+0x8c>
 80064e8:	f10e 0e01 	add.w	lr, lr, #1
 80064ec:	f01e 0f03 	tst.w	lr, #3
 80064f0:	f104 0408 	add.w	r4, r4, #8
 80064f4:	f47f aedf 	bne.w	80062b6 <_malloc_r+0x132>
 80064f8:	e051      	b.n	800659e <_malloc_r+0x41a>
 80064fa:	443a      	add	r2, r7
 80064fc:	463c      	mov	r4, r7
 80064fe:	6853      	ldr	r3, [r2, #4]
 8006500:	68f9      	ldr	r1, [r7, #12]
 8006502:	f854 5f08 	ldr.w	r5, [r4, #8]!
 8006506:	f043 0301 	orr.w	r3, r3, #1
 800650a:	6053      	str	r3, [r2, #4]
 800650c:	4630      	mov	r0, r6
 800650e:	60e9      	str	r1, [r5, #12]
 8006510:	608d      	str	r5, [r1, #8]
 8006512:	f000 f9e5 	bl	80068e0 <__malloc_unlock>
 8006516:	e6fa      	b.n	800630e <_malloc_r+0x18a>
 8006518:	08e9      	lsrs	r1, r5, #3
 800651a:	f105 0308 	add.w	r3, r5, #8
 800651e:	e641      	b.n	80061a4 <_malloc_r+0x20>
 8006520:	4422      	add	r2, r4
 8006522:	4630      	mov	r0, r6
 8006524:	6853      	ldr	r3, [r2, #4]
 8006526:	f043 0301 	orr.w	r3, r3, #1
 800652a:	6053      	str	r3, [r2, #4]
 800652c:	3408      	adds	r4, #8
 800652e:	f000 f9d7 	bl	80068e0 <__malloc_unlock>
 8006532:	e6ec      	b.n	800630e <_malloc_r+0x18a>
 8006534:	1961      	adds	r1, r4, r5
 8006536:	f043 0701 	orr.w	r7, r3, #1
 800653a:	f045 0501 	orr.w	r5, r5, #1
 800653e:	6065      	str	r5, [r4, #4]
 8006540:	4630      	mov	r0, r6
 8006542:	e9c8 1104 	strd	r1, r1, [r8, #16]
 8006546:	e9c1 cc02 	strd	ip, ip, [r1, #8]
 800654a:	604f      	str	r7, [r1, #4]
 800654c:	50a3      	str	r3, [r4, r2]
 800654e:	f000 f9c7 	bl	80068e0 <__malloc_unlock>
 8006552:	3408      	adds	r4, #8
 8006554:	e6db      	b.n	800630e <_malloc_r+0x18a>
 8006556:	0993      	lsrs	r3, r2, #6
 8006558:	f103 0039 	add.w	r0, r3, #57	; 0x39
 800655c:	00c0      	lsls	r0, r0, #3
 800655e:	3338      	adds	r3, #56	; 0x38
 8006560:	e79e      	b.n	80064a0 <_malloc_r+0x31c>
 8006562:	4544      	cmp	r4, r8
 8006564:	d064      	beq.n	8006630 <_malloc_r+0x4ac>
 8006566:	f8d8 4008 	ldr.w	r4, [r8, #8]
 800656a:	6860      	ldr	r0, [r4, #4]
 800656c:	f020 0b03 	bic.w	fp, r0, #3
 8006570:	455d      	cmp	r5, fp
 8006572:	ebab 0305 	sub.w	r3, fp, r5
 8006576:	d802      	bhi.n	800657e <_malloc_r+0x3fa>
 8006578:	2b0f      	cmp	r3, #15
 800657a:	f73f af66 	bgt.w	800644a <_malloc_r+0x2c6>
 800657e:	4630      	mov	r0, r6
 8006580:	f000 f9ae 	bl	80068e0 <__malloc_unlock>
 8006584:	2400      	movs	r4, #0
 8006586:	e6c2      	b.n	800630e <_malloc_r+0x18a>
 8006588:	f103 015c 	add.w	r1, r3, #92	; 0x5c
 800658c:	f103 075b 	add.w	r7, r3, #91	; 0x5b
 8006590:	00cb      	lsls	r3, r1, #3
 8006592:	e63d      	b.n	8006210 <_malloc_r+0x8c>
 8006594:	f859 3908 	ldr.w	r3, [r9], #-8
 8006598:	454b      	cmp	r3, r9
 800659a:	f040 80aa 	bne.w	80066f2 <_malloc_r+0x56e>
 800659e:	f011 0f03 	tst.w	r1, #3
 80065a2:	f101 31ff 	add.w	r1, r1, #4294967295	; 0xffffffff
 80065a6:	d1f5      	bne.n	8006594 <_malloc_r+0x410>
 80065a8:	f8d8 3004 	ldr.w	r3, [r8, #4]
 80065ac:	ea23 0300 	bic.w	r3, r3, r0
 80065b0:	f8c8 3004 	str.w	r3, [r8, #4]
 80065b4:	0040      	lsls	r0, r0, #1
 80065b6:	4298      	cmp	r0, r3
 80065b8:	f63f aec5 	bhi.w	8006346 <_malloc_r+0x1c2>
 80065bc:	b918      	cbnz	r0, 80065c6 <_malloc_r+0x442>
 80065be:	e6c2      	b.n	8006346 <_malloc_r+0x1c2>
 80065c0:	0040      	lsls	r0, r0, #1
 80065c2:	f10e 0e04 	add.w	lr, lr, #4
 80065c6:	4218      	tst	r0, r3
 80065c8:	d0fa      	beq.n	80065c0 <_malloc_r+0x43c>
 80065ca:	4671      	mov	r1, lr
 80065cc:	e66f      	b.n	80062ae <_malloc_r+0x12a>
 80065ce:	f103 0b10 	add.w	fp, r3, #16
 80065d2:	e6d5      	b.n	8006380 <_malloc_r+0x1fc>
 80065d4:	109a      	asrs	r2, r3, #2
 80065d6:	f04f 0e01 	mov.w	lr, #1
 80065da:	f8d8 3004 	ldr.w	r3, [r8, #4]
 80065de:	fa0e f202 	lsl.w	r2, lr, r2
 80065e2:	431a      	orrs	r2, r3
 80065e4:	f8c8 2004 	str.w	r2, [r8, #4]
 80065e8:	e76d      	b.n	80064c6 <_malloc_r+0x342>
 80065ea:	eb02 010b 	add.w	r1, r2, fp
 80065ee:	4249      	negs	r1, r1
 80065f0:	f3c1 090b 	ubfx	r9, r1, #0, #12
 80065f4:	4649      	mov	r1, r9
 80065f6:	4630      	mov	r0, r6
 80065f8:	9200      	str	r2, [sp, #0]
 80065fa:	f000 fcf1 	bl	8006fe0 <_sbrk_r>
 80065fe:	1c43      	adds	r3, r0, #1
 8006600:	e9dd 2300 	ldrd	r2, r3, [sp]
 8006604:	f47f aef2 	bne.w	80063ec <_malloc_r+0x268>
 8006608:	46d1      	mov	r9, sl
 800660a:	e6f2      	b.n	80063f2 <_malloc_r+0x26e>
 800660c:	2b54      	cmp	r3, #84	; 0x54
 800660e:	d826      	bhi.n	800665e <_malloc_r+0x4da>
 8006610:	0b13      	lsrs	r3, r2, #12
 8006612:	f103 006f 	add.w	r0, r3, #111	; 0x6f
 8006616:	00c0      	lsls	r0, r0, #3
 8006618:	336e      	adds	r3, #110	; 0x6e
 800661a:	e741      	b.n	80064a0 <_malloc_r+0x31c>
 800661c:	f5b3 7faa 	cmp.w	r3, #340	; 0x154
 8006620:	d826      	bhi.n	8006670 <_malloc_r+0x4ec>
 8006622:	0beb      	lsrs	r3, r5, #15
 8006624:	f103 0178 	add.w	r1, r3, #120	; 0x78
 8006628:	f103 0777 	add.w	r7, r3, #119	; 0x77
 800662c:	00cb      	lsls	r3, r1, #3
 800662e:	e5ef      	b.n	8006210 <_malloc_r+0x8c>
 8006630:	4b16      	ldr	r3, [pc, #88]	; (800668c <_malloc_r+0x508>)
 8006632:	6818      	ldr	r0, [r3, #0]
 8006634:	4458      	add	r0, fp
 8006636:	6018      	str	r0, [r3, #0]
 8006638:	e6b4      	b.n	80063a4 <_malloc_r+0x220>
 800663a:	f3ca 0c0b 	ubfx	ip, sl, #0, #12
 800663e:	f1bc 0f00 	cmp.w	ip, #0
 8006642:	f47f aeaf 	bne.w	80063a4 <_malloc_r+0x220>
 8006646:	f8d8 4008 	ldr.w	r4, [r8, #8]
 800664a:	44bb      	add	fp, r7
 800664c:	f04b 0001 	orr.w	r0, fp, #1
 8006650:	6060      	str	r0, [r4, #4]
 8006652:	e6ef      	b.n	8006434 <_malloc_r+0x2b0>
 8006654:	4614      	mov	r4, r2
 8006656:	e6ed      	b.n	8006434 <_malloc_r+0x2b0>
 8006658:	2301      	movs	r3, #1
 800665a:	6053      	str	r3, [r2, #4]
 800665c:	e78f      	b.n	800657e <_malloc_r+0x3fa>
 800665e:	f5b3 7faa 	cmp.w	r3, #340	; 0x154
 8006662:	d833      	bhi.n	80066cc <_malloc_r+0x548>
 8006664:	0bd3      	lsrs	r3, r2, #15
 8006666:	f103 0078 	add.w	r0, r3, #120	; 0x78
 800666a:	00c0      	lsls	r0, r0, #3
 800666c:	3377      	adds	r3, #119	; 0x77
 800666e:	e717      	b.n	80064a0 <_malloc_r+0x31c>
 8006670:	f240 5254 	movw	r2, #1364	; 0x554
 8006674:	4293      	cmp	r3, r2
 8006676:	d833      	bhi.n	80066e0 <_malloc_r+0x55c>
 8006678:	0cab      	lsrs	r3, r5, #18
 800667a:	f103 017d 	add.w	r1, r3, #125	; 0x7d
 800667e:	f103 077c 	add.w	r7, r3, #124	; 0x7c
 8006682:	00cb      	lsls	r3, r1, #3
 8006684:	e5c4      	b.n	8006210 <_malloc_r+0x8c>
 8006686:	bf00      	nop
 8006688:	200009e8 	.word	0x200009e8
 800668c:	200009b8 	.word	0x200009b8
 8006690:	200009e0 	.word	0x200009e0
 8006694:	200009e4 	.word	0x200009e4
 8006698:	20000430 	.word	0x20000430
 800669c:	20000438 	.word	0x20000438
 80066a0:	20000838 	.word	0x20000838
 80066a4:	f1aa 0a08 	sub.w	sl, sl, #8
 80066a8:	44d3      	add	fp, sl
 80066aa:	ebab 0b02 	sub.w	fp, fp, r2
 80066ae:	f04f 0900 	mov.w	r9, #0
 80066b2:	e69e      	b.n	80063f2 <_malloc_r+0x26e>
 80066b4:	f104 0108 	add.w	r1, r4, #8
 80066b8:	4630      	mov	r0, r6
 80066ba:	9300      	str	r3, [sp, #0]
 80066bc:	f7ff fc5a 	bl	8005f74 <_free_r>
 80066c0:	f8d8 4008 	ldr.w	r4, [r8, #8]
 80066c4:	9b00      	ldr	r3, [sp, #0]
 80066c6:	6860      	ldr	r0, [r4, #4]
 80066c8:	6819      	ldr	r1, [r3, #0]
 80066ca:	e6b3      	b.n	8006434 <_malloc_r+0x2b0>
 80066cc:	f240 5054 	movw	r0, #1364	; 0x554
 80066d0:	4283      	cmp	r3, r0
 80066d2:	d80a      	bhi.n	80066ea <_malloc_r+0x566>
 80066d4:	0c93      	lsrs	r3, r2, #18
 80066d6:	f103 007d 	add.w	r0, r3, #125	; 0x7d
 80066da:	00c0      	lsls	r0, r0, #3
 80066dc:	337c      	adds	r3, #124	; 0x7c
 80066de:	e6df      	b.n	80064a0 <_malloc_r+0x31c>
 80066e0:	f44f 737e 	mov.w	r3, #1016	; 0x3f8
 80066e4:	217f      	movs	r1, #127	; 0x7f
 80066e6:	277e      	movs	r7, #126	; 0x7e
 80066e8:	e592      	b.n	8006210 <_malloc_r+0x8c>
 80066ea:	f44f 707e 	mov.w	r0, #1016	; 0x3f8
 80066ee:	237e      	movs	r3, #126	; 0x7e
 80066f0:	e6d6      	b.n	80064a0 <_malloc_r+0x31c>
 80066f2:	f8d8 3004 	ldr.w	r3, [r8, #4]
 80066f6:	e75d      	b.n	80065b4 <_malloc_r+0x430>
	...

08006700 <memchr>:
 8006700:	f001 01ff 	and.w	r1, r1, #255	; 0xff
 8006704:	2a10      	cmp	r2, #16
 8006706:	db2b      	blt.n	8006760 <memchr+0x60>
 8006708:	f010 0f07 	tst.w	r0, #7
 800670c:	d008      	beq.n	8006720 <memchr+0x20>
 800670e:	f810 3b01 	ldrb.w	r3, [r0], #1
 8006712:	3a01      	subs	r2, #1
 8006714:	428b      	cmp	r3, r1
 8006716:	d02d      	beq.n	8006774 <memchr+0x74>
 8006718:	f010 0f07 	tst.w	r0, #7
 800671c:	b342      	cbz	r2, 8006770 <memchr+0x70>
 800671e:	d1f6      	bne.n	800670e <memchr+0xe>
 8006720:	b4f0      	push	{r4, r5, r6, r7}
 8006722:	ea41 2101 	orr.w	r1, r1, r1, lsl #8
 8006726:	ea41 4101 	orr.w	r1, r1, r1, lsl #16
 800672a:	f022 0407 	bic.w	r4, r2, #7
 800672e:	f07f 0700 	mvns.w	r7, #0
 8006732:	2300      	movs	r3, #0
 8006734:	e8f0 5602 	ldrd	r5, r6, [r0], #8
 8006738:	3c08      	subs	r4, #8
 800673a:	ea85 0501 	eor.w	r5, r5, r1
 800673e:	ea86 0601 	eor.w	r6, r6, r1
 8006742:	fa85 f547 	uadd8	r5, r5, r7
 8006746:	faa3 f587 	sel	r5, r3, r7
 800674a:	fa86 f647 	uadd8	r6, r6, r7
 800674e:	faa5 f687 	sel	r6, r5, r7
 8006752:	b98e      	cbnz	r6, 8006778 <memchr+0x78>
 8006754:	d1ee      	bne.n	8006734 <memchr+0x34>
 8006756:	bcf0      	pop	{r4, r5, r6, r7}
 8006758:	f001 01ff 	and.w	r1, r1, #255	; 0xff
 800675c:	f002 0207 	and.w	r2, r2, #7
 8006760:	b132      	cbz	r2, 8006770 <memchr+0x70>
 8006762:	f810 3b01 	ldrb.w	r3, [r0], #1
 8006766:	3a01      	subs	r2, #1
 8006768:	ea83 0301 	eor.w	r3, r3, r1
 800676c:	b113      	cbz	r3, 8006774 <memchr+0x74>
 800676e:	d1f8      	bne.n	8006762 <memchr+0x62>
 8006770:	2000      	movs	r0, #0
 8006772:	4770      	bx	lr
 8006774:	3801      	subs	r0, #1
 8006776:	4770      	bx	lr
 8006778:	2d00      	cmp	r5, #0
 800677a:	bf06      	itte	eq
 800677c:	4635      	moveq	r5, r6
 800677e:	3803      	subeq	r0, #3
 8006780:	3807      	subne	r0, #7
 8006782:	f015 0f01 	tst.w	r5, #1
 8006786:	d107      	bne.n	8006798 <memchr+0x98>
 8006788:	3001      	adds	r0, #1
 800678a:	f415 7f80 	tst.w	r5, #256	; 0x100
 800678e:	bf02      	ittt	eq
 8006790:	3001      	addeq	r0, #1
 8006792:	f415 3fc0 	tsteq.w	r5, #98304	; 0x18000
 8006796:	3001      	addeq	r0, #1
 8006798:	bcf0      	pop	{r4, r5, r6, r7}
 800679a:	3801      	subs	r0, #1
 800679c:	4770      	bx	lr
 800679e:	bf00      	nop

080067a0 <memcpy>:
 80067a0:	4684      	mov	ip, r0
 80067a2:	ea41 0300 	orr.w	r3, r1, r0
 80067a6:	f013 0303 	ands.w	r3, r3, #3
 80067aa:	d16d      	bne.n	8006888 <memcpy+0xe8>
 80067ac:	3a40      	subs	r2, #64	; 0x40
 80067ae:	d341      	bcc.n	8006834 <memcpy+0x94>
 80067b0:	f851 3b04 	ldr.w	r3, [r1], #4
 80067b4:	f840 3b04 	str.w	r3, [r0], #4
 80067b8:	f851 3b04 	ldr.w	r3, [r1], #4
 80067bc:	f840 3b04 	str.w	r3, [r0], #4
 80067c0:	f851 3b04 	ldr.w	r3, [r1], #4
 80067c4:	f840 3b04 	str.w	r3, [r0], #4
 80067c8:	f851 3b04 	ldr.w	r3, [r1], #4
 80067cc:	f840 3b04 	str.w	r3, [r0], #4
 80067d0:	f851 3b04 	ldr.w	r3, [r1], #4
 80067d4:	f840 3b04 	str.w	r3, [r0], #4
 80067d8:	f851 3b04 	ldr.w	r3, [r1], #4
 80067dc:	f840 3b04 	str.w	r3, [r0], #4
 80067e0:	f851 3b04 	ldr.w	r3, [r1], #4
 80067e4:	f840 3b04 	str.w	r3, [r0], #4
 80067e8:	f851 3b04 	ldr.w	r3, [r1], #4
 80067ec:	f840 3b04 	str.w	r3, [r0], #4
 80067f0:	f851 3b04 	ldr.w	r3, [r1], #4
 80067f4:	f840 3b04 	str.w	r3, [r0], #4
 80067f8:	f851 3b04 	ldr.w	r3, [r1], #4
 80067fc:	f840 3b04 	str.w	r3, [r0], #4
 8006800:	f851 3b04 	ldr.w	r3, [r1], #4
 8006804:	f840 3b04 	str.w	r3, [r0], #4
 8006808:	f851 3b04 	ldr.w	r3, [r1], #4
 800680c:	f840 3b04 	str.w	r3, [r0], #4
 8006810:	f851 3b04 	ldr.w	r3, [r1], #4
 8006814:	f840 3b04 	str.w	r3, [r0], #4
 8006818:	f851 3b04 	ldr.w	r3, [r1], #4
 800681c:	f840 3b04 	str.w	r3, [r0], #4
 8006820:	f851 3b04 	ldr.w	r3, [r1], #4
 8006824:	f840 3b04 	str.w	r3, [r0], #4
 8006828:	f851 3b04 	ldr.w	r3, [r1], #4
 800682c:	f840 3b04 	str.w	r3, [r0], #4
 8006830:	3a40      	subs	r2, #64	; 0x40
 8006832:	d2bd      	bcs.n	80067b0 <memcpy+0x10>
 8006834:	3230      	adds	r2, #48	; 0x30
 8006836:	d311      	bcc.n	800685c <memcpy+0xbc>
 8006838:	f851 3b04 	ldr.w	r3, [r1], #4
 800683c:	f840 3b04 	str.w	r3, [r0], #4
 8006840:	f851 3b04 	ldr.w	r3, [r1], #4
 8006844:	f840 3b04 	str.w	r3, [r0], #4
 8006848:	f851 3b04 	ldr.w	r3, [r1], #4
 800684c:	f840 3b04 	str.w	r3, [r0], #4
 8006850:	f851 3b04 	ldr.w	r3, [r1], #4
 8006854:	f840 3b04 	str.w	r3, [r0], #4
 8006858:	3a10      	subs	r2, #16
 800685a:	d2ed      	bcs.n	8006838 <memcpy+0x98>
 800685c:	320c      	adds	r2, #12
 800685e:	d305      	bcc.n	800686c <memcpy+0xcc>
 8006860:	f851 3b04 	ldr.w	r3, [r1], #4
 8006864:	f840 3b04 	str.w	r3, [r0], #4
 8006868:	3a04      	subs	r2, #4
 800686a:	d2f9      	bcs.n	8006860 <memcpy+0xc0>
 800686c:	3204      	adds	r2, #4
 800686e:	d008      	beq.n	8006882 <memcpy+0xe2>
 8006870:	07d2      	lsls	r2, r2, #31
 8006872:	bf1c      	itt	ne
 8006874:	f811 3b01 	ldrbne.w	r3, [r1], #1
 8006878:	f800 3b01 	strbne.w	r3, [r0], #1
 800687c:	d301      	bcc.n	8006882 <memcpy+0xe2>
 800687e:	880b      	ldrh	r3, [r1, #0]
 8006880:	8003      	strh	r3, [r0, #0]
 8006882:	4660      	mov	r0, ip
 8006884:	4770      	bx	lr
 8006886:	bf00      	nop
 8006888:	2a08      	cmp	r2, #8
 800688a:	d313      	bcc.n	80068b4 <memcpy+0x114>
 800688c:	078b      	lsls	r3, r1, #30
 800688e:	d08d      	beq.n	80067ac <memcpy+0xc>
 8006890:	f010 0303 	ands.w	r3, r0, #3
 8006894:	d08a      	beq.n	80067ac <memcpy+0xc>
 8006896:	f1c3 0304 	rsb	r3, r3, #4
 800689a:	1ad2      	subs	r2, r2, r3
 800689c:	07db      	lsls	r3, r3, #31
 800689e:	bf1c      	itt	ne
 80068a0:	f811 3b01 	ldrbne.w	r3, [r1], #1
 80068a4:	f800 3b01 	strbne.w	r3, [r0], #1
 80068a8:	d380      	bcc.n	80067ac <memcpy+0xc>
 80068aa:	f831 3b02 	ldrh.w	r3, [r1], #2
 80068ae:	f820 3b02 	strh.w	r3, [r0], #2
 80068b2:	e77b      	b.n	80067ac <memcpy+0xc>
 80068b4:	3a04      	subs	r2, #4
 80068b6:	d3d9      	bcc.n	800686c <memcpy+0xcc>
 80068b8:	3a01      	subs	r2, #1
 80068ba:	f811 3b01 	ldrb.w	r3, [r1], #1
 80068be:	f800 3b01 	strb.w	r3, [r0], #1
 80068c2:	d2f9      	bcs.n	80068b8 <memcpy+0x118>
 80068c4:	780b      	ldrb	r3, [r1, #0]
 80068c6:	7003      	strb	r3, [r0, #0]
 80068c8:	784b      	ldrb	r3, [r1, #1]
 80068ca:	7043      	strb	r3, [r0, #1]
 80068cc:	788b      	ldrb	r3, [r1, #2]
 80068ce:	7083      	strb	r3, [r0, #2]
 80068d0:	4660      	mov	r0, ip
 80068d2:	4770      	bx	lr

080068d4 <__malloc_lock>:
 80068d4:	4801      	ldr	r0, [pc, #4]	; (80068dc <__malloc_lock+0x8>)
 80068d6:	f000 bd01 	b.w	80072dc <__retarget_lock_acquire_recursive>
 80068da:	bf00      	nop
 80068dc:	20000a00 	.word	0x20000a00

080068e0 <__malloc_unlock>:
 80068e0:	4801      	ldr	r0, [pc, #4]	; (80068e8 <__malloc_unlock+0x8>)
 80068e2:	f000 bcfd 	b.w	80072e0 <__retarget_lock_release_recursive>
 80068e6:	bf00      	nop
 80068e8:	20000a00 	.word	0x20000a00

080068ec <_Balloc>:
 80068ec:	6cc3      	ldr	r3, [r0, #76]	; 0x4c
 80068ee:	b570      	push	{r4, r5, r6, lr}
 80068f0:	4605      	mov	r5, r0
 80068f2:	460c      	mov	r4, r1
 80068f4:	b14b      	cbz	r3, 800690a <_Balloc+0x1e>
 80068f6:	f853 0024 	ldr.w	r0, [r3, r4, lsl #2]
 80068fa:	b180      	cbz	r0, 800691e <_Balloc+0x32>
 80068fc:	6802      	ldr	r2, [r0, #0]
 80068fe:	f843 2024 	str.w	r2, [r3, r4, lsl #2]
 8006902:	2300      	movs	r3, #0
 8006904:	e9c0 3303 	strd	r3, r3, [r0, #12]
 8006908:	bd70      	pop	{r4, r5, r6, pc}
 800690a:	2221      	movs	r2, #33	; 0x21
 800690c:	2104      	movs	r1, #4
 800690e:	f000 fcb5 	bl	800727c <_calloc_r>
 8006912:	4603      	mov	r3, r0
 8006914:	64e8      	str	r0, [r5, #76]	; 0x4c
 8006916:	2800      	cmp	r0, #0
 8006918:	d1ed      	bne.n	80068f6 <_Balloc+0xa>
 800691a:	2000      	movs	r0, #0
 800691c:	bd70      	pop	{r4, r5, r6, pc}
 800691e:	2101      	movs	r1, #1
 8006920:	fa01 f604 	lsl.w	r6, r1, r4
 8006924:	1d72      	adds	r2, r6, #5
 8006926:	4628      	mov	r0, r5
 8006928:	0092      	lsls	r2, r2, #2
 800692a:	f000 fca7 	bl	800727c <_calloc_r>
 800692e:	2800      	cmp	r0, #0
 8006930:	d0f3      	beq.n	800691a <_Balloc+0x2e>
 8006932:	e9c0 4601 	strd	r4, r6, [r0, #4]
 8006936:	e7e4      	b.n	8006902 <_Balloc+0x16>

08006938 <_Bfree>:
 8006938:	b131      	cbz	r1, 8006948 <_Bfree+0x10>
 800693a:	6cc3      	ldr	r3, [r0, #76]	; 0x4c
 800693c:	684a      	ldr	r2, [r1, #4]
 800693e:	f853 0022 	ldr.w	r0, [r3, r2, lsl #2]
 8006942:	6008      	str	r0, [r1, #0]
 8006944:	f843 1022 	str.w	r1, [r3, r2, lsl #2]
 8006948:	4770      	bx	lr
 800694a:	bf00      	nop

0800694c <__multadd>:
 800694c:	e92d 43f8 	stmdb	sp!, {r3, r4, r5, r6, r7, r8, r9, lr}
 8006950:	690f      	ldr	r7, [r1, #16]
 8006952:	4688      	mov	r8, r1
 8006954:	4681      	mov	r9, r0
 8006956:	461d      	mov	r5, r3
 8006958:	f101 0014 	add.w	r0, r1, #20
 800695c:	2100      	movs	r1, #0
 800695e:	6806      	ldr	r6, [r0, #0]
 8006960:	b2b4      	uxth	r4, r6
 8006962:	fb02 5304 	mla	r3, r2, r4, r5
 8006966:	0c1c      	lsrs	r4, r3, #16
 8006968:	0c35      	lsrs	r5, r6, #16
 800696a:	fb02 4505 	mla	r5, r2, r5, r4
 800696e:	3101      	adds	r1, #1
 8006970:	b29c      	uxth	r4, r3
 8006972:	eb04 4405 	add.w	r4, r4, r5, lsl #16
 8006976:	428f      	cmp	r7, r1
 8006978:	f840 4b04 	str.w	r4, [r0], #4
 800697c:	ea4f 4515 	mov.w	r5, r5, lsr #16
 8006980:	dced      	bgt.n	800695e <__multadd+0x12>
 8006982:	b14d      	cbz	r5, 8006998 <__multadd+0x4c>
 8006984:	f8d8 2008 	ldr.w	r2, [r8, #8]
 8006988:	42ba      	cmp	r2, r7
 800698a:	dd08      	ble.n	800699e <__multadd+0x52>
 800698c:	eb08 0287 	add.w	r2, r8, r7, lsl #2
 8006990:	3701      	adds	r7, #1
 8006992:	6155      	str	r5, [r2, #20]
 8006994:	f8c8 7010 	str.w	r7, [r8, #16]
 8006998:	4640      	mov	r0, r8
 800699a:	e8bd 83f8 	ldmia.w	sp!, {r3, r4, r5, r6, r7, r8, r9, pc}
 800699e:	f8d8 1004 	ldr.w	r1, [r8, #4]
 80069a2:	4648      	mov	r0, r9
 80069a4:	3101      	adds	r1, #1
 80069a6:	f7ff ffa1 	bl	80068ec <_Balloc>
 80069aa:	f8d8 2010 	ldr.w	r2, [r8, #16]
 80069ae:	3202      	adds	r2, #2
 80069b0:	f108 010c 	add.w	r1, r8, #12
 80069b4:	4604      	mov	r4, r0
 80069b6:	0092      	lsls	r2, r2, #2
 80069b8:	300c      	adds	r0, #12
 80069ba:	f7ff fef1 	bl	80067a0 <memcpy>
 80069be:	f8d9 204c 	ldr.w	r2, [r9, #76]	; 0x4c
 80069c2:	f8d8 1004 	ldr.w	r1, [r8, #4]
 80069c6:	f852 0021 	ldr.w	r0, [r2, r1, lsl #2]
 80069ca:	f8c8 0000 	str.w	r0, [r8]
 80069ce:	f842 8021 	str.w	r8, [r2, r1, lsl #2]
 80069d2:	46a0      	mov	r8, r4
 80069d4:	e7da      	b.n	800698c <__multadd+0x40>
 80069d6:	bf00      	nop

080069d8 <__hi0bits>:
 80069d8:	0c03      	lsrs	r3, r0, #16
 80069da:	041b      	lsls	r3, r3, #16
 80069dc:	b9d3      	cbnz	r3, 8006a14 <__hi0bits+0x3c>
 80069de:	0400      	lsls	r0, r0, #16
 80069e0:	2310      	movs	r3, #16
 80069e2:	f010 4f7f 	tst.w	r0, #4278190080	; 0xff000000
 80069e6:	bf04      	itt	eq
 80069e8:	0200      	lsleq	r0, r0, #8
 80069ea:	3308      	addeq	r3, #8
 80069ec:	f010 4f70 	tst.w	r0, #4026531840	; 0xf0000000
 80069f0:	bf04      	itt	eq
 80069f2:	0100      	lsleq	r0, r0, #4
 80069f4:	3304      	addeq	r3, #4
 80069f6:	f010 4f40 	tst.w	r0, #3221225472	; 0xc0000000
 80069fa:	bf04      	itt	eq
 80069fc:	0080      	lsleq	r0, r0, #2
 80069fe:	3302      	addeq	r3, #2
 8006a00:	2800      	cmp	r0, #0
 8006a02:	db05      	blt.n	8006a10 <__hi0bits+0x38>
 8006a04:	f010 4f80 	tst.w	r0, #1073741824	; 0x40000000
 8006a08:	f103 0301 	add.w	r3, r3, #1
 8006a0c:	bf08      	it	eq
 8006a0e:	2320      	moveq	r3, #32
 8006a10:	4618      	mov	r0, r3
 8006a12:	4770      	bx	lr
 8006a14:	2300      	movs	r3, #0
 8006a16:	e7e4      	b.n	80069e2 <__hi0bits+0xa>

08006a18 <__lo0bits>:
 8006a18:	6803      	ldr	r3, [r0, #0]
 8006a1a:	f013 0207 	ands.w	r2, r3, #7
 8006a1e:	4601      	mov	r1, r0
 8006a20:	d007      	beq.n	8006a32 <__lo0bits+0x1a>
 8006a22:	07da      	lsls	r2, r3, #31
 8006a24:	d420      	bmi.n	8006a68 <__lo0bits+0x50>
 8006a26:	0798      	lsls	r0, r3, #30
 8006a28:	d522      	bpl.n	8006a70 <__lo0bits+0x58>
 8006a2a:	085b      	lsrs	r3, r3, #1
 8006a2c:	600b      	str	r3, [r1, #0]
 8006a2e:	2001      	movs	r0, #1
 8006a30:	4770      	bx	lr
 8006a32:	b298      	uxth	r0, r3
 8006a34:	b1a8      	cbz	r0, 8006a62 <__lo0bits+0x4a>
 8006a36:	4610      	mov	r0, r2
 8006a38:	f013 0fff 	tst.w	r3, #255	; 0xff
 8006a3c:	bf04      	itt	eq
 8006a3e:	0a1b      	lsreq	r3, r3, #8
 8006a40:	3008      	addeq	r0, #8
 8006a42:	071a      	lsls	r2, r3, #28
 8006a44:	bf04      	itt	eq
 8006a46:	091b      	lsreq	r3, r3, #4
 8006a48:	3004      	addeq	r0, #4
 8006a4a:	079a      	lsls	r2, r3, #30
 8006a4c:	bf04      	itt	eq
 8006a4e:	089b      	lsreq	r3, r3, #2
 8006a50:	3002      	addeq	r0, #2
 8006a52:	07da      	lsls	r2, r3, #31
 8006a54:	d403      	bmi.n	8006a5e <__lo0bits+0x46>
 8006a56:	085b      	lsrs	r3, r3, #1
 8006a58:	f100 0001 	add.w	r0, r0, #1
 8006a5c:	d006      	beq.n	8006a6c <__lo0bits+0x54>
 8006a5e:	600b      	str	r3, [r1, #0]
 8006a60:	4770      	bx	lr
 8006a62:	0c1b      	lsrs	r3, r3, #16
 8006a64:	2010      	movs	r0, #16
 8006a66:	e7e7      	b.n	8006a38 <__lo0bits+0x20>
 8006a68:	2000      	movs	r0, #0
 8006a6a:	4770      	bx	lr
 8006a6c:	2020      	movs	r0, #32
 8006a6e:	4770      	bx	lr
 8006a70:	089b      	lsrs	r3, r3, #2
 8006a72:	600b      	str	r3, [r1, #0]
 8006a74:	2002      	movs	r0, #2
 8006a76:	4770      	bx	lr

08006a78 <__i2b>:
 8006a78:	b510      	push	{r4, lr}
 8006a7a:	460c      	mov	r4, r1
 8006a7c:	2101      	movs	r1, #1
 8006a7e:	f7ff ff35 	bl	80068ec <_Balloc>
 8006a82:	2201      	movs	r2, #1
 8006a84:	e9c0 2404 	strd	r2, r4, [r0, #16]
 8006a88:	bd10      	pop	{r4, pc}
 8006a8a:	bf00      	nop

08006a8c <__multiply>:
 8006a8c:	e92d 4ff0 	stmdb	sp!, {r4, r5, r6, r7, r8, r9, sl, fp, lr}
 8006a90:	690d      	ldr	r5, [r1, #16]
 8006a92:	6917      	ldr	r7, [r2, #16]
 8006a94:	42bd      	cmp	r5, r7
 8006a96:	b085      	sub	sp, #20
 8006a98:	460e      	mov	r6, r1
 8006a9a:	4614      	mov	r4, r2
 8006a9c:	db05      	blt.n	8006aaa <__multiply+0x1e>
 8006a9e:	463a      	mov	r2, r7
 8006aa0:	4623      	mov	r3, r4
 8006aa2:	462f      	mov	r7, r5
 8006aa4:	460c      	mov	r4, r1
 8006aa6:	4615      	mov	r5, r2
 8006aa8:	461e      	mov	r6, r3
 8006aaa:	e9d4 1301 	ldrd	r1, r3, [r4, #4]
 8006aae:	eb07 0805 	add.w	r8, r7, r5
 8006ab2:	4543      	cmp	r3, r8
 8006ab4:	bfb8      	it	lt
 8006ab6:	3101      	addlt	r1, #1
 8006ab8:	f7ff ff18 	bl	80068ec <_Balloc>
 8006abc:	f100 0914 	add.w	r9, r0, #20
 8006ac0:	eb09 0a88 	add.w	sl, r9, r8, lsl #2
 8006ac4:	45d1      	cmp	r9, sl
 8006ac6:	9001      	str	r0, [sp, #4]
 8006ac8:	d205      	bcs.n	8006ad6 <__multiply+0x4a>
 8006aca:	464b      	mov	r3, r9
 8006acc:	2200      	movs	r2, #0
 8006ace:	f843 2b04 	str.w	r2, [r3], #4
 8006ad2:	459a      	cmp	sl, r3
 8006ad4:	d8fb      	bhi.n	8006ace <__multiply+0x42>
 8006ad6:	f106 0e14 	add.w	lr, r6, #20
 8006ada:	eb0e 0b85 	add.w	fp, lr, r5, lsl #2
 8006ade:	f104 0314 	add.w	r3, r4, #20
 8006ae2:	45de      	cmp	lr, fp
 8006ae4:	461a      	mov	r2, r3
 8006ae6:	eb03 0787 	add.w	r7, r3, r7, lsl #2
 8006aea:	d25f      	bcs.n	8006bac <__multiply+0x120>
 8006aec:	1b3b      	subs	r3, r7, r4
 8006aee:	3b15      	subs	r3, #21
 8006af0:	f023 0303 	bic.w	r3, r3, #3
 8006af4:	3304      	adds	r3, #4
 8006af6:	3415      	adds	r4, #21
 8006af8:	42a7      	cmp	r7, r4
 8006afa:	bf38      	it	cc
 8006afc:	2304      	movcc	r3, #4
 8006afe:	e9cd a802 	strd	sl, r8, [sp, #8]
 8006b02:	4698      	mov	r8, r3
 8006b04:	4692      	mov	sl, r2
 8006b06:	e005      	b.n	8006b14 <__multiply+0x88>
 8006b08:	0c00      	lsrs	r0, r0, #16
 8006b0a:	d129      	bne.n	8006b60 <__multiply+0xd4>
 8006b0c:	45f3      	cmp	fp, lr
 8006b0e:	f109 0904 	add.w	r9, r9, #4
 8006b12:	d949      	bls.n	8006ba8 <__multiply+0x11c>
 8006b14:	f85e 0b04 	ldr.w	r0, [lr], #4
 8006b18:	b286      	uxth	r6, r0
 8006b1a:	2e00      	cmp	r6, #0
 8006b1c:	d0f4      	beq.n	8006b08 <__multiply+0x7c>
 8006b1e:	4655      	mov	r5, sl
 8006b20:	464c      	mov	r4, r9
 8006b22:	2300      	movs	r3, #0
 8006b24:	f855 1b04 	ldr.w	r1, [r5], #4
 8006b28:	6820      	ldr	r0, [r4, #0]
 8006b2a:	b28a      	uxth	r2, r1
 8006b2c:	fa1f fc80 	uxth.w	ip, r0
 8006b30:	fb06 c202 	mla	r2, r6, r2, ip
 8006b34:	0c09      	lsrs	r1, r1, #16
 8006b36:	0c00      	lsrs	r0, r0, #16
 8006b38:	4413      	add	r3, r2
 8006b3a:	fb06 0201 	mla	r2, r6, r1, r0
 8006b3e:	eb02 4213 	add.w	r2, r2, r3, lsr #16
 8006b42:	b29b      	uxth	r3, r3
 8006b44:	ea43 4302 	orr.w	r3, r3, r2, lsl #16
 8006b48:	42af      	cmp	r7, r5
 8006b4a:	f844 3b04 	str.w	r3, [r4], #4
 8006b4e:	ea4f 4312 	mov.w	r3, r2, lsr #16
 8006b52:	d8e7      	bhi.n	8006b24 <__multiply+0x98>
 8006b54:	f849 3008 	str.w	r3, [r9, r8]
 8006b58:	f85e 0c04 	ldr.w	r0, [lr, #-4]
 8006b5c:	0c00      	lsrs	r0, r0, #16
 8006b5e:	d0d5      	beq.n	8006b0c <__multiply+0x80>
 8006b60:	f8d9 3000 	ldr.w	r3, [r9]
 8006b64:	4654      	mov	r4, sl
 8006b66:	461e      	mov	r6, r3
 8006b68:	464d      	mov	r5, r9
 8006b6a:	f04f 0c00 	mov.w	ip, #0
 8006b6e:	8822      	ldrh	r2, [r4, #0]
 8006b70:	0c36      	lsrs	r6, r6, #16
 8006b72:	fb00 6602 	mla	r6, r0, r2, r6
 8006b76:	44b4      	add	ip, r6
 8006b78:	b29b      	uxth	r3, r3
 8006b7a:	ea43 430c 	orr.w	r3, r3, ip, lsl #16
 8006b7e:	f845 3b04 	str.w	r3, [r5], #4
 8006b82:	f854 3b04 	ldr.w	r3, [r4], #4
 8006b86:	682e      	ldr	r6, [r5, #0]
 8006b88:	0c1b      	lsrs	r3, r3, #16
 8006b8a:	b2b2      	uxth	r2, r6
 8006b8c:	fb00 2303 	mla	r3, r0, r3, r2
 8006b90:	eb03 431c 	add.w	r3, r3, ip, lsr #16
 8006b94:	42a7      	cmp	r7, r4
 8006b96:	ea4f 4c13 	mov.w	ip, r3, lsr #16
 8006b9a:	d8e8      	bhi.n	8006b6e <__multiply+0xe2>
 8006b9c:	45f3      	cmp	fp, lr
 8006b9e:	f849 3008 	str.w	r3, [r9, r8]
 8006ba2:	f109 0904 	add.w	r9, r9, #4
 8006ba6:	d8b5      	bhi.n	8006b14 <__multiply+0x88>
 8006ba8:	e9dd a802 	ldrd	sl, r8, [sp, #8]
 8006bac:	f1b8 0f00 	cmp.w	r8, #0
 8006bb0:	dc03      	bgt.n	8006bba <__multiply+0x12e>
 8006bb2:	e006      	b.n	8006bc2 <__multiply+0x136>
 8006bb4:	f1b8 0801 	subs.w	r8, r8, #1
 8006bb8:	d003      	beq.n	8006bc2 <__multiply+0x136>
 8006bba:	f85a 3d04 	ldr.w	r3, [sl, #-4]!
 8006bbe:	2b00      	cmp	r3, #0
 8006bc0:	d0f8      	beq.n	8006bb4 <__multiply+0x128>
 8006bc2:	9801      	ldr	r0, [sp, #4]
 8006bc4:	f8c0 8010 	str.w	r8, [r0, #16]
 8006bc8:	b005      	add	sp, #20
 8006bca:	e8bd 8ff0 	ldmia.w	sp!, {r4, r5, r6, r7, r8, r9, sl, fp, pc}
 8006bce:	bf00      	nop

08006bd0 <__pow5mult>:
 8006bd0:	f012 0303 	ands.w	r3, r2, #3
 8006bd4:	e92d 41f0 	stmdb	sp!, {r4, r5, r6, r7, r8, lr}
 8006bd8:	4614      	mov	r4, r2
 8006bda:	4607      	mov	r7, r0
 8006bdc:	d12e      	bne.n	8006c3c <__pow5mult+0x6c>
 8006bde:	460e      	mov	r6, r1
 8006be0:	10a4      	asrs	r4, r4, #2
 8006be2:	d01c      	beq.n	8006c1e <__pow5mult+0x4e>
 8006be4:	6cbd      	ldr	r5, [r7, #72]	; 0x48
 8006be6:	b395      	cbz	r5, 8006c4e <__pow5mult+0x7e>
 8006be8:	07e3      	lsls	r3, r4, #31
 8006bea:	f04f 0800 	mov.w	r8, #0
 8006bee:	d406      	bmi.n	8006bfe <__pow5mult+0x2e>
 8006bf0:	1064      	asrs	r4, r4, #1
 8006bf2:	d014      	beq.n	8006c1e <__pow5mult+0x4e>
 8006bf4:	6828      	ldr	r0, [r5, #0]
 8006bf6:	b1a8      	cbz	r0, 8006c24 <__pow5mult+0x54>
 8006bf8:	4605      	mov	r5, r0
 8006bfa:	07e3      	lsls	r3, r4, #31
 8006bfc:	d5f8      	bpl.n	8006bf0 <__pow5mult+0x20>
 8006bfe:	462a      	mov	r2, r5
 8006c00:	4631      	mov	r1, r6
 8006c02:	4638      	mov	r0, r7
 8006c04:	f7ff ff42 	bl	8006a8c <__multiply>
 8006c08:	b1b6      	cbz	r6, 8006c38 <__pow5mult+0x68>
 8006c0a:	6871      	ldr	r1, [r6, #4]
 8006c0c:	6cfb      	ldr	r3, [r7, #76]	; 0x4c
 8006c0e:	1064      	asrs	r4, r4, #1
 8006c10:	f853 2021 	ldr.w	r2, [r3, r1, lsl #2]
 8006c14:	6032      	str	r2, [r6, #0]
 8006c16:	f843 6021 	str.w	r6, [r3, r1, lsl #2]
 8006c1a:	4606      	mov	r6, r0
 8006c1c:	d1ea      	bne.n	8006bf4 <__pow5mult+0x24>
 8006c1e:	4630      	mov	r0, r6
 8006c20:	e8bd 81f0 	ldmia.w	sp!, {r4, r5, r6, r7, r8, pc}
 8006c24:	462a      	mov	r2, r5
 8006c26:	4629      	mov	r1, r5
 8006c28:	4638      	mov	r0, r7
 8006c2a:	f7ff ff2f 	bl	8006a8c <__multiply>
 8006c2e:	6028      	str	r0, [r5, #0]
 8006c30:	f8c0 8000 	str.w	r8, [r0]
 8006c34:	4605      	mov	r5, r0
 8006c36:	e7e0      	b.n	8006bfa <__pow5mult+0x2a>
 8006c38:	4606      	mov	r6, r0
 8006c3a:	e7d9      	b.n	8006bf0 <__pow5mult+0x20>
 8006c3c:	3b01      	subs	r3, #1
 8006c3e:	4a0b      	ldr	r2, [pc, #44]	; (8006c6c <__pow5mult+0x9c>)
 8006c40:	f852 2023 	ldr.w	r2, [r2, r3, lsl #2]
 8006c44:	2300      	movs	r3, #0
 8006c46:	f7ff fe81 	bl	800694c <__multadd>
 8006c4a:	4606      	mov	r6, r0
 8006c4c:	e7c8      	b.n	8006be0 <__pow5mult+0x10>
 8006c4e:	2101      	movs	r1, #1
 8006c50:	4638      	mov	r0, r7
 8006c52:	f7ff fe4b 	bl	80068ec <_Balloc>
 8006c56:	f240 2371 	movw	r3, #625	; 0x271
 8006c5a:	6143      	str	r3, [r0, #20]
 8006c5c:	2201      	movs	r2, #1
 8006c5e:	2300      	movs	r3, #0
 8006c60:	6102      	str	r2, [r0, #16]
 8006c62:	4605      	mov	r5, r0
 8006c64:	64b8      	str	r0, [r7, #72]	; 0x48
 8006c66:	6003      	str	r3, [r0, #0]
 8006c68:	e7be      	b.n	8006be8 <__pow5mult+0x18>
 8006c6a:	bf00      	nop
 8006c6c:	08008ec8 	.word	0x08008ec8

08006c70 <__lshift>:
 8006c70:	e92d 47f0 	stmdb	sp!, {r4, r5, r6, r7, r8, r9, sl, lr}
 8006c74:	690e      	ldr	r6, [r1, #16]
 8006c76:	460c      	mov	r4, r1
 8006c78:	e9d1 1301 	ldrd	r1, r3, [r1, #4]
 8006c7c:	eb06 1662 	add.w	r6, r6, r2, asr #5
 8006c80:	1c75      	adds	r5, r6, #1
 8006c82:	429d      	cmp	r5, r3
 8006c84:	4690      	mov	r8, r2
 8006c86:	4607      	mov	r7, r0
 8006c88:	ea4f 1962 	mov.w	r9, r2, asr #5
 8006c8c:	dd04      	ble.n	8006c98 <__lshift+0x28>
 8006c8e:	005b      	lsls	r3, r3, #1
 8006c90:	429d      	cmp	r5, r3
 8006c92:	f101 0101 	add.w	r1, r1, #1
 8006c96:	dcfa      	bgt.n	8006c8e <__lshift+0x1e>
 8006c98:	4638      	mov	r0, r7
 8006c9a:	f7ff fe27 	bl	80068ec <_Balloc>
 8006c9e:	f1b9 0f00 	cmp.w	r9, #0
 8006ca2:	f100 0114 	add.w	r1, r0, #20
 8006ca6:	dd0f      	ble.n	8006cc8 <__lshift+0x58>
 8006ca8:	f109 0205 	add.w	r2, r9, #5
 8006cac:	ea4f 0e82 	mov.w	lr, r2, lsl #2
 8006cb0:	460b      	mov	r3, r1
 8006cb2:	eb00 0282 	add.w	r2, r0, r2, lsl #2
 8006cb6:	f04f 0c00 	mov.w	ip, #0
 8006cba:	f843 cb04 	str.w	ip, [r3], #4
 8006cbe:	4293      	cmp	r3, r2
 8006cc0:	d1fb      	bne.n	8006cba <__lshift+0x4a>
 8006cc2:	f1ae 0314 	sub.w	r3, lr, #20
 8006cc6:	4419      	add	r1, r3
 8006cc8:	6922      	ldr	r2, [r4, #16]
 8006cca:	f104 0314 	add.w	r3, r4, #20
 8006cce:	f018 081f 	ands.w	r8, r8, #31
 8006cd2:	eb03 0c82 	add.w	ip, r3, r2, lsl #2
 8006cd6:	d02c      	beq.n	8006d32 <__lshift+0xc2>
 8006cd8:	f1c8 0920 	rsb	r9, r8, #32
 8006cdc:	468e      	mov	lr, r1
 8006cde:	f04f 0a00 	mov.w	sl, #0
 8006ce2:	681a      	ldr	r2, [r3, #0]
 8006ce4:	fa02 f208 	lsl.w	r2, r2, r8
 8006ce8:	ea42 020a 	orr.w	r2, r2, sl
 8006cec:	f84e 2b04 	str.w	r2, [lr], #4
 8006cf0:	f853 2b04 	ldr.w	r2, [r3], #4
 8006cf4:	459c      	cmp	ip, r3
 8006cf6:	fa22 fa09 	lsr.w	sl, r2, r9
 8006cfa:	d8f2      	bhi.n	8006ce2 <__lshift+0x72>
 8006cfc:	ebac 0304 	sub.w	r3, ip, r4
 8006d00:	3b15      	subs	r3, #21
 8006d02:	f023 0303 	bic.w	r3, r3, #3
 8006d06:	3304      	adds	r3, #4
 8006d08:	f104 0215 	add.w	r2, r4, #21
 8006d0c:	4594      	cmp	ip, r2
 8006d0e:	bf38      	it	cc
 8006d10:	2304      	movcc	r3, #4
 8006d12:	f1ba 0f00 	cmp.w	sl, #0
 8006d16:	bf18      	it	ne
 8006d18:	462e      	movne	r6, r5
 8006d1a:	f841 a003 	str.w	sl, [r1, r3]
 8006d1e:	6cfb      	ldr	r3, [r7, #76]	; 0x4c
 8006d20:	6862      	ldr	r2, [r4, #4]
 8006d22:	6106      	str	r6, [r0, #16]
 8006d24:	f853 1022 	ldr.w	r1, [r3, r2, lsl #2]
 8006d28:	6021      	str	r1, [r4, #0]
 8006d2a:	f843 4022 	str.w	r4, [r3, r2, lsl #2]
 8006d2e:	e8bd 87f0 	ldmia.w	sp!, {r4, r5, r6, r7, r8, r9, sl, pc}
 8006d32:	3904      	subs	r1, #4
 8006d34:	f853 2b04 	ldr.w	r2, [r3], #4
 8006d38:	f841 2f04 	str.w	r2, [r1, #4]!
 8006d3c:	459c      	cmp	ip, r3
 8006d3e:	d8f9      	bhi.n	8006d34 <__lshift+0xc4>
 8006d40:	e7ed      	b.n	8006d1e <__lshift+0xae>
 8006d42:	bf00      	nop

08006d44 <__mcmp>:
 8006d44:	b430      	push	{r4, r5}
 8006d46:	690b      	ldr	r3, [r1, #16]
 8006d48:	4605      	mov	r5, r0
 8006d4a:	6900      	ldr	r0, [r0, #16]
 8006d4c:	1ac0      	subs	r0, r0, r3
 8006d4e:	d111      	bne.n	8006d74 <__mcmp+0x30>
 8006d50:	3514      	adds	r5, #20
 8006d52:	3114      	adds	r1, #20
 8006d54:	eb01 0283 	add.w	r2, r1, r3, lsl #2
 8006d58:	eb05 0383 	add.w	r3, r5, r3, lsl #2
 8006d5c:	e001      	b.n	8006d62 <__mcmp+0x1e>
 8006d5e:	429d      	cmp	r5, r3
 8006d60:	d208      	bcs.n	8006d74 <__mcmp+0x30>
 8006d62:	f853 4d04 	ldr.w	r4, [r3, #-4]!
 8006d66:	f852 1d04 	ldr.w	r1, [r2, #-4]!
 8006d6a:	428c      	cmp	r4, r1
 8006d6c:	d0f7      	beq.n	8006d5e <__mcmp+0x1a>
 8006d6e:	d203      	bcs.n	8006d78 <__mcmp+0x34>
 8006d70:	f04f 30ff 	mov.w	r0, #4294967295	; 0xffffffff
 8006d74:	bc30      	pop	{r4, r5}
 8006d76:	4770      	bx	lr
 8006d78:	2001      	movs	r0, #1
 8006d7a:	bc30      	pop	{r4, r5}
 8006d7c:	4770      	bx	lr
 8006d7e:	bf00      	nop

08006d80 <__mdiff>:
 8006d80:	e92d 4ff8 	stmdb	sp!, {r3, r4, r5, r6, r7, r8, r9, sl, fp, lr}
 8006d84:	690b      	ldr	r3, [r1, #16]
 8006d86:	6914      	ldr	r4, [r2, #16]
 8006d88:	1b1b      	subs	r3, r3, r4
 8006d8a:	2b00      	cmp	r3, #0
 8006d8c:	468a      	mov	sl, r1
 8006d8e:	4691      	mov	r9, r2
 8006d90:	d119      	bne.n	8006dc6 <__mdiff+0x46>
 8006d92:	f101 0714 	add.w	r7, r1, #20
 8006d96:	f102 0814 	add.w	r8, r2, #20
 8006d9a:	eb07 0384 	add.w	r3, r7, r4, lsl #2
 8006d9e:	eb08 0484 	add.w	r4, r8, r4, lsl #2
 8006da2:	e001      	b.n	8006da8 <__mdiff+0x28>
 8006da4:	429f      	cmp	r7, r3
 8006da6:	d27d      	bcs.n	8006ea4 <__mdiff+0x124>
 8006da8:	f853 6d04 	ldr.w	r6, [r3, #-4]!
 8006dac:	f854 5d04 	ldr.w	r5, [r4, #-4]!
 8006db0:	42ae      	cmp	r6, r5
 8006db2:	d0f7      	beq.n	8006da4 <__mdiff+0x24>
 8006db4:	d20c      	bcs.n	8006dd0 <__mdiff+0x50>
 8006db6:	463a      	mov	r2, r7
 8006db8:	4653      	mov	r3, sl
 8006dba:	4647      	mov	r7, r8
 8006dbc:	46ca      	mov	sl, r9
 8006dbe:	4690      	mov	r8, r2
 8006dc0:	4699      	mov	r9, r3
 8006dc2:	2401      	movs	r4, #1
 8006dc4:	e005      	b.n	8006dd2 <__mdiff+0x52>
 8006dc6:	db65      	blt.n	8006e94 <__mdiff+0x114>
 8006dc8:	f101 0714 	add.w	r7, r1, #20
 8006dcc:	f102 0814 	add.w	r8, r2, #20
 8006dd0:	2400      	movs	r4, #0
 8006dd2:	f8da 1004 	ldr.w	r1, [sl, #4]
 8006dd6:	f7ff fd89 	bl	80068ec <_Balloc>
 8006dda:	f8d9 3010 	ldr.w	r3, [r9, #16]
 8006dde:	f8da 5010 	ldr.w	r5, [sl, #16]
 8006de2:	60c4      	str	r4, [r0, #12]
 8006de4:	f100 0414 	add.w	r4, r0, #20
 8006de8:	eb08 0983 	add.w	r9, r8, r3, lsl #2
 8006dec:	46a4      	mov	ip, r4
 8006dee:	eb07 0e85 	add.w	lr, r7, r5, lsl #2
 8006df2:	1f3e      	subs	r6, r7, #4
 8006df4:	4641      	mov	r1, r8
 8006df6:	2300      	movs	r3, #0
 8006df8:	f851 bb04 	ldr.w	fp, [r1], #4
 8006dfc:	f856 af04 	ldr.w	sl, [r6, #4]!
 8006e00:	fa1f f28b 	uxth.w	r2, fp
 8006e04:	fa13 f38a 	uxtah	r3, r3, sl
 8006e08:	ea4f 4b1b 	mov.w	fp, fp, lsr #16
 8006e0c:	1a9a      	subs	r2, r3, r2
 8006e0e:	ebcb 431a 	rsb	r3, fp, sl, lsr #16
 8006e12:	eb03 4322 	add.w	r3, r3, r2, asr #16
 8006e16:	b292      	uxth	r2, r2
 8006e18:	ea42 4203 	orr.w	r2, r2, r3, lsl #16
 8006e1c:	4589      	cmp	r9, r1
 8006e1e:	f84c 2b04 	str.w	r2, [ip], #4
 8006e22:	ea4f 4323 	mov.w	r3, r3, asr #16
 8006e26:	d8e7      	bhi.n	8006df8 <__mdiff+0x78>
 8006e28:	ea6f 0108 	mvn.w	r1, r8
 8006e2c:	4449      	add	r1, r9
 8006e2e:	f108 0801 	add.w	r8, r8, #1
 8006e32:	45c1      	cmp	r9, r8
 8006e34:	f021 0603 	bic.w	r6, r1, #3
 8006e38:	f106 0604 	add.w	r6, r6, #4
 8006e3c:	bf38      	it	cc
 8006e3e:	2604      	movcc	r6, #4
 8006e40:	4437      	add	r7, r6
 8006e42:	f021 0103 	bic.w	r1, r1, #3
 8006e46:	bf38      	it	cc
 8006e48:	2100      	movcc	r1, #0
 8006e4a:	45be      	cmp	lr, r7
 8006e4c:	4426      	add	r6, r4
 8006e4e:	440c      	add	r4, r1
 8006e50:	d917      	bls.n	8006e82 <__mdiff+0x102>
 8006e52:	46b4      	mov	ip, r6
 8006e54:	4639      	mov	r1, r7
 8006e56:	f851 4b04 	ldr.w	r4, [r1], #4
 8006e5a:	fa13 f284 	uxtah	r2, r3, r4
 8006e5e:	1413      	asrs	r3, r2, #16
 8006e60:	eb03 4314 	add.w	r3, r3, r4, lsr #16
 8006e64:	b292      	uxth	r2, r2
 8006e66:	ea42 4203 	orr.w	r2, r2, r3, lsl #16
 8006e6a:	458e      	cmp	lr, r1
 8006e6c:	f84c 2b04 	str.w	r2, [ip], #4
 8006e70:	ea4f 4323 	mov.w	r3, r3, asr #16
 8006e74:	d8ef      	bhi.n	8006e56 <__mdiff+0xd6>
 8006e76:	f10e 34ff 	add.w	r4, lr, #4294967295	; 0xffffffff
 8006e7a:	1be4      	subs	r4, r4, r7
 8006e7c:	f024 0403 	bic.w	r4, r4, #3
 8006e80:	4434      	add	r4, r6
 8006e82:	b922      	cbnz	r2, 8006e8e <__mdiff+0x10e>
 8006e84:	f854 3d04 	ldr.w	r3, [r4, #-4]!
 8006e88:	3d01      	subs	r5, #1
 8006e8a:	2b00      	cmp	r3, #0
 8006e8c:	d0fa      	beq.n	8006e84 <__mdiff+0x104>
 8006e8e:	6105      	str	r5, [r0, #16]
 8006e90:	e8bd 8ff8 	ldmia.w	sp!, {r3, r4, r5, r6, r7, r8, r9, sl, fp, pc}
 8006e94:	f101 0814 	add.w	r8, r1, #20
 8006e98:	f102 0714 	add.w	r7, r2, #20
 8006e9c:	4692      	mov	sl, r2
 8006e9e:	2401      	movs	r4, #1
 8006ea0:	4689      	mov	r9, r1
 8006ea2:	e796      	b.n	8006dd2 <__mdiff+0x52>
 8006ea4:	2100      	movs	r1, #0
 8006ea6:	f7ff fd21 	bl	80068ec <_Balloc>
 8006eaa:	2201      	movs	r2, #1
 8006eac:	2300      	movs	r3, #0
 8006eae:	e9c0 2304 	strd	r2, r3, [r0, #16]
 8006eb2:	e8bd 8ff8 	ldmia.w	sp!, {r3, r4, r5, r6, r7, r8, r9, sl, fp, pc}
 8006eb6:	bf00      	nop

08006eb8 <__d2b>:
 8006eb8:	e92d 43f0 	stmdb	sp!, {r4, r5, r6, r7, r8, r9, lr}
 8006ebc:	4688      	mov	r8, r1
 8006ebe:	b083      	sub	sp, #12
 8006ec0:	2101      	movs	r1, #1
 8006ec2:	ec55 4b10 	vmov	r4, r5, d0
 8006ec6:	4617      	mov	r7, r2
 8006ec8:	f7ff fd10 	bl	80068ec <_Balloc>
 8006ecc:	f3c5 590a 	ubfx	r9, r5, #20, #11
 8006ed0:	4606      	mov	r6, r0
 8006ed2:	f3c5 0313 	ubfx	r3, r5, #0, #20
 8006ed6:	f1b9 0f00 	cmp.w	r9, #0
 8006eda:	d001      	beq.n	8006ee0 <__d2b+0x28>
 8006edc:	f443 1380 	orr.w	r3, r3, #1048576	; 0x100000
 8006ee0:	2c00      	cmp	r4, #0
 8006ee2:	9301      	str	r3, [sp, #4]
 8006ee4:	d01e      	beq.n	8006f24 <__d2b+0x6c>
 8006ee6:	4668      	mov	r0, sp
 8006ee8:	9400      	str	r4, [sp, #0]
 8006eea:	f7ff fd95 	bl	8006a18 <__lo0bits>
 8006eee:	4603      	mov	r3, r0
 8006ef0:	2800      	cmp	r0, #0
 8006ef2:	d133      	bne.n	8006f5c <__d2b+0xa4>
 8006ef4:	e9dd 2100 	ldrd	r2, r1, [sp]
 8006ef8:	6172      	str	r2, [r6, #20]
 8006efa:	2900      	cmp	r1, #0
 8006efc:	bf14      	ite	ne
 8006efe:	2202      	movne	r2, #2
 8006f00:	2201      	moveq	r2, #1
 8006f02:	61b1      	str	r1, [r6, #24]
 8006f04:	6132      	str	r2, [r6, #16]
 8006f06:	f1b9 0f00 	cmp.w	r9, #0
 8006f0a:	d017      	beq.n	8006f3c <__d2b+0x84>
 8006f0c:	f2a9 4233 	subw	r2, r9, #1075	; 0x433
 8006f10:	441a      	add	r2, r3
 8006f12:	4630      	mov	r0, r6
 8006f14:	f1c3 0335 	rsb	r3, r3, #53	; 0x35
 8006f18:	f8c8 2000 	str.w	r2, [r8]
 8006f1c:	603b      	str	r3, [r7, #0]
 8006f1e:	b003      	add	sp, #12
 8006f20:	e8bd 83f0 	ldmia.w	sp!, {r4, r5, r6, r7, r8, r9, pc}
 8006f24:	a801      	add	r0, sp, #4
 8006f26:	f7ff fd77 	bl	8006a18 <__lo0bits>
 8006f2a:	9b01      	ldr	r3, [sp, #4]
 8006f2c:	6173      	str	r3, [r6, #20]
 8006f2e:	2201      	movs	r2, #1
 8006f30:	f100 0320 	add.w	r3, r0, #32
 8006f34:	6132      	str	r2, [r6, #16]
 8006f36:	f1b9 0f00 	cmp.w	r9, #0
 8006f3a:	d1e7      	bne.n	8006f0c <__d2b+0x54>
 8006f3c:	eb06 0182 	add.w	r1, r6, r2, lsl #2
 8006f40:	f2a3 4332 	subw	r3, r3, #1074	; 0x432
 8006f44:	6908      	ldr	r0, [r1, #16]
 8006f46:	f8c8 3000 	str.w	r3, [r8]
 8006f4a:	f7ff fd45 	bl	80069d8 <__hi0bits>
 8006f4e:	ebc0 1042 	rsb	r0, r0, r2, lsl #5
 8006f52:	6038      	str	r0, [r7, #0]
 8006f54:	4630      	mov	r0, r6
 8006f56:	b003      	add	sp, #12
 8006f58:	e8bd 83f0 	ldmia.w	sp!, {r4, r5, r6, r7, r8, r9, pc}
 8006f5c:	e9dd 0100 	ldrd	r0, r1, [sp]
 8006f60:	f1c3 0220 	rsb	r2, r3, #32
 8006f64:	fa01 f202 	lsl.w	r2, r1, r2
 8006f68:	4302      	orrs	r2, r0
 8006f6a:	40d9      	lsrs	r1, r3
 8006f6c:	9101      	str	r1, [sp, #4]
 8006f6e:	6172      	str	r2, [r6, #20]
 8006f70:	e7c3      	b.n	8006efa <__d2b+0x42>
 8006f72:	bf00      	nop

08006f74 <frexp>:
 8006f74:	ec53 2b10 	vmov	r2, r3, d0
 8006f78:	b570      	push	{r4, r5, r6, lr}
 8006f7a:	4e16      	ldr	r6, [pc, #88]	; (8006fd4 <frexp+0x60>)
 8006f7c:	4605      	mov	r5, r0
 8006f7e:	f023 4100 	bic.w	r1, r3, #2147483648	; 0x80000000
 8006f82:	2000      	movs	r0, #0
 8006f84:	42b1      	cmp	r1, r6
 8006f86:	6028      	str	r0, [r5, #0]
 8006f88:	dc21      	bgt.n	8006fce <frexp+0x5a>
 8006f8a:	ee10 6a10 	vmov	r6, s0
 8006f8e:	430e      	orrs	r6, r1
 8006f90:	d01d      	beq.n	8006fce <frexp+0x5a>
 8006f92:	4e11      	ldr	r6, [pc, #68]	; (8006fd8 <frexp+0x64>)
 8006f94:	401e      	ands	r6, r3
 8006f96:	461c      	mov	r4, r3
 8006f98:	b966      	cbnz	r6, 8006fb4 <frexp+0x40>
 8006f9a:	4619      	mov	r1, r3
 8006f9c:	2200      	movs	r2, #0
 8006f9e:	ee10 0a10 	vmov	r0, s0
 8006fa2:	4b0e      	ldr	r3, [pc, #56]	; (8006fdc <frexp+0x68>)
 8006fa4:	f000 fe2a 	bl	8007bfc <__aeabi_dmul>
 8006fa8:	4602      	mov	r2, r0
 8006faa:	460c      	mov	r4, r1
 8006fac:	f06f 0035 	mvn.w	r0, #53	; 0x35
 8006fb0:	f021 4100 	bic.w	r1, r1, #2147483648	; 0x80000000
 8006fb4:	f024 44ff 	bic.w	r4, r4, #2139095040	; 0x7f800000
 8006fb8:	1509      	asrs	r1, r1, #20
 8006fba:	f424 04e0 	bic.w	r4, r4, #7340032	; 0x700000
 8006fbe:	f2a1 31fe 	subw	r1, r1, #1022	; 0x3fe
 8006fc2:	f044 537f 	orr.w	r3, r4, #1069547520	; 0x3fc00000
 8006fc6:	4401      	add	r1, r0
 8006fc8:	f443 1300 	orr.w	r3, r3, #2097152	; 0x200000
 8006fcc:	6029      	str	r1, [r5, #0]
 8006fce:	ec43 2b10 	vmov	d0, r2, r3
 8006fd2:	bd70      	pop	{r4, r5, r6, pc}
 8006fd4:	7fefffff 	.word	0x7fefffff
 8006fd8:	7ff00000 	.word	0x7ff00000
 8006fdc:	43500000 	.word	0x43500000

08006fe0 <_sbrk_r>:
 8006fe0:	b538      	push	{r3, r4, r5, lr}
 8006fe2:	4d07      	ldr	r5, [pc, #28]	; (8007000 <_sbrk_r+0x20>)
 8006fe4:	2200      	movs	r2, #0
 8006fe6:	4604      	mov	r4, r0
 8006fe8:	4608      	mov	r0, r1
 8006fea:	602a      	str	r2, [r5, #0]
 8006fec:	f001 fa5a 	bl	80084a4 <_sbrk>
 8006ff0:	1c43      	adds	r3, r0, #1
 8006ff2:	d000      	beq.n	8006ff6 <_sbrk_r+0x16>
 8006ff4:	bd38      	pop	{r3, r4, r5, pc}
 8006ff6:	682b      	ldr	r3, [r5, #0]
 8006ff8:	2b00      	cmp	r3, #0
 8006ffa:	d0fb      	beq.n	8006ff4 <_sbrk_r+0x14>
 8006ffc:	6023      	str	r3, [r4, #0]
 8006ffe:	bd38      	pop	{r3, r4, r5, pc}
 8007000:	20000a14 	.word	0x20000a14
	...

08007040 <strlen>:
 8007040:	f890 f000 	pld	[r0]
 8007044:	e96d 4502 	strd	r4, r5, [sp, #-8]!
 8007048:	f020 0107 	bic.w	r1, r0, #7
 800704c:	f06f 0c00 	mvn.w	ip, #0
 8007050:	f010 0407 	ands.w	r4, r0, #7
 8007054:	f891 f020 	pld	[r1, #32]
 8007058:	f040 8049 	bne.w	80070ee <strlen+0xae>
 800705c:	f04f 0400 	mov.w	r4, #0
 8007060:	f06f 0007 	mvn.w	r0, #7
 8007064:	e9d1 2300 	ldrd	r2, r3, [r1]
 8007068:	f891 f040 	pld	[r1, #64]	; 0x40
 800706c:	f100 0008 	add.w	r0, r0, #8
 8007070:	fa82 f24c 	uadd8	r2, r2, ip
 8007074:	faa4 f28c 	sel	r2, r4, ip
 8007078:	fa83 f34c 	uadd8	r3, r3, ip
 800707c:	faa2 f38c 	sel	r3, r2, ip
 8007080:	bb4b      	cbnz	r3, 80070d6 <strlen+0x96>
 8007082:	e9d1 2302 	ldrd	r2, r3, [r1, #8]
 8007086:	fa82 f24c 	uadd8	r2, r2, ip
 800708a:	f100 0008 	add.w	r0, r0, #8
 800708e:	faa4 f28c 	sel	r2, r4, ip
 8007092:	fa83 f34c 	uadd8	r3, r3, ip
 8007096:	faa2 f38c 	sel	r3, r2, ip
 800709a:	b9e3      	cbnz	r3, 80070d6 <strlen+0x96>
 800709c:	e9d1 2304 	ldrd	r2, r3, [r1, #16]
 80070a0:	fa82 f24c 	uadd8	r2, r2, ip
 80070a4:	f100 0008 	add.w	r0, r0, #8
 80070a8:	faa4 f28c 	sel	r2, r4, ip
 80070ac:	fa83 f34c 	uadd8	r3, r3, ip
 80070b0:	faa2 f38c 	sel	r3, r2, ip
 80070b4:	b97b      	cbnz	r3, 80070d6 <strlen+0x96>
 80070b6:	e9d1 2306 	ldrd	r2, r3, [r1, #24]
 80070ba:	f101 0120 	add.w	r1, r1, #32
 80070be:	fa82 f24c 	uadd8	r2, r2, ip
 80070c2:	f100 0008 	add.w	r0, r0, #8
 80070c6:	faa4 f28c 	sel	r2, r4, ip
 80070ca:	fa83 f34c 	uadd8	r3, r3, ip
 80070ce:	faa2 f38c 	sel	r3, r2, ip
 80070d2:	2b00      	cmp	r3, #0
 80070d4:	d0c6      	beq.n	8007064 <strlen+0x24>
 80070d6:	2a00      	cmp	r2, #0
 80070d8:	bf04      	itt	eq
 80070da:	3004      	addeq	r0, #4
 80070dc:	461a      	moveq	r2, r3
 80070de:	ba12      	rev	r2, r2
 80070e0:	fab2 f282 	clz	r2, r2
 80070e4:	e8fd 4502 	ldrd	r4, r5, [sp], #8
 80070e8:	eb00 00d2 	add.w	r0, r0, r2, lsr #3
 80070ec:	4770      	bx	lr
 80070ee:	e9d1 2300 	ldrd	r2, r3, [r1]
 80070f2:	f004 0503 	and.w	r5, r4, #3
 80070f6:	f1c4 0000 	rsb	r0, r4, #0
 80070fa:	ea4f 05c5 	mov.w	r5, r5, lsl #3
 80070fe:	f014 0f04 	tst.w	r4, #4
 8007102:	f891 f040 	pld	[r1, #64]	; 0x40
 8007106:	fa0c f505 	lsl.w	r5, ip, r5
 800710a:	ea62 0205 	orn	r2, r2, r5
 800710e:	bf1c      	itt	ne
 8007110:	ea63 0305 	ornne	r3, r3, r5
 8007114:	4662      	movne	r2, ip
 8007116:	f04f 0400 	mov.w	r4, #0
 800711a:	e7a9      	b.n	8007070 <strlen+0x30>

0800711c <strncpy>:
 800711c:	b470      	push	{r4, r5, r6}
 800711e:	ea40 0401 	orr.w	r4, r0, r1
 8007122:	07a3      	lsls	r3, r4, #30
 8007124:	d101      	bne.n	800712a <strncpy+0xe>
 8007126:	2a03      	cmp	r2, #3
 8007128:	d80f      	bhi.n	800714a <strncpy+0x2e>
 800712a:	4604      	mov	r4, r0
 800712c:	1e4d      	subs	r5, r1, #1
 800712e:	e007      	b.n	8007140 <strncpy+0x24>
 8007130:	f815 1f01 	ldrb.w	r1, [r5, #1]!
 8007134:	f803 1b01 	strb.w	r1, [r3], #1
 8007138:	1e56      	subs	r6, r2, #1
 800713a:	b1c9      	cbz	r1, 8007170 <strncpy+0x54>
 800713c:	461c      	mov	r4, r3
 800713e:	4632      	mov	r2, r6
 8007140:	4623      	mov	r3, r4
 8007142:	2a00      	cmp	r2, #0
 8007144:	d1f4      	bne.n	8007130 <strncpy+0x14>
 8007146:	bc70      	pop	{r4, r5, r6}
 8007148:	4770      	bx	lr
 800714a:	460b      	mov	r3, r1
 800714c:	4604      	mov	r4, r0
 800714e:	4619      	mov	r1, r3
 8007150:	f853 6b04 	ldr.w	r6, [r3], #4
 8007154:	f1a6 3501 	sub.w	r5, r6, #16843009	; 0x1010101
 8007158:	ea25 0506 	bic.w	r5, r5, r6
 800715c:	f015 3f80 	tst.w	r5, #2155905152	; 0x80808080
 8007160:	d1e4      	bne.n	800712c <strncpy+0x10>
 8007162:	3a04      	subs	r2, #4
 8007164:	2a03      	cmp	r2, #3
 8007166:	f844 6b04 	str.w	r6, [r4], #4
 800716a:	4619      	mov	r1, r3
 800716c:	d8ef      	bhi.n	800714e <strncpy+0x32>
 800716e:	e7dd      	b.n	800712c <strncpy+0x10>
 8007170:	4422      	add	r2, r4
 8007172:	2e00      	cmp	r6, #0
 8007174:	d0e7      	beq.n	8007146 <strncpy+0x2a>
 8007176:	f803 1b01 	strb.w	r1, [r3], #1
 800717a:	4293      	cmp	r3, r2
 800717c:	d1fb      	bne.n	8007176 <strncpy+0x5a>
 800717e:	bc70      	pop	{r4, r5, r6}
 8007180:	4770      	bx	lr
 8007182:	bf00      	nop

08007184 <__ssprint_r>:
 8007184:	e92d 4ff0 	stmdb	sp!, {r4, r5, r6, r7, r8, r9, sl, fp, lr}
 8007188:	6893      	ldr	r3, [r2, #8]
 800718a:	b083      	sub	sp, #12
 800718c:	4691      	mov	r9, r2
 800718e:	2b00      	cmp	r3, #0
 8007190:	d06e      	beq.n	8007270 <__ssprint_r+0xec>
 8007192:	6817      	ldr	r7, [r2, #0]
 8007194:	688d      	ldr	r5, [r1, #8]
 8007196:	4680      	mov	r8, r0
 8007198:	460c      	mov	r4, r1
 800719a:	6808      	ldr	r0, [r1, #0]
 800719c:	3708      	adds	r7, #8
 800719e:	e044      	b.n	800722a <__ssprint_r+0xa6>
 80071a0:	89a3      	ldrh	r3, [r4, #12]
 80071a2:	f413 6f90 	tst.w	r3, #1152	; 0x480
 80071a6:	d02e      	beq.n	8007206 <__ssprint_r+0x82>
 80071a8:	e9d4 1504 	ldrd	r1, r5, [r4, #16]
 80071ac:	eb05 0545 	add.w	r5, r5, r5, lsl #1
 80071b0:	eba0 0a01 	sub.w	sl, r0, r1
 80071b4:	eb05 75d5 	add.w	r5, r5, r5, lsr #31
 80071b8:	eb0a 0006 	add.w	r0, sl, r6
 80071bc:	106d      	asrs	r5, r5, #1
 80071be:	3001      	adds	r0, #1
 80071c0:	42a8      	cmp	r0, r5
 80071c2:	462a      	mov	r2, r5
 80071c4:	bf84      	itt	hi
 80071c6:	4605      	movhi	r5, r0
 80071c8:	462a      	movhi	r2, r5
 80071ca:	055b      	lsls	r3, r3, #21
 80071cc:	d537      	bpl.n	800723e <__ssprint_r+0xba>
 80071ce:	4611      	mov	r1, r2
 80071d0:	4640      	mov	r0, r8
 80071d2:	f7fe ffd7 	bl	8006184 <_malloc_r>
 80071d6:	2800      	cmp	r0, #0
 80071d8:	d03b      	beq.n	8007252 <__ssprint_r+0xce>
 80071da:	4652      	mov	r2, sl
 80071dc:	6921      	ldr	r1, [r4, #16]
 80071de:	9001      	str	r0, [sp, #4]
 80071e0:	f7ff fade 	bl	80067a0 <memcpy>
 80071e4:	89a2      	ldrh	r2, [r4, #12]
 80071e6:	9b01      	ldr	r3, [sp, #4]
 80071e8:	f422 6290 	bic.w	r2, r2, #1152	; 0x480
 80071ec:	f042 0280 	orr.w	r2, r2, #128	; 0x80
 80071f0:	81a2      	strh	r2, [r4, #12]
 80071f2:	eba5 020a 	sub.w	r2, r5, sl
 80071f6:	eb03 000a 	add.w	r0, r3, sl
 80071fa:	6165      	str	r5, [r4, #20]
 80071fc:	6123      	str	r3, [r4, #16]
 80071fe:	6020      	str	r0, [r4, #0]
 8007200:	60a2      	str	r2, [r4, #8]
 8007202:	4635      	mov	r5, r6
 8007204:	46b2      	mov	sl, r6
 8007206:	4659      	mov	r1, fp
 8007208:	4652      	mov	r2, sl
 800720a:	f000 f881 	bl	8007310 <memmove>
 800720e:	68a0      	ldr	r0, [r4, #8]
 8007210:	f8d9 1008 	ldr.w	r1, [r9, #8]
 8007214:	6823      	ldr	r3, [r4, #0]
 8007216:	1b45      	subs	r5, r0, r5
 8007218:	1b8e      	subs	r6, r1, r6
 800721a:	eb03 000a 	add.w	r0, r3, sl
 800721e:	60a5      	str	r5, [r4, #8]
 8007220:	6020      	str	r0, [r4, #0]
 8007222:	f8c9 6008 	str.w	r6, [r9, #8]
 8007226:	b31e      	cbz	r6, 8007270 <__ssprint_r+0xec>
 8007228:	3708      	adds	r7, #8
 800722a:	e957 b602 	ldrd	fp, r6, [r7, #-8]
 800722e:	2e00      	cmp	r6, #0
 8007230:	d0fa      	beq.n	8007228 <__ssprint_r+0xa4>
 8007232:	42b5      	cmp	r5, r6
 8007234:	46aa      	mov	sl, r5
 8007236:	d9b3      	bls.n	80071a0 <__ssprint_r+0x1c>
 8007238:	4635      	mov	r5, r6
 800723a:	46b2      	mov	sl, r6
 800723c:	e7e3      	b.n	8007206 <__ssprint_r+0x82>
 800723e:	4640      	mov	r0, r8
 8007240:	f000 f922 	bl	8007488 <_realloc_r>
 8007244:	4603      	mov	r3, r0
 8007246:	2800      	cmp	r0, #0
 8007248:	d1d3      	bne.n	80071f2 <__ssprint_r+0x6e>
 800724a:	6921      	ldr	r1, [r4, #16]
 800724c:	4640      	mov	r0, r8
 800724e:	f7fe fe91 	bl	8005f74 <_free_r>
 8007252:	230c      	movs	r3, #12
 8007254:	f8c8 3000 	str.w	r3, [r8]
 8007258:	89a3      	ldrh	r3, [r4, #12]
 800725a:	2200      	movs	r2, #0
 800725c:	f043 0340 	orr.w	r3, r3, #64	; 0x40
 8007260:	f04f 30ff 	mov.w	r0, #4294967295	; 0xffffffff
 8007264:	81a3      	strh	r3, [r4, #12]
 8007266:	e9c9 2201 	strd	r2, r2, [r9, #4]
 800726a:	b003      	add	sp, #12
 800726c:	e8bd 8ff0 	ldmia.w	sp!, {r4, r5, r6, r7, r8, r9, sl, fp, pc}
 8007270:	2000      	movs	r0, #0
 8007272:	f8c9 0004 	str.w	r0, [r9, #4]
 8007276:	b003      	add	sp, #12
 8007278:	e8bd 8ff0 	ldmia.w	sp!, {r4, r5, r6, r7, r8, r9, sl, fp, pc}

0800727c <_calloc_r>:
 800727c:	b510      	push	{r4, lr}
 800727e:	fb02 f101 	mul.w	r1, r2, r1
 8007282:	f7fe ff7f 	bl	8006184 <_malloc_r>
 8007286:	4604      	mov	r4, r0
 8007288:	b168      	cbz	r0, 80072a6 <_calloc_r+0x2a>
 800728a:	f850 2c04 	ldr.w	r2, [r0, #-4]
 800728e:	f022 0203 	bic.w	r2, r2, #3
 8007292:	3a04      	subs	r2, #4
 8007294:	2a24      	cmp	r2, #36	; 0x24
 8007296:	d818      	bhi.n	80072ca <_calloc_r+0x4e>
 8007298:	2a13      	cmp	r2, #19
 800729a:	d806      	bhi.n	80072aa <_calloc_r+0x2e>
 800729c:	4602      	mov	r2, r0
 800729e:	2300      	movs	r3, #0
 80072a0:	e9c2 3300 	strd	r3, r3, [r2]
 80072a4:	6093      	str	r3, [r2, #8]
 80072a6:	4620      	mov	r0, r4
 80072a8:	bd10      	pop	{r4, pc}
 80072aa:	2300      	movs	r3, #0
 80072ac:	2a1b      	cmp	r2, #27
 80072ae:	e9c0 3300 	strd	r3, r3, [r0]
 80072b2:	d90f      	bls.n	80072d4 <_calloc_r+0x58>
 80072b4:	2a24      	cmp	r2, #36	; 0x24
 80072b6:	e9c0 3302 	strd	r3, r3, [r0, #8]
 80072ba:	bf0a      	itet	eq
 80072bc:	e9c0 3304 	strdeq	r3, r3, [r0, #16]
 80072c0:	f100 0210 	addne.w	r2, r0, #16
 80072c4:	f100 0218 	addeq.w	r2, r0, #24
 80072c8:	e7e9      	b.n	800729e <_calloc_r+0x22>
 80072ca:	2100      	movs	r1, #0
 80072cc:	f000 f88c 	bl	80073e8 <memset>
 80072d0:	4620      	mov	r0, r4
 80072d2:	bd10      	pop	{r4, pc}
 80072d4:	f100 0208 	add.w	r2, r0, #8
 80072d8:	e7e1      	b.n	800729e <_calloc_r+0x22>
 80072da:	bf00      	nop

080072dc <__retarget_lock_acquire_recursive>:
 80072dc:	4770      	bx	lr
 80072de:	bf00      	nop

080072e0 <__retarget_lock_release_recursive>:
 80072e0:	4770      	bx	lr
 80072e2:	bf00      	nop

080072e4 <__ascii_mbtowc>:
 80072e4:	b082      	sub	sp, #8
 80072e6:	b149      	cbz	r1, 80072fc <__ascii_mbtowc+0x18>
 80072e8:	b15a      	cbz	r2, 8007302 <__ascii_mbtowc+0x1e>
 80072ea:	b16b      	cbz	r3, 8007308 <__ascii_mbtowc+0x24>
 80072ec:	7813      	ldrb	r3, [r2, #0]
 80072ee:	600b      	str	r3, [r1, #0]
 80072f0:	7812      	ldrb	r2, [r2, #0]
 80072f2:	1e10      	subs	r0, r2, #0
 80072f4:	bf18      	it	ne
 80072f6:	2001      	movne	r0, #1
 80072f8:	b002      	add	sp, #8
 80072fa:	4770      	bx	lr
 80072fc:	a901      	add	r1, sp, #4
 80072fe:	2a00      	cmp	r2, #0
 8007300:	d1f3      	bne.n	80072ea <__ascii_mbtowc+0x6>
 8007302:	4610      	mov	r0, r2
 8007304:	b002      	add	sp, #8
 8007306:	4770      	bx	lr
 8007308:	f06f 0001 	mvn.w	r0, #1
 800730c:	e7f4      	b.n	80072f8 <__ascii_mbtowc+0x14>
 800730e:	bf00      	nop

08007310 <memmove>:
 8007310:	4288      	cmp	r0, r1
 8007312:	b4f0      	push	{r4, r5, r6, r7}
 8007314:	d90d      	bls.n	8007332 <memmove+0x22>
 8007316:	188b      	adds	r3, r1, r2
 8007318:	4283      	cmp	r3, r0
 800731a:	d90a      	bls.n	8007332 <memmove+0x22>
 800731c:	1884      	adds	r4, r0, r2
 800731e:	b132      	cbz	r2, 800732e <memmove+0x1e>
 8007320:	4622      	mov	r2, r4
 8007322:	f813 4d01 	ldrb.w	r4, [r3, #-1]!
 8007326:	f802 4d01 	strb.w	r4, [r2, #-1]!
 800732a:	4299      	cmp	r1, r3
 800732c:	d1f9      	bne.n	8007322 <memmove+0x12>
 800732e:	bcf0      	pop	{r4, r5, r6, r7}
 8007330:	4770      	bx	lr
 8007332:	2a0f      	cmp	r2, #15
 8007334:	d80e      	bhi.n	8007354 <memmove+0x44>
 8007336:	4603      	mov	r3, r0
 8007338:	1e54      	subs	r4, r2, #1
 800733a:	2a00      	cmp	r2, #0
 800733c:	d0f7      	beq.n	800732e <memmove+0x1e>
 800733e:	3401      	adds	r4, #1
 8007340:	440c      	add	r4, r1
 8007342:	3b01      	subs	r3, #1
 8007344:	f811 2b01 	ldrb.w	r2, [r1], #1
 8007348:	f803 2f01 	strb.w	r2, [r3, #1]!
 800734c:	42a1      	cmp	r1, r4
 800734e:	d1f9      	bne.n	8007344 <memmove+0x34>
 8007350:	bcf0      	pop	{r4, r5, r6, r7}
 8007352:	4770      	bx	lr
 8007354:	ea40 0301 	orr.w	r3, r0, r1
 8007358:	079b      	lsls	r3, r3, #30
 800735a:	d13f      	bne.n	80073dc <memmove+0xcc>
 800735c:	f1a2 0310 	sub.w	r3, r2, #16
 8007360:	f023 040f 	bic.w	r4, r3, #15
 8007364:	f101 0720 	add.w	r7, r1, #32
 8007368:	4427      	add	r7, r4
 800736a:	091b      	lsrs	r3, r3, #4
 800736c:	f101 0410 	add.w	r4, r1, #16
 8007370:	f100 0510 	add.w	r5, r0, #16
 8007374:	f854 6c10 	ldr.w	r6, [r4, #-16]
 8007378:	f845 6c10 	str.w	r6, [r5, #-16]
 800737c:	f854 6c0c 	ldr.w	r6, [r4, #-12]
 8007380:	f845 6c0c 	str.w	r6, [r5, #-12]
 8007384:	f854 6c08 	ldr.w	r6, [r4, #-8]
 8007388:	f845 6c08 	str.w	r6, [r5, #-8]
 800738c:	f854 6c04 	ldr.w	r6, [r4, #-4]
 8007390:	f845 6c04 	str.w	r6, [r5, #-4]
 8007394:	3410      	adds	r4, #16
 8007396:	42bc      	cmp	r4, r7
 8007398:	f105 0510 	add.w	r5, r5, #16
 800739c:	d1ea      	bne.n	8007374 <memmove+0x64>
 800739e:	3301      	adds	r3, #1
 80073a0:	f012 0f0c 	tst.w	r2, #12
 80073a4:	eb01 1103 	add.w	r1, r1, r3, lsl #4
 80073a8:	f002 040f 	and.w	r4, r2, #15
 80073ac:	eb00 1303 	add.w	r3, r0, r3, lsl #4
 80073b0:	d017      	beq.n	80073e2 <memmove+0xd2>
 80073b2:	3c04      	subs	r4, #4
 80073b4:	f024 0c03 	bic.w	ip, r4, #3
 80073b8:	08a5      	lsrs	r5, r4, #2
 80073ba:	449c      	add	ip, r3
 80073bc:	1f1c      	subs	r4, r3, #4
 80073be:	460e      	mov	r6, r1
 80073c0:	f856 7b04 	ldr.w	r7, [r6], #4
 80073c4:	f844 7f04 	str.w	r7, [r4, #4]!
 80073c8:	4564      	cmp	r4, ip
 80073ca:	d1f9      	bne.n	80073c0 <memmove+0xb0>
 80073cc:	1c6c      	adds	r4, r5, #1
 80073ce:	eb03 0384 	add.w	r3, r3, r4, lsl #2
 80073d2:	eb01 0184 	add.w	r1, r1, r4, lsl #2
 80073d6:	f002 0203 	and.w	r2, r2, #3
 80073da:	e7ad      	b.n	8007338 <memmove+0x28>
 80073dc:	1e54      	subs	r4, r2, #1
 80073de:	4603      	mov	r3, r0
 80073e0:	e7ad      	b.n	800733e <memmove+0x2e>
 80073e2:	4622      	mov	r2, r4
 80073e4:	e7a8      	b.n	8007338 <memmove+0x28>
 80073e6:	bf00      	nop

080073e8 <memset>:
 80073e8:	b4f0      	push	{r4, r5, r6, r7}
 80073ea:	0786      	lsls	r6, r0, #30
 80073ec:	d046      	beq.n	800747c <memset+0x94>
 80073ee:	1e54      	subs	r4, r2, #1
 80073f0:	2a00      	cmp	r2, #0
 80073f2:	d03c      	beq.n	800746e <memset+0x86>
 80073f4:	b2ca      	uxtb	r2, r1
 80073f6:	4603      	mov	r3, r0
 80073f8:	e001      	b.n	80073fe <memset+0x16>
 80073fa:	3c01      	subs	r4, #1
 80073fc:	d337      	bcc.n	800746e <memset+0x86>
 80073fe:	f803 2b01 	strb.w	r2, [r3], #1
 8007402:	079d      	lsls	r5, r3, #30
 8007404:	d1f9      	bne.n	80073fa <memset+0x12>
 8007406:	2c03      	cmp	r4, #3
 8007408:	d92a      	bls.n	8007460 <memset+0x78>
 800740a:	b2cd      	uxtb	r5, r1
 800740c:	ea45 2505 	orr.w	r5, r5, r5, lsl #8
 8007410:	2c0f      	cmp	r4, #15
 8007412:	ea45 4505 	orr.w	r5, r5, r5, lsl #16
 8007416:	d934      	bls.n	8007482 <memset+0x9a>
 8007418:	f1a4 0210 	sub.w	r2, r4, #16
 800741c:	f022 0c0f 	bic.w	ip, r2, #15
 8007420:	f103 0720 	add.w	r7, r3, #32
 8007424:	0916      	lsrs	r6, r2, #4
 8007426:	4467      	add	r7, ip
 8007428:	f103 0210 	add.w	r2, r3, #16
 800742c:	e942 5504 	strd	r5, r5, [r2, #-16]
 8007430:	e942 5502 	strd	r5, r5, [r2, #-8]
 8007434:	3210      	adds	r2, #16
 8007436:	42ba      	cmp	r2, r7
 8007438:	d1f8      	bne.n	800742c <memset+0x44>
 800743a:	1c72      	adds	r2, r6, #1
 800743c:	f014 0f0c 	tst.w	r4, #12
 8007440:	eb03 1202 	add.w	r2, r3, r2, lsl #4
 8007444:	f004 060f 	and.w	r6, r4, #15
 8007448:	d013      	beq.n	8007472 <memset+0x8a>
 800744a:	1f33      	subs	r3, r6, #4
 800744c:	f023 0303 	bic.w	r3, r3, #3
 8007450:	3304      	adds	r3, #4
 8007452:	4413      	add	r3, r2
 8007454:	f842 5b04 	str.w	r5, [r2], #4
 8007458:	4293      	cmp	r3, r2
 800745a:	d1fb      	bne.n	8007454 <memset+0x6c>
 800745c:	f006 0403 	and.w	r4, r6, #3
 8007460:	b12c      	cbz	r4, 800746e <memset+0x86>
 8007462:	b2ca      	uxtb	r2, r1
 8007464:	441c      	add	r4, r3
 8007466:	f803 2b01 	strb.w	r2, [r3], #1
 800746a:	429c      	cmp	r4, r3
 800746c:	d1fb      	bne.n	8007466 <memset+0x7e>
 800746e:	bcf0      	pop	{r4, r5, r6, r7}
 8007470:	4770      	bx	lr
 8007472:	4634      	mov	r4, r6
 8007474:	4613      	mov	r3, r2
 8007476:	2c00      	cmp	r4, #0
 8007478:	d1f3      	bne.n	8007462 <memset+0x7a>
 800747a:	e7f8      	b.n	800746e <memset+0x86>
 800747c:	4614      	mov	r4, r2
 800747e:	4603      	mov	r3, r0
 8007480:	e7c1      	b.n	8007406 <memset+0x1e>
 8007482:	461a      	mov	r2, r3
 8007484:	4626      	mov	r6, r4
 8007486:	e7e0      	b.n	800744a <memset+0x62>

08007488 <_realloc_r>:
 8007488:	e92d 4ff8 	stmdb	sp!, {r3, r4, r5, r6, r7, r8, r9, sl, fp, lr}
 800748c:	4617      	mov	r7, r2
 800748e:	2900      	cmp	r1, #0
 8007490:	f000 80bc 	beq.w	800760c <_realloc_r+0x184>
 8007494:	f107 050b 	add.w	r5, r7, #11
 8007498:	460c      	mov	r4, r1
 800749a:	4680      	mov	r8, r0
 800749c:	f7ff fa1a 	bl	80068d4 <__malloc_lock>
 80074a0:	2d16      	cmp	r5, #22
 80074a2:	d85f      	bhi.n	8007564 <_realloc_r+0xdc>
 80074a4:	2510      	movs	r5, #16
 80074a6:	462a      	mov	r2, r5
 80074a8:	42af      	cmp	r7, r5
 80074aa:	d860      	bhi.n	800756e <_realloc_r+0xe6>
 80074ac:	f854 1c04 	ldr.w	r1, [r4, #-4]
 80074b0:	f021 0603 	bic.w	r6, r1, #3
 80074b4:	4296      	cmp	r6, r2
 80074b6:	f1a4 0908 	sub.w	r9, r4, #8
 80074ba:	f280 8086 	bge.w	80075ca <_realloc_r+0x142>
 80074be:	4bc9      	ldr	r3, [pc, #804]	; (80077e4 <_realloc_r+0x35c>)
 80074c0:	f8d3 c008 	ldr.w	ip, [r3, #8]
 80074c4:	eb09 0006 	add.w	r0, r9, r6
 80074c8:	4584      	cmp	ip, r0
 80074ca:	f000 80ba 	beq.w	8007642 <_realloc_r+0x1ba>
 80074ce:	f8d0 c004 	ldr.w	ip, [r0, #4]
 80074d2:	f02c 0301 	bic.w	r3, ip, #1
 80074d6:	4403      	add	r3, r0
 80074d8:	685b      	ldr	r3, [r3, #4]
 80074da:	07db      	lsls	r3, r3, #31
 80074dc:	f100 808b 	bmi.w	80075f6 <_realloc_r+0x16e>
 80074e0:	f02c 0c03 	bic.w	ip, ip, #3
 80074e4:	eb06 030c 	add.w	r3, r6, ip
 80074e8:	4293      	cmp	r3, r2
 80074ea:	f280 8116 	bge.w	800771a <_realloc_r+0x292>
 80074ee:	07cb      	lsls	r3, r1, #31
 80074f0:	d40f      	bmi.n	8007512 <_realloc_r+0x8a>
 80074f2:	f854 3c08 	ldr.w	r3, [r4, #-8]
 80074f6:	eba9 0a03 	sub.w	sl, r9, r3
 80074fa:	f8da 3004 	ldr.w	r3, [sl, #4]
 80074fe:	f023 0103 	bic.w	r1, r3, #3
 8007502:	448c      	add	ip, r1
 8007504:	44b4      	add	ip, r6
 8007506:	4594      	cmp	ip, r2
 8007508:	da38      	bge.n	800757c <_realloc_r+0xf4>
 800750a:	1873      	adds	r3, r6, r1
 800750c:	4293      	cmp	r3, r2
 800750e:	f280 8110 	bge.w	8007732 <_realloc_r+0x2aa>
 8007512:	4639      	mov	r1, r7
 8007514:	4640      	mov	r0, r8
 8007516:	f7fe fe35 	bl	8006184 <_malloc_r>
 800751a:	4607      	mov	r7, r0
 800751c:	b1e0      	cbz	r0, 8007558 <_realloc_r+0xd0>
 800751e:	f854 3c04 	ldr.w	r3, [r4, #-4]
 8007522:	f023 0301 	bic.w	r3, r3, #1
 8007526:	444b      	add	r3, r9
 8007528:	f1a0 0208 	sub.w	r2, r0, #8
 800752c:	4293      	cmp	r3, r2
 800752e:	f000 80fa 	beq.w	8007726 <_realloc_r+0x29e>
 8007532:	1f32      	subs	r2, r6, #4
 8007534:	2a24      	cmp	r2, #36	; 0x24
 8007536:	f200 811d 	bhi.w	8007774 <_realloc_r+0x2ec>
 800753a:	2a13      	cmp	r2, #19
 800753c:	f200 80ce 	bhi.w	80076dc <_realloc_r+0x254>
 8007540:	4603      	mov	r3, r0
 8007542:	4622      	mov	r2, r4
 8007544:	6811      	ldr	r1, [r2, #0]
 8007546:	6019      	str	r1, [r3, #0]
 8007548:	6851      	ldr	r1, [r2, #4]
 800754a:	6059      	str	r1, [r3, #4]
 800754c:	6892      	ldr	r2, [r2, #8]
 800754e:	609a      	str	r2, [r3, #8]
 8007550:	4621      	mov	r1, r4
 8007552:	4640      	mov	r0, r8
 8007554:	f7fe fd0e 	bl	8005f74 <_free_r>
 8007558:	4640      	mov	r0, r8
 800755a:	f7ff f9c1 	bl	80068e0 <__malloc_unlock>
 800755e:	4638      	mov	r0, r7
 8007560:	e8bd 8ff8 	ldmia.w	sp!, {r3, r4, r5, r6, r7, r8, r9, sl, fp, pc}
 8007564:	f025 0507 	bic.w	r5, r5, #7
 8007568:	2d00      	cmp	r5, #0
 800756a:	462a      	mov	r2, r5
 800756c:	da9c      	bge.n	80074a8 <_realloc_r+0x20>
 800756e:	230c      	movs	r3, #12
 8007570:	f8c8 3000 	str.w	r3, [r8]
 8007574:	2700      	movs	r7, #0
 8007576:	4638      	mov	r0, r7
 8007578:	e8bd 8ff8 	ldmia.w	sp!, {r3, r4, r5, r6, r7, r8, r9, sl, fp, pc}
 800757c:	e9d0 2302 	ldrd	r2, r3, [r0, #8]
 8007580:	4657      	mov	r7, sl
 8007582:	60d3      	str	r3, [r2, #12]
 8007584:	609a      	str	r2, [r3, #8]
 8007586:	f857 1f08 	ldr.w	r1, [r7, #8]!
 800758a:	f8da 300c 	ldr.w	r3, [sl, #12]
 800758e:	60cb      	str	r3, [r1, #12]
 8007590:	1f32      	subs	r2, r6, #4
 8007592:	2a24      	cmp	r2, #36	; 0x24
 8007594:	6099      	str	r1, [r3, #8]
 8007596:	f200 8108 	bhi.w	80077aa <_realloc_r+0x322>
 800759a:	2a13      	cmp	r2, #19
 800759c:	f240 8103 	bls.w	80077a6 <_realloc_r+0x31e>
 80075a0:	6823      	ldr	r3, [r4, #0]
 80075a2:	f8ca 3008 	str.w	r3, [sl, #8]
 80075a6:	6863      	ldr	r3, [r4, #4]
 80075a8:	f8ca 300c 	str.w	r3, [sl, #12]
 80075ac:	2a1b      	cmp	r2, #27
 80075ae:	f200 811b 	bhi.w	80077e8 <_realloc_r+0x360>
 80075b2:	3408      	adds	r4, #8
 80075b4:	f10a 0310 	add.w	r3, sl, #16
 80075b8:	6822      	ldr	r2, [r4, #0]
 80075ba:	601a      	str	r2, [r3, #0]
 80075bc:	6862      	ldr	r2, [r4, #4]
 80075be:	605a      	str	r2, [r3, #4]
 80075c0:	68a2      	ldr	r2, [r4, #8]
 80075c2:	609a      	str	r2, [r3, #8]
 80075c4:	4666      	mov	r6, ip
 80075c6:	46d1      	mov	r9, sl
 80075c8:	463c      	mov	r4, r7
 80075ca:	1b73      	subs	r3, r6, r5
 80075cc:	2b0f      	cmp	r3, #15
 80075ce:	d822      	bhi.n	8007616 <_realloc_r+0x18e>
 80075d0:	f8d9 3004 	ldr.w	r3, [r9, #4]
 80075d4:	f003 0301 	and.w	r3, r3, #1
 80075d8:	4333      	orrs	r3, r6
 80075da:	444e      	add	r6, r9
 80075dc:	f8c9 3004 	str.w	r3, [r9, #4]
 80075e0:	6873      	ldr	r3, [r6, #4]
 80075e2:	f043 0301 	orr.w	r3, r3, #1
 80075e6:	6073      	str	r3, [r6, #4]
 80075e8:	4640      	mov	r0, r8
 80075ea:	4627      	mov	r7, r4
 80075ec:	f7ff f978 	bl	80068e0 <__malloc_unlock>
 80075f0:	4638      	mov	r0, r7
 80075f2:	e8bd 8ff8 	ldmia.w	sp!, {r3, r4, r5, r6, r7, r8, r9, sl, fp, pc}
 80075f6:	07c9      	lsls	r1, r1, #31
 80075f8:	d48b      	bmi.n	8007512 <_realloc_r+0x8a>
 80075fa:	f854 3c08 	ldr.w	r3, [r4, #-8]
 80075fe:	eba9 0a03 	sub.w	sl, r9, r3
 8007602:	f8da 1004 	ldr.w	r1, [sl, #4]
 8007606:	f021 0103 	bic.w	r1, r1, #3
 800760a:	e77e      	b.n	800750a <_realloc_r+0x82>
 800760c:	e8bd 4ff8 	ldmia.w	sp!, {r3, r4, r5, r6, r7, r8, r9, sl, fp, lr}
 8007610:	4611      	mov	r1, r2
 8007612:	f7fe bdb7 	b.w	8006184 <_malloc_r>
 8007616:	f8d9 2004 	ldr.w	r2, [r9, #4]
 800761a:	eb09 0105 	add.w	r1, r9, r5
 800761e:	f002 0201 	and.w	r2, r2, #1
 8007622:	444e      	add	r6, r9
 8007624:	f043 0301 	orr.w	r3, r3, #1
 8007628:	4315      	orrs	r5, r2
 800762a:	f8c9 5004 	str.w	r5, [r9, #4]
 800762e:	604b      	str	r3, [r1, #4]
 8007630:	6873      	ldr	r3, [r6, #4]
 8007632:	f043 0301 	orr.w	r3, r3, #1
 8007636:	3108      	adds	r1, #8
 8007638:	6073      	str	r3, [r6, #4]
 800763a:	4640      	mov	r0, r8
 800763c:	f7fe fc9a 	bl	8005f74 <_free_r>
 8007640:	e7d2      	b.n	80075e8 <_realloc_r+0x160>
 8007642:	f8dc 0004 	ldr.w	r0, [ip, #4]
 8007646:	f020 0b03 	bic.w	fp, r0, #3
 800764a:	eb06 0c0b 	add.w	ip, r6, fp
 800764e:	f105 0010 	add.w	r0, r5, #16
 8007652:	4584      	cmp	ip, r0
 8007654:	da4d      	bge.n	80076f2 <_realloc_r+0x26a>
 8007656:	07c9      	lsls	r1, r1, #31
 8007658:	f53f af5b 	bmi.w	8007512 <_realloc_r+0x8a>
 800765c:	f854 1c08 	ldr.w	r1, [r4, #-8]
 8007660:	eba9 0a01 	sub.w	sl, r9, r1
 8007664:	f8da 1004 	ldr.w	r1, [sl, #4]
 8007668:	f021 0103 	bic.w	r1, r1, #3
 800766c:	448b      	add	fp, r1
 800766e:	44b3      	add	fp, r6
 8007670:	4558      	cmp	r0, fp
 8007672:	f73f af4a 	bgt.w	800750a <_realloc_r+0x82>
 8007676:	4657      	mov	r7, sl
 8007678:	f8da 100c 	ldr.w	r1, [sl, #12]
 800767c:	f857 0f08 	ldr.w	r0, [r7, #8]!
 8007680:	1f32      	subs	r2, r6, #4
 8007682:	2a24      	cmp	r2, #36	; 0x24
 8007684:	60c1      	str	r1, [r0, #12]
 8007686:	6088      	str	r0, [r1, #8]
 8007688:	f200 80bc 	bhi.w	8007804 <_realloc_r+0x37c>
 800768c:	2a13      	cmp	r2, #19
 800768e:	f240 80b7 	bls.w	8007800 <_realloc_r+0x378>
 8007692:	6821      	ldr	r1, [r4, #0]
 8007694:	f8ca 1008 	str.w	r1, [sl, #8]
 8007698:	6861      	ldr	r1, [r4, #4]
 800769a:	f8ca 100c 	str.w	r1, [sl, #12]
 800769e:	2a1b      	cmp	r2, #27
 80076a0:	f200 80c0 	bhi.w	8007824 <_realloc_r+0x39c>
 80076a4:	3408      	adds	r4, #8
 80076a6:	f10a 0210 	add.w	r2, sl, #16
 80076aa:	6821      	ldr	r1, [r4, #0]
 80076ac:	6011      	str	r1, [r2, #0]
 80076ae:	6861      	ldr	r1, [r4, #4]
 80076b0:	6051      	str	r1, [r2, #4]
 80076b2:	68a1      	ldr	r1, [r4, #8]
 80076b4:	6091      	str	r1, [r2, #8]
 80076b6:	eb0a 0105 	add.w	r1, sl, r5
 80076ba:	ebab 0205 	sub.w	r2, fp, r5
 80076be:	f042 0201 	orr.w	r2, r2, #1
 80076c2:	6099      	str	r1, [r3, #8]
 80076c4:	604a      	str	r2, [r1, #4]
 80076c6:	f8da 3004 	ldr.w	r3, [sl, #4]
 80076ca:	f003 0301 	and.w	r3, r3, #1
 80076ce:	431d      	orrs	r5, r3
 80076d0:	4640      	mov	r0, r8
 80076d2:	f8ca 5004 	str.w	r5, [sl, #4]
 80076d6:	f7ff f903 	bl	80068e0 <__malloc_unlock>
 80076da:	e74c      	b.n	8007576 <_realloc_r+0xee>
 80076dc:	6823      	ldr	r3, [r4, #0]
 80076de:	6003      	str	r3, [r0, #0]
 80076e0:	6863      	ldr	r3, [r4, #4]
 80076e2:	6043      	str	r3, [r0, #4]
 80076e4:	2a1b      	cmp	r2, #27
 80076e6:	d849      	bhi.n	800777c <_realloc_r+0x2f4>
 80076e8:	f104 0208 	add.w	r2, r4, #8
 80076ec:	f100 0308 	add.w	r3, r0, #8
 80076f0:	e728      	b.n	8007544 <_realloc_r+0xbc>
 80076f2:	eb09 0105 	add.w	r1, r9, r5
 80076f6:	ebac 0205 	sub.w	r2, ip, r5
 80076fa:	f042 0201 	orr.w	r2, r2, #1
 80076fe:	6099      	str	r1, [r3, #8]
 8007700:	604a      	str	r2, [r1, #4]
 8007702:	f854 3c04 	ldr.w	r3, [r4, #-4]
 8007706:	f003 0301 	and.w	r3, r3, #1
 800770a:	431d      	orrs	r5, r3
 800770c:	4640      	mov	r0, r8
 800770e:	f844 5c04 	str.w	r5, [r4, #-4]
 8007712:	f7ff f8e5 	bl	80068e0 <__malloc_unlock>
 8007716:	4627      	mov	r7, r4
 8007718:	e72d      	b.n	8007576 <_realloc_r+0xee>
 800771a:	e9d0 1202 	ldrd	r1, r2, [r0, #8]
 800771e:	461e      	mov	r6, r3
 8007720:	60ca      	str	r2, [r1, #12]
 8007722:	6091      	str	r1, [r2, #8]
 8007724:	e751      	b.n	80075ca <_realloc_r+0x142>
 8007726:	f850 3c04 	ldr.w	r3, [r0, #-4]
 800772a:	f023 0303 	bic.w	r3, r3, #3
 800772e:	441e      	add	r6, r3
 8007730:	e74b      	b.n	80075ca <_realloc_r+0x142>
 8007732:	4657      	mov	r7, sl
 8007734:	f8da 100c 	ldr.w	r1, [sl, #12]
 8007738:	f857 0f08 	ldr.w	r0, [r7, #8]!
 800773c:	1f32      	subs	r2, r6, #4
 800773e:	2a24      	cmp	r2, #36	; 0x24
 8007740:	60c1      	str	r1, [r0, #12]
 8007742:	6088      	str	r0, [r1, #8]
 8007744:	d827      	bhi.n	8007796 <_realloc_r+0x30e>
 8007746:	2a13      	cmp	r2, #19
 8007748:	d923      	bls.n	8007792 <_realloc_r+0x30a>
 800774a:	6821      	ldr	r1, [r4, #0]
 800774c:	f8ca 1008 	str.w	r1, [sl, #8]
 8007750:	6861      	ldr	r1, [r4, #4]
 8007752:	f8ca 100c 	str.w	r1, [sl, #12]
 8007756:	2a1b      	cmp	r2, #27
 8007758:	d82f      	bhi.n	80077ba <_realloc_r+0x332>
 800775a:	3408      	adds	r4, #8
 800775c:	f10a 0210 	add.w	r2, sl, #16
 8007760:	6821      	ldr	r1, [r4, #0]
 8007762:	6011      	str	r1, [r2, #0]
 8007764:	6861      	ldr	r1, [r4, #4]
 8007766:	6051      	str	r1, [r2, #4]
 8007768:	68a1      	ldr	r1, [r4, #8]
 800776a:	6091      	str	r1, [r2, #8]
 800776c:	461e      	mov	r6, r3
 800776e:	46d1      	mov	r9, sl
 8007770:	463c      	mov	r4, r7
 8007772:	e72a      	b.n	80075ca <_realloc_r+0x142>
 8007774:	4621      	mov	r1, r4
 8007776:	f7ff fdcb 	bl	8007310 <memmove>
 800777a:	e6e9      	b.n	8007550 <_realloc_r+0xc8>
 800777c:	68a3      	ldr	r3, [r4, #8]
 800777e:	6083      	str	r3, [r0, #8]
 8007780:	68e3      	ldr	r3, [r4, #12]
 8007782:	60c3      	str	r3, [r0, #12]
 8007784:	2a24      	cmp	r2, #36	; 0x24
 8007786:	d024      	beq.n	80077d2 <_realloc_r+0x34a>
 8007788:	f104 0210 	add.w	r2, r4, #16
 800778c:	f100 0310 	add.w	r3, r0, #16
 8007790:	e6d8      	b.n	8007544 <_realloc_r+0xbc>
 8007792:	463a      	mov	r2, r7
 8007794:	e7e4      	b.n	8007760 <_realloc_r+0x2d8>
 8007796:	4621      	mov	r1, r4
 8007798:	4638      	mov	r0, r7
 800779a:	461e      	mov	r6, r3
 800779c:	46d1      	mov	r9, sl
 800779e:	f7ff fdb7 	bl	8007310 <memmove>
 80077a2:	463c      	mov	r4, r7
 80077a4:	e711      	b.n	80075ca <_realloc_r+0x142>
 80077a6:	463b      	mov	r3, r7
 80077a8:	e706      	b.n	80075b8 <_realloc_r+0x130>
 80077aa:	4621      	mov	r1, r4
 80077ac:	4638      	mov	r0, r7
 80077ae:	4666      	mov	r6, ip
 80077b0:	46d1      	mov	r9, sl
 80077b2:	f7ff fdad 	bl	8007310 <memmove>
 80077b6:	463c      	mov	r4, r7
 80077b8:	e707      	b.n	80075ca <_realloc_r+0x142>
 80077ba:	68a1      	ldr	r1, [r4, #8]
 80077bc:	f8ca 1010 	str.w	r1, [sl, #16]
 80077c0:	68e1      	ldr	r1, [r4, #12]
 80077c2:	f8ca 1014 	str.w	r1, [sl, #20]
 80077c6:	2a24      	cmp	r2, #36	; 0x24
 80077c8:	d022      	beq.n	8007810 <_realloc_r+0x388>
 80077ca:	3410      	adds	r4, #16
 80077cc:	f10a 0218 	add.w	r2, sl, #24
 80077d0:	e7c6      	b.n	8007760 <_realloc_r+0x2d8>
 80077d2:	6923      	ldr	r3, [r4, #16]
 80077d4:	6103      	str	r3, [r0, #16]
 80077d6:	6963      	ldr	r3, [r4, #20]
 80077d8:	6143      	str	r3, [r0, #20]
 80077da:	f104 0218 	add.w	r2, r4, #24
 80077de:	f100 0318 	add.w	r3, r0, #24
 80077e2:	e6af      	b.n	8007544 <_realloc_r+0xbc>
 80077e4:	20000430 	.word	0x20000430
 80077e8:	68a3      	ldr	r3, [r4, #8]
 80077ea:	f8ca 3010 	str.w	r3, [sl, #16]
 80077ee:	68e3      	ldr	r3, [r4, #12]
 80077f0:	f8ca 3014 	str.w	r3, [sl, #20]
 80077f4:	2a24      	cmp	r2, #36	; 0x24
 80077f6:	d021      	beq.n	800783c <_realloc_r+0x3b4>
 80077f8:	3410      	adds	r4, #16
 80077fa:	f10a 0318 	add.w	r3, sl, #24
 80077fe:	e6db      	b.n	80075b8 <_realloc_r+0x130>
 8007800:	463a      	mov	r2, r7
 8007802:	e752      	b.n	80076aa <_realloc_r+0x222>
 8007804:	4621      	mov	r1, r4
 8007806:	4638      	mov	r0, r7
 8007808:	f7ff fd82 	bl	8007310 <memmove>
 800780c:	4b15      	ldr	r3, [pc, #84]	; (8007864 <_realloc_r+0x3dc>)
 800780e:	e752      	b.n	80076b6 <_realloc_r+0x22e>
 8007810:	6922      	ldr	r2, [r4, #16]
 8007812:	f8ca 2018 	str.w	r2, [sl, #24]
 8007816:	6962      	ldr	r2, [r4, #20]
 8007818:	f8ca 201c 	str.w	r2, [sl, #28]
 800781c:	3418      	adds	r4, #24
 800781e:	f10a 0220 	add.w	r2, sl, #32
 8007822:	e79d      	b.n	8007760 <_realloc_r+0x2d8>
 8007824:	68a1      	ldr	r1, [r4, #8]
 8007826:	f8ca 1010 	str.w	r1, [sl, #16]
 800782a:	68e1      	ldr	r1, [r4, #12]
 800782c:	f8ca 1014 	str.w	r1, [sl, #20]
 8007830:	2a24      	cmp	r2, #36	; 0x24
 8007832:	d00d      	beq.n	8007850 <_realloc_r+0x3c8>
 8007834:	3410      	adds	r4, #16
 8007836:	f10a 0218 	add.w	r2, sl, #24
 800783a:	e736      	b.n	80076aa <_realloc_r+0x222>
 800783c:	6923      	ldr	r3, [r4, #16]
 800783e:	f8ca 3018 	str.w	r3, [sl, #24]
 8007842:	6963      	ldr	r3, [r4, #20]
 8007844:	f8ca 301c 	str.w	r3, [sl, #28]
 8007848:	3418      	adds	r4, #24
 800784a:	f10a 0320 	add.w	r3, sl, #32
 800784e:	e6b3      	b.n	80075b8 <_realloc_r+0x130>
 8007850:	6922      	ldr	r2, [r4, #16]
 8007852:	f8ca 2018 	str.w	r2, [sl, #24]
 8007856:	6962      	ldr	r2, [r4, #20]
 8007858:	f8ca 201c 	str.w	r2, [sl, #28]
 800785c:	3418      	adds	r4, #24
 800785e:	f10a 0220 	add.w	r2, sl, #32
 8007862:	e722      	b.n	80076aa <_realloc_r+0x222>
 8007864:	20000430 	.word	0x20000430

08007868 <__ascii_wctomb>:
 8007868:	b149      	cbz	r1, 800787e <__ascii_wctomb+0x16>
 800786a:	2aff      	cmp	r2, #255	; 0xff
 800786c:	d802      	bhi.n	8007874 <__ascii_wctomb+0xc>
 800786e:	700a      	strb	r2, [r1, #0]
 8007870:	2001      	movs	r0, #1
 8007872:	4770      	bx	lr
 8007874:	238a      	movs	r3, #138	; 0x8a
 8007876:	6003      	str	r3, [r0, #0]
 8007878:	f04f 30ff 	mov.w	r0, #4294967295	; 0xffffffff
 800787c:	4770      	bx	lr
 800787e:	4608      	mov	r0, r1
 8007880:	4770      	bx	lr
 8007882:	bf00      	nop

08007884 <__aeabi_drsub>:
 8007884:	f081 4100 	eor.w	r1, r1, #2147483648	; 0x80000000
 8007888:	e002      	b.n	8007890 <__adddf3>
 800788a:	bf00      	nop

0800788c <__aeabi_dsub>:
 800788c:	f083 4300 	eor.w	r3, r3, #2147483648	; 0x80000000

08007890 <__adddf3>:
 8007890:	b530      	push	{r4, r5, lr}
 8007892:	ea4f 0441 	mov.w	r4, r1, lsl #1
 8007896:	ea4f 0543 	mov.w	r5, r3, lsl #1
 800789a:	ea94 0f05 	teq	r4, r5
 800789e:	bf08      	it	eq
 80078a0:	ea90 0f02 	teqeq	r0, r2
 80078a4:	bf1f      	itttt	ne
 80078a6:	ea54 0c00 	orrsne.w	ip, r4, r0
 80078aa:	ea55 0c02 	orrsne.w	ip, r5, r2
 80078ae:	ea7f 5c64 	mvnsne.w	ip, r4, asr #21
 80078b2:	ea7f 5c65 	mvnsne.w	ip, r5, asr #21
 80078b6:	f000 80e2 	beq.w	8007a7e <__adddf3+0x1ee>
 80078ba:	ea4f 5454 	mov.w	r4, r4, lsr #21
 80078be:	ebd4 5555 	rsbs	r5, r4, r5, lsr #21
 80078c2:	bfb8      	it	lt
 80078c4:	426d      	neglt	r5, r5
 80078c6:	dd0c      	ble.n	80078e2 <__adddf3+0x52>
 80078c8:	442c      	add	r4, r5
 80078ca:	ea80 0202 	eor.w	r2, r0, r2
 80078ce:	ea81 0303 	eor.w	r3, r1, r3
 80078d2:	ea82 0000 	eor.w	r0, r2, r0
 80078d6:	ea83 0101 	eor.w	r1, r3, r1
 80078da:	ea80 0202 	eor.w	r2, r0, r2
 80078de:	ea81 0303 	eor.w	r3, r1, r3
 80078e2:	2d36      	cmp	r5, #54	; 0x36
 80078e4:	bf88      	it	hi
 80078e6:	bd30      	pophi	{r4, r5, pc}
 80078e8:	f011 4f00 	tst.w	r1, #2147483648	; 0x80000000
 80078ec:	ea4f 3101 	mov.w	r1, r1, lsl #12
 80078f0:	f44f 1c80 	mov.w	ip, #1048576	; 0x100000
 80078f4:	ea4c 3111 	orr.w	r1, ip, r1, lsr #12
 80078f8:	d002      	beq.n	8007900 <__adddf3+0x70>
 80078fa:	4240      	negs	r0, r0
 80078fc:	eb61 0141 	sbc.w	r1, r1, r1, lsl #1
 8007900:	f013 4f00 	tst.w	r3, #2147483648	; 0x80000000
 8007904:	ea4f 3303 	mov.w	r3, r3, lsl #12
 8007908:	ea4c 3313 	orr.w	r3, ip, r3, lsr #12
 800790c:	d002      	beq.n	8007914 <__adddf3+0x84>
 800790e:	4252      	negs	r2, r2
 8007910:	eb63 0343 	sbc.w	r3, r3, r3, lsl #1
 8007914:	ea94 0f05 	teq	r4, r5
 8007918:	f000 80a7 	beq.w	8007a6a <__adddf3+0x1da>
 800791c:	f1a4 0401 	sub.w	r4, r4, #1
 8007920:	f1d5 0e20 	rsbs	lr, r5, #32
 8007924:	db0d      	blt.n	8007942 <__adddf3+0xb2>
 8007926:	fa02 fc0e 	lsl.w	ip, r2, lr
 800792a:	fa22 f205 	lsr.w	r2, r2, r5
 800792e:	1880      	adds	r0, r0, r2
 8007930:	f141 0100 	adc.w	r1, r1, #0
 8007934:	fa03 f20e 	lsl.w	r2, r3, lr
 8007938:	1880      	adds	r0, r0, r2
 800793a:	fa43 f305 	asr.w	r3, r3, r5
 800793e:	4159      	adcs	r1, r3
 8007940:	e00e      	b.n	8007960 <__adddf3+0xd0>
 8007942:	f1a5 0520 	sub.w	r5, r5, #32
 8007946:	f10e 0e20 	add.w	lr, lr, #32
 800794a:	2a01      	cmp	r2, #1
 800794c:	fa03 fc0e 	lsl.w	ip, r3, lr
 8007950:	bf28      	it	cs
 8007952:	f04c 0c02 	orrcs.w	ip, ip, #2
 8007956:	fa43 f305 	asr.w	r3, r3, r5
 800795a:	18c0      	adds	r0, r0, r3
 800795c:	eb51 71e3 	adcs.w	r1, r1, r3, asr #31
 8007960:	f001 4500 	and.w	r5, r1, #2147483648	; 0x80000000
 8007964:	d507      	bpl.n	8007976 <__adddf3+0xe6>
 8007966:	f04f 0e00 	mov.w	lr, #0
 800796a:	f1dc 0c00 	rsbs	ip, ip, #0
 800796e:	eb7e 0000 	sbcs.w	r0, lr, r0
 8007972:	eb6e 0101 	sbc.w	r1, lr, r1
 8007976:	f5b1 1f80 	cmp.w	r1, #1048576	; 0x100000
 800797a:	d31b      	bcc.n	80079b4 <__adddf3+0x124>
 800797c:	f5b1 1f00 	cmp.w	r1, #2097152	; 0x200000
 8007980:	d30c      	bcc.n	800799c <__adddf3+0x10c>
 8007982:	0849      	lsrs	r1, r1, #1
 8007984:	ea5f 0030 	movs.w	r0, r0, rrx
 8007988:	ea4f 0c3c 	mov.w	ip, ip, rrx
 800798c:	f104 0401 	add.w	r4, r4, #1
 8007990:	ea4f 5244 	mov.w	r2, r4, lsl #21
 8007994:	f512 0f80 	cmn.w	r2, #4194304	; 0x400000
 8007998:	f080 809a 	bcs.w	8007ad0 <__adddf3+0x240>
 800799c:	f1bc 4f00 	cmp.w	ip, #2147483648	; 0x80000000
 80079a0:	bf08      	it	eq
 80079a2:	ea5f 0c50 	movseq.w	ip, r0, lsr #1
 80079a6:	f150 0000 	adcs.w	r0, r0, #0
 80079aa:	eb41 5104 	adc.w	r1, r1, r4, lsl #20
 80079ae:	ea41 0105 	orr.w	r1, r1, r5
 80079b2:	bd30      	pop	{r4, r5, pc}
 80079b4:	ea5f 0c4c 	movs.w	ip, ip, lsl #1
 80079b8:	4140      	adcs	r0, r0
 80079ba:	eb41 0101 	adc.w	r1, r1, r1
 80079be:	3c01      	subs	r4, #1
 80079c0:	bf28      	it	cs
 80079c2:	f5b1 1f80 	cmpcs.w	r1, #1048576	; 0x100000
 80079c6:	d2e9      	bcs.n	800799c <__adddf3+0x10c>
 80079c8:	f091 0f00 	teq	r1, #0
 80079cc:	bf04      	itt	eq
 80079ce:	4601      	moveq	r1, r0
 80079d0:	2000      	moveq	r0, #0
 80079d2:	fab1 f381 	clz	r3, r1
 80079d6:	bf08      	it	eq
 80079d8:	3320      	addeq	r3, #32
 80079da:	f1a3 030b 	sub.w	r3, r3, #11
 80079de:	f1b3 0220 	subs.w	r2, r3, #32
 80079e2:	da0c      	bge.n	80079fe <__adddf3+0x16e>
 80079e4:	320c      	adds	r2, #12
 80079e6:	dd08      	ble.n	80079fa <__adddf3+0x16a>
 80079e8:	f102 0c14 	add.w	ip, r2, #20
 80079ec:	f1c2 020c 	rsb	r2, r2, #12
 80079f0:	fa01 f00c 	lsl.w	r0, r1, ip
 80079f4:	fa21 f102 	lsr.w	r1, r1, r2
 80079f8:	e00c      	b.n	8007a14 <__adddf3+0x184>
 80079fa:	f102 0214 	add.w	r2, r2, #20
 80079fe:	bfd8      	it	le
 8007a00:	f1c2 0c20 	rsble	ip, r2, #32
 8007a04:	fa01 f102 	lsl.w	r1, r1, r2
 8007a08:	fa20 fc0c 	lsr.w	ip, r0, ip
 8007a0c:	bfdc      	itt	le
 8007a0e:	ea41 010c 	orrle.w	r1, r1, ip
 8007a12:	4090      	lslle	r0, r2
 8007a14:	1ae4      	subs	r4, r4, r3
 8007a16:	bfa2      	ittt	ge
 8007a18:	eb01 5104 	addge.w	r1, r1, r4, lsl #20
 8007a1c:	4329      	orrge	r1, r5
 8007a1e:	bd30      	popge	{r4, r5, pc}
 8007a20:	ea6f 0404 	mvn.w	r4, r4
 8007a24:	3c1f      	subs	r4, #31
 8007a26:	da1c      	bge.n	8007a62 <__adddf3+0x1d2>
 8007a28:	340c      	adds	r4, #12
 8007a2a:	dc0e      	bgt.n	8007a4a <__adddf3+0x1ba>
 8007a2c:	f104 0414 	add.w	r4, r4, #20
 8007a30:	f1c4 0220 	rsb	r2, r4, #32
 8007a34:	fa20 f004 	lsr.w	r0, r0, r4
 8007a38:	fa01 f302 	lsl.w	r3, r1, r2
 8007a3c:	ea40 0003 	orr.w	r0, r0, r3
 8007a40:	fa21 f304 	lsr.w	r3, r1, r4
 8007a44:	ea45 0103 	orr.w	r1, r5, r3
 8007a48:	bd30      	pop	{r4, r5, pc}
 8007a4a:	f1c4 040c 	rsb	r4, r4, #12
 8007a4e:	f1c4 0220 	rsb	r2, r4, #32
 8007a52:	fa20 f002 	lsr.w	r0, r0, r2
 8007a56:	fa01 f304 	lsl.w	r3, r1, r4
 8007a5a:	ea40 0003 	orr.w	r0, r0, r3
 8007a5e:	4629      	mov	r1, r5
 8007a60:	bd30      	pop	{r4, r5, pc}
 8007a62:	fa21 f004 	lsr.w	r0, r1, r4
 8007a66:	4629      	mov	r1, r5
 8007a68:	bd30      	pop	{r4, r5, pc}
 8007a6a:	f094 0f00 	teq	r4, #0
 8007a6e:	f483 1380 	eor.w	r3, r3, #1048576	; 0x100000
 8007a72:	bf06      	itte	eq
 8007a74:	f481 1180 	eoreq.w	r1, r1, #1048576	; 0x100000
 8007a78:	3401      	addeq	r4, #1
 8007a7a:	3d01      	subne	r5, #1
 8007a7c:	e74e      	b.n	800791c <__adddf3+0x8c>
 8007a7e:	ea7f 5c64 	mvns.w	ip, r4, asr #21
 8007a82:	bf18      	it	ne
 8007a84:	ea7f 5c65 	mvnsne.w	ip, r5, asr #21
 8007a88:	d029      	beq.n	8007ade <__adddf3+0x24e>
 8007a8a:	ea94 0f05 	teq	r4, r5
 8007a8e:	bf08      	it	eq
 8007a90:	ea90 0f02 	teqeq	r0, r2
 8007a94:	d005      	beq.n	8007aa2 <__adddf3+0x212>
 8007a96:	ea54 0c00 	orrs.w	ip, r4, r0
 8007a9a:	bf04      	itt	eq
 8007a9c:	4619      	moveq	r1, r3
 8007a9e:	4610      	moveq	r0, r2
 8007aa0:	bd30      	pop	{r4, r5, pc}
 8007aa2:	ea91 0f03 	teq	r1, r3
 8007aa6:	bf1e      	ittt	ne
 8007aa8:	2100      	movne	r1, #0
 8007aaa:	2000      	movne	r0, #0
 8007aac:	bd30      	popne	{r4, r5, pc}
 8007aae:	ea5f 5c54 	movs.w	ip, r4, lsr #21
 8007ab2:	d105      	bne.n	8007ac0 <__adddf3+0x230>
 8007ab4:	0040      	lsls	r0, r0, #1
 8007ab6:	4149      	adcs	r1, r1
 8007ab8:	bf28      	it	cs
 8007aba:	f041 4100 	orrcs.w	r1, r1, #2147483648	; 0x80000000
 8007abe:	bd30      	pop	{r4, r5, pc}
 8007ac0:	f514 0480 	adds.w	r4, r4, #4194304	; 0x400000
 8007ac4:	bf3c      	itt	cc
 8007ac6:	f501 1180 	addcc.w	r1, r1, #1048576	; 0x100000
 8007aca:	bd30      	popcc	{r4, r5, pc}
 8007acc:	f001 4500 	and.w	r5, r1, #2147483648	; 0x80000000
 8007ad0:	f045 41fe 	orr.w	r1, r5, #2130706432	; 0x7f000000
 8007ad4:	f441 0170 	orr.w	r1, r1, #15728640	; 0xf00000
 8007ad8:	f04f 0000 	mov.w	r0, #0
 8007adc:	bd30      	pop	{r4, r5, pc}
 8007ade:	ea7f 5c64 	mvns.w	ip, r4, asr #21
 8007ae2:	bf1a      	itte	ne
 8007ae4:	4619      	movne	r1, r3
 8007ae6:	4610      	movne	r0, r2
 8007ae8:	ea7f 5c65 	mvnseq.w	ip, r5, asr #21
 8007aec:	bf1c      	itt	ne
 8007aee:	460b      	movne	r3, r1
 8007af0:	4602      	movne	r2, r0
 8007af2:	ea50 3401 	orrs.w	r4, r0, r1, lsl #12
 8007af6:	bf06      	itte	eq
 8007af8:	ea52 3503 	orrseq.w	r5, r2, r3, lsl #12
 8007afc:	ea91 0f03 	teqeq	r1, r3
 8007b00:	f441 2100 	orrne.w	r1, r1, #524288	; 0x80000
 8007b04:	bd30      	pop	{r4, r5, pc}
 8007b06:	bf00      	nop

08007b08 <__aeabi_ui2d>:
 8007b08:	f090 0f00 	teq	r0, #0
 8007b0c:	bf04      	itt	eq
 8007b0e:	2100      	moveq	r1, #0
 8007b10:	4770      	bxeq	lr
 8007b12:	b530      	push	{r4, r5, lr}
 8007b14:	f44f 6480 	mov.w	r4, #1024	; 0x400
 8007b18:	f104 0432 	add.w	r4, r4, #50	; 0x32
 8007b1c:	f04f 0500 	mov.w	r5, #0
 8007b20:	f04f 0100 	mov.w	r1, #0
 8007b24:	e750      	b.n	80079c8 <__adddf3+0x138>
 8007b26:	bf00      	nop

08007b28 <__aeabi_i2d>:
 8007b28:	f090 0f00 	teq	r0, #0
 8007b2c:	bf04      	itt	eq
 8007b2e:	2100      	moveq	r1, #0
 8007b30:	4770      	bxeq	lr
 8007b32:	b530      	push	{r4, r5, lr}
 8007b34:	f44f 6480 	mov.w	r4, #1024	; 0x400
 8007b38:	f104 0432 	add.w	r4, r4, #50	; 0x32
 8007b3c:	f010 4500 	ands.w	r5, r0, #2147483648	; 0x80000000
 8007b40:	bf48      	it	mi
 8007b42:	4240      	negmi	r0, r0
 8007b44:	f04f 0100 	mov.w	r1, #0
 8007b48:	e73e      	b.n	80079c8 <__adddf3+0x138>
 8007b4a:	bf00      	nop

08007b4c <__aeabi_f2d>:
 8007b4c:	0042      	lsls	r2, r0, #1
 8007b4e:	ea4f 01e2 	mov.w	r1, r2, asr #3
 8007b52:	ea4f 0131 	mov.w	r1, r1, rrx
 8007b56:	ea4f 7002 	mov.w	r0, r2, lsl #28
 8007b5a:	bf1f      	itttt	ne
 8007b5c:	f012 437f 	andsne.w	r3, r2, #4278190080	; 0xff000000
 8007b60:	f093 4f7f 	teqne	r3, #4278190080	; 0xff000000
 8007b64:	f081 5160 	eorne.w	r1, r1, #939524096	; 0x38000000
 8007b68:	4770      	bxne	lr
 8007b6a:	f032 427f 	bics.w	r2, r2, #4278190080	; 0xff000000
 8007b6e:	bf08      	it	eq
 8007b70:	4770      	bxeq	lr
 8007b72:	f093 4f7f 	teq	r3, #4278190080	; 0xff000000
 8007b76:	bf04      	itt	eq
 8007b78:	f441 2100 	orreq.w	r1, r1, #524288	; 0x80000
 8007b7c:	4770      	bxeq	lr
 8007b7e:	b530      	push	{r4, r5, lr}
 8007b80:	f44f 7460 	mov.w	r4, #896	; 0x380
 8007b84:	f001 4500 	and.w	r5, r1, #2147483648	; 0x80000000
 8007b88:	f021 4100 	bic.w	r1, r1, #2147483648	; 0x80000000
 8007b8c:	e71c      	b.n	80079c8 <__adddf3+0x138>
 8007b8e:	bf00      	nop

08007b90 <__aeabi_ul2d>:
 8007b90:	ea50 0201 	orrs.w	r2, r0, r1
 8007b94:	bf08      	it	eq
 8007b96:	4770      	bxeq	lr
 8007b98:	b530      	push	{r4, r5, lr}
 8007b9a:	f04f 0500 	mov.w	r5, #0
 8007b9e:	e00a      	b.n	8007bb6 <__aeabi_l2d+0x16>

08007ba0 <__aeabi_l2d>:
 8007ba0:	ea50 0201 	orrs.w	r2, r0, r1
 8007ba4:	bf08      	it	eq
 8007ba6:	4770      	bxeq	lr
 8007ba8:	b530      	push	{r4, r5, lr}
 8007baa:	f011 4500 	ands.w	r5, r1, #2147483648	; 0x80000000
 8007bae:	d502      	bpl.n	8007bb6 <__aeabi_l2d+0x16>
 8007bb0:	4240      	negs	r0, r0
 8007bb2:	eb61 0141 	sbc.w	r1, r1, r1, lsl #1
 8007bb6:	f44f 6480 	mov.w	r4, #1024	; 0x400
 8007bba:	f104 0432 	add.w	r4, r4, #50	; 0x32
 8007bbe:	ea5f 5c91 	movs.w	ip, r1, lsr #22
 8007bc2:	f43f aed8 	beq.w	8007976 <__adddf3+0xe6>
 8007bc6:	f04f 0203 	mov.w	r2, #3
 8007bca:	ea5f 0cdc 	movs.w	ip, ip, lsr #3
 8007bce:	bf18      	it	ne
 8007bd0:	3203      	addne	r2, #3
 8007bd2:	ea5f 0cdc 	movs.w	ip, ip, lsr #3
 8007bd6:	bf18      	it	ne
 8007bd8:	3203      	addne	r2, #3
 8007bda:	eb02 02dc 	add.w	r2, r2, ip, lsr #3
 8007bde:	f1c2 0320 	rsb	r3, r2, #32
 8007be2:	fa00 fc03 	lsl.w	ip, r0, r3
 8007be6:	fa20 f002 	lsr.w	r0, r0, r2
 8007bea:	fa01 fe03 	lsl.w	lr, r1, r3
 8007bee:	ea40 000e 	orr.w	r0, r0, lr
 8007bf2:	fa21 f102 	lsr.w	r1, r1, r2
 8007bf6:	4414      	add	r4, r2
 8007bf8:	e6bd      	b.n	8007976 <__adddf3+0xe6>
 8007bfa:	bf00      	nop

08007bfc <__aeabi_dmul>:
 8007bfc:	b570      	push	{r4, r5, r6, lr}
 8007bfe:	f04f 0cff 	mov.w	ip, #255	; 0xff
 8007c02:	f44c 6ce0 	orr.w	ip, ip, #1792	; 0x700
 8007c06:	ea1c 5411 	ands.w	r4, ip, r1, lsr #20
 8007c0a:	bf1d      	ittte	ne
 8007c0c:	ea1c 5513 	andsne.w	r5, ip, r3, lsr #20
 8007c10:	ea94 0f0c 	teqne	r4, ip
 8007c14:	ea95 0f0c 	teqne	r5, ip
 8007c18:	f000 f8de 	bleq	8007dd8 <__aeabi_dmul+0x1dc>
 8007c1c:	442c      	add	r4, r5
 8007c1e:	ea81 0603 	eor.w	r6, r1, r3
 8007c22:	ea21 514c 	bic.w	r1, r1, ip, lsl #21
 8007c26:	ea23 534c 	bic.w	r3, r3, ip, lsl #21
 8007c2a:	ea50 3501 	orrs.w	r5, r0, r1, lsl #12
 8007c2e:	bf18      	it	ne
 8007c30:	ea52 3503 	orrsne.w	r5, r2, r3, lsl #12
 8007c34:	f441 1180 	orr.w	r1, r1, #1048576	; 0x100000
 8007c38:	f443 1380 	orr.w	r3, r3, #1048576	; 0x100000
 8007c3c:	d038      	beq.n	8007cb0 <__aeabi_dmul+0xb4>
 8007c3e:	fba0 ce02 	umull	ip, lr, r0, r2
 8007c42:	f04f 0500 	mov.w	r5, #0
 8007c46:	fbe1 e502 	umlal	lr, r5, r1, r2
 8007c4a:	f006 4200 	and.w	r2, r6, #2147483648	; 0x80000000
 8007c4e:	fbe0 e503 	umlal	lr, r5, r0, r3
 8007c52:	f04f 0600 	mov.w	r6, #0
 8007c56:	fbe1 5603 	umlal	r5, r6, r1, r3
 8007c5a:	f09c 0f00 	teq	ip, #0
 8007c5e:	bf18      	it	ne
 8007c60:	f04e 0e01 	orrne.w	lr, lr, #1
 8007c64:	f1a4 04ff 	sub.w	r4, r4, #255	; 0xff
 8007c68:	f5b6 7f00 	cmp.w	r6, #512	; 0x200
 8007c6c:	f564 7440 	sbc.w	r4, r4, #768	; 0x300
 8007c70:	d204      	bcs.n	8007c7c <__aeabi_dmul+0x80>
 8007c72:	ea5f 0e4e 	movs.w	lr, lr, lsl #1
 8007c76:	416d      	adcs	r5, r5
 8007c78:	eb46 0606 	adc.w	r6, r6, r6
 8007c7c:	ea42 21c6 	orr.w	r1, r2, r6, lsl #11
 8007c80:	ea41 5155 	orr.w	r1, r1, r5, lsr #21
 8007c84:	ea4f 20c5 	mov.w	r0, r5, lsl #11
 8007c88:	ea40 505e 	orr.w	r0, r0, lr, lsr #21
 8007c8c:	ea4f 2ece 	mov.w	lr, lr, lsl #11
 8007c90:	f1b4 0cfd 	subs.w	ip, r4, #253	; 0xfd
 8007c94:	bf88      	it	hi
 8007c96:	f5bc 6fe0 	cmphi.w	ip, #1792	; 0x700
 8007c9a:	d81e      	bhi.n	8007cda <__aeabi_dmul+0xde>
 8007c9c:	f1be 4f00 	cmp.w	lr, #2147483648	; 0x80000000
 8007ca0:	bf08      	it	eq
 8007ca2:	ea5f 0e50 	movseq.w	lr, r0, lsr #1
 8007ca6:	f150 0000 	adcs.w	r0, r0, #0
 8007caa:	eb41 5104 	adc.w	r1, r1, r4, lsl #20
 8007cae:	bd70      	pop	{r4, r5, r6, pc}
 8007cb0:	f006 4600 	and.w	r6, r6, #2147483648	; 0x80000000
 8007cb4:	ea46 0101 	orr.w	r1, r6, r1
 8007cb8:	ea40 0002 	orr.w	r0, r0, r2
 8007cbc:	ea81 0103 	eor.w	r1, r1, r3
 8007cc0:	ebb4 045c 	subs.w	r4, r4, ip, lsr #1
 8007cc4:	bfc2      	ittt	gt
 8007cc6:	ebd4 050c 	rsbsgt	r5, r4, ip
 8007cca:	ea41 5104 	orrgt.w	r1, r1, r4, lsl #20
 8007cce:	bd70      	popgt	{r4, r5, r6, pc}
 8007cd0:	f441 1180 	orr.w	r1, r1, #1048576	; 0x100000
 8007cd4:	f04f 0e00 	mov.w	lr, #0
 8007cd8:	3c01      	subs	r4, #1
 8007cda:	f300 80ab 	bgt.w	8007e34 <__aeabi_dmul+0x238>
 8007cde:	f114 0f36 	cmn.w	r4, #54	; 0x36
 8007ce2:	bfde      	ittt	le
 8007ce4:	2000      	movle	r0, #0
 8007ce6:	f001 4100 	andle.w	r1, r1, #2147483648	; 0x80000000
 8007cea:	bd70      	pople	{r4, r5, r6, pc}
 8007cec:	f1c4 0400 	rsb	r4, r4, #0
 8007cf0:	3c20      	subs	r4, #32
 8007cf2:	da35      	bge.n	8007d60 <__aeabi_dmul+0x164>
 8007cf4:	340c      	adds	r4, #12
 8007cf6:	dc1b      	bgt.n	8007d30 <__aeabi_dmul+0x134>
 8007cf8:	f104 0414 	add.w	r4, r4, #20
 8007cfc:	f1c4 0520 	rsb	r5, r4, #32
 8007d00:	fa00 f305 	lsl.w	r3, r0, r5
 8007d04:	fa20 f004 	lsr.w	r0, r0, r4
 8007d08:	fa01 f205 	lsl.w	r2, r1, r5
 8007d0c:	ea40 0002 	orr.w	r0, r0, r2
 8007d10:	f001 4200 	and.w	r2, r1, #2147483648	; 0x80000000
 8007d14:	f021 4100 	bic.w	r1, r1, #2147483648	; 0x80000000
 8007d18:	eb10 70d3 	adds.w	r0, r0, r3, lsr #31
 8007d1c:	fa21 f604 	lsr.w	r6, r1, r4
 8007d20:	eb42 0106 	adc.w	r1, r2, r6
 8007d24:	ea5e 0e43 	orrs.w	lr, lr, r3, lsl #1
 8007d28:	bf08      	it	eq
 8007d2a:	ea20 70d3 	biceq.w	r0, r0, r3, lsr #31
 8007d2e:	bd70      	pop	{r4, r5, r6, pc}
 8007d30:	f1c4 040c 	rsb	r4, r4, #12
 8007d34:	f1c4 0520 	rsb	r5, r4, #32
 8007d38:	fa00 f304 	lsl.w	r3, r0, r4
 8007d3c:	fa20 f005 	lsr.w	r0, r0, r5
 8007d40:	fa01 f204 	lsl.w	r2, r1, r4
 8007d44:	ea40 0002 	orr.w	r0, r0, r2
 8007d48:	f001 4100 	and.w	r1, r1, #2147483648	; 0x80000000
 8007d4c:	eb10 70d3 	adds.w	r0, r0, r3, lsr #31
 8007d50:	f141 0100 	adc.w	r1, r1, #0
 8007d54:	ea5e 0e43 	orrs.w	lr, lr, r3, lsl #1
 8007d58:	bf08      	it	eq
 8007d5a:	ea20 70d3 	biceq.w	r0, r0, r3, lsr #31
 8007d5e:	bd70      	pop	{r4, r5, r6, pc}
 8007d60:	f1c4 0520 	rsb	r5, r4, #32
 8007d64:	fa00 f205 	lsl.w	r2, r0, r5
 8007d68:	ea4e 0e02 	orr.w	lr, lr, r2
 8007d6c:	fa20 f304 	lsr.w	r3, r0, r4
 8007d70:	fa01 f205 	lsl.w	r2, r1, r5
 8007d74:	ea43 0302 	orr.w	r3, r3, r2
 8007d78:	fa21 f004 	lsr.w	r0, r1, r4
 8007d7c:	f001 4100 	and.w	r1, r1, #2147483648	; 0x80000000
 8007d80:	fa21 f204 	lsr.w	r2, r1, r4
 8007d84:	ea20 0002 	bic.w	r0, r0, r2
 8007d88:	eb00 70d3 	add.w	r0, r0, r3, lsr #31
 8007d8c:	ea5e 0e43 	orrs.w	lr, lr, r3, lsl #1
 8007d90:	bf08      	it	eq
 8007d92:	ea20 70d3 	biceq.w	r0, r0, r3, lsr #31
 8007d96:	bd70      	pop	{r4, r5, r6, pc}
 8007d98:	f094 0f00 	teq	r4, #0
 8007d9c:	d10f      	bne.n	8007dbe <__aeabi_dmul+0x1c2>
 8007d9e:	f001 4600 	and.w	r6, r1, #2147483648	; 0x80000000
 8007da2:	0040      	lsls	r0, r0, #1
 8007da4:	eb41 0101 	adc.w	r1, r1, r1
 8007da8:	f411 1f80 	tst.w	r1, #1048576	; 0x100000
 8007dac:	bf08      	it	eq
 8007dae:	3c01      	subeq	r4, #1
 8007db0:	d0f7      	beq.n	8007da2 <__aeabi_dmul+0x1a6>
 8007db2:	ea41 0106 	orr.w	r1, r1, r6
 8007db6:	f095 0f00 	teq	r5, #0
 8007dba:	bf18      	it	ne
 8007dbc:	4770      	bxne	lr
 8007dbe:	f003 4600 	and.w	r6, r3, #2147483648	; 0x80000000
 8007dc2:	0052      	lsls	r2, r2, #1
 8007dc4:	eb43 0303 	adc.w	r3, r3, r3
 8007dc8:	f413 1f80 	tst.w	r3, #1048576	; 0x100000
 8007dcc:	bf08      	it	eq
 8007dce:	3d01      	subeq	r5, #1
 8007dd0:	d0f7      	beq.n	8007dc2 <__aeabi_dmul+0x1c6>
 8007dd2:	ea43 0306 	orr.w	r3, r3, r6
 8007dd6:	4770      	bx	lr
 8007dd8:	ea94 0f0c 	teq	r4, ip
 8007ddc:	ea0c 5513 	and.w	r5, ip, r3, lsr #20
 8007de0:	bf18      	it	ne
 8007de2:	ea95 0f0c 	teqne	r5, ip
 8007de6:	d00c      	beq.n	8007e02 <__aeabi_dmul+0x206>
 8007de8:	ea50 0641 	orrs.w	r6, r0, r1, lsl #1
 8007dec:	bf18      	it	ne
 8007dee:	ea52 0643 	orrsne.w	r6, r2, r3, lsl #1
 8007df2:	d1d1      	bne.n	8007d98 <__aeabi_dmul+0x19c>
 8007df4:	ea81 0103 	eor.w	r1, r1, r3
 8007df8:	f001 4100 	and.w	r1, r1, #2147483648	; 0x80000000
 8007dfc:	f04f 0000 	mov.w	r0, #0
 8007e00:	bd70      	pop	{r4, r5, r6, pc}
 8007e02:	ea50 0641 	orrs.w	r6, r0, r1, lsl #1
 8007e06:	bf06      	itte	eq
 8007e08:	4610      	moveq	r0, r2
 8007e0a:	4619      	moveq	r1, r3
 8007e0c:	ea52 0643 	orrsne.w	r6, r2, r3, lsl #1
 8007e10:	d019      	beq.n	8007e46 <__aeabi_dmul+0x24a>
 8007e12:	ea94 0f0c 	teq	r4, ip
 8007e16:	d102      	bne.n	8007e1e <__aeabi_dmul+0x222>
 8007e18:	ea50 3601 	orrs.w	r6, r0, r1, lsl #12
 8007e1c:	d113      	bne.n	8007e46 <__aeabi_dmul+0x24a>
 8007e1e:	ea95 0f0c 	teq	r5, ip
 8007e22:	d105      	bne.n	8007e30 <__aeabi_dmul+0x234>
 8007e24:	ea52 3603 	orrs.w	r6, r2, r3, lsl #12
 8007e28:	bf1c      	itt	ne
 8007e2a:	4610      	movne	r0, r2
 8007e2c:	4619      	movne	r1, r3
 8007e2e:	d10a      	bne.n	8007e46 <__aeabi_dmul+0x24a>
 8007e30:	ea81 0103 	eor.w	r1, r1, r3
 8007e34:	f001 4100 	and.w	r1, r1, #2147483648	; 0x80000000
 8007e38:	f041 41fe 	orr.w	r1, r1, #2130706432	; 0x7f000000
 8007e3c:	f441 0170 	orr.w	r1, r1, #15728640	; 0xf00000
 8007e40:	f04f 0000 	mov.w	r0, #0
 8007e44:	bd70      	pop	{r4, r5, r6, pc}
 8007e46:	f041 41fe 	orr.w	r1, r1, #2130706432	; 0x7f000000
 8007e4a:	f441 0178 	orr.w	r1, r1, #16252928	; 0xf80000
 8007e4e:	bd70      	pop	{r4, r5, r6, pc}

08007e50 <__aeabi_ddiv>:
 8007e50:	b570      	push	{r4, r5, r6, lr}
 8007e52:	f04f 0cff 	mov.w	ip, #255	; 0xff
 8007e56:	f44c 6ce0 	orr.w	ip, ip, #1792	; 0x700
 8007e5a:	ea1c 5411 	ands.w	r4, ip, r1, lsr #20
 8007e5e:	bf1d      	ittte	ne
 8007e60:	ea1c 5513 	andsne.w	r5, ip, r3, lsr #20
 8007e64:	ea94 0f0c 	teqne	r4, ip
 8007e68:	ea95 0f0c 	teqne	r5, ip
 8007e6c:	f000 f8a7 	bleq	8007fbe <__aeabi_ddiv+0x16e>
 8007e70:	eba4 0405 	sub.w	r4, r4, r5
 8007e74:	ea81 0e03 	eor.w	lr, r1, r3
 8007e78:	ea52 3503 	orrs.w	r5, r2, r3, lsl #12
 8007e7c:	ea4f 3101 	mov.w	r1, r1, lsl #12
 8007e80:	f000 8088 	beq.w	8007f94 <__aeabi_ddiv+0x144>
 8007e84:	ea4f 3303 	mov.w	r3, r3, lsl #12
 8007e88:	f04f 5580 	mov.w	r5, #268435456	; 0x10000000
 8007e8c:	ea45 1313 	orr.w	r3, r5, r3, lsr #4
 8007e90:	ea43 6312 	orr.w	r3, r3, r2, lsr #24
 8007e94:	ea4f 2202 	mov.w	r2, r2, lsl #8
 8007e98:	ea45 1511 	orr.w	r5, r5, r1, lsr #4
 8007e9c:	ea45 6510 	orr.w	r5, r5, r0, lsr #24
 8007ea0:	ea4f 2600 	mov.w	r6, r0, lsl #8
 8007ea4:	f00e 4100 	and.w	r1, lr, #2147483648	; 0x80000000
 8007ea8:	429d      	cmp	r5, r3
 8007eaa:	bf08      	it	eq
 8007eac:	4296      	cmpeq	r6, r2
 8007eae:	f144 04fd 	adc.w	r4, r4, #253	; 0xfd
 8007eb2:	f504 7440 	add.w	r4, r4, #768	; 0x300
 8007eb6:	d202      	bcs.n	8007ebe <__aeabi_ddiv+0x6e>
 8007eb8:	085b      	lsrs	r3, r3, #1
 8007eba:	ea4f 0232 	mov.w	r2, r2, rrx
 8007ebe:	1ab6      	subs	r6, r6, r2
 8007ec0:	eb65 0503 	sbc.w	r5, r5, r3
 8007ec4:	085b      	lsrs	r3, r3, #1
 8007ec6:	ea4f 0232 	mov.w	r2, r2, rrx
 8007eca:	f44f 1080 	mov.w	r0, #1048576	; 0x100000
 8007ece:	f44f 2c00 	mov.w	ip, #524288	; 0x80000
 8007ed2:	ebb6 0e02 	subs.w	lr, r6, r2
 8007ed6:	eb75 0e03 	sbcs.w	lr, r5, r3
 8007eda:	bf22      	ittt	cs
 8007edc:	1ab6      	subcs	r6, r6, r2
 8007ede:	4675      	movcs	r5, lr
 8007ee0:	ea40 000c 	orrcs.w	r0, r0, ip
 8007ee4:	085b      	lsrs	r3, r3, #1
 8007ee6:	ea4f 0232 	mov.w	r2, r2, rrx
 8007eea:	ebb6 0e02 	subs.w	lr, r6, r2
 8007eee:	eb75 0e03 	sbcs.w	lr, r5, r3
 8007ef2:	bf22      	ittt	cs
 8007ef4:	1ab6      	subcs	r6, r6, r2
 8007ef6:	4675      	movcs	r5, lr
 8007ef8:	ea40 005c 	orrcs.w	r0, r0, ip, lsr #1
 8007efc:	085b      	lsrs	r3, r3, #1
 8007efe:	ea4f 0232 	mov.w	r2, r2, rrx
 8007f02:	ebb6 0e02 	subs.w	lr, r6, r2
 8007f06:	eb75 0e03 	sbcs.w	lr, r5, r3
 8007f0a:	bf22      	ittt	cs
 8007f0c:	1ab6      	subcs	r6, r6, r2
 8007f0e:	4675      	movcs	r5, lr
 8007f10:	ea40 009c 	orrcs.w	r0, r0, ip, lsr #2
 8007f14:	085b      	lsrs	r3, r3, #1
 8007f16:	ea4f 0232 	mov.w	r2, r2, rrx
 8007f1a:	ebb6 0e02 	subs.w	lr, r6, r2
 8007f1e:	eb75 0e03 	sbcs.w	lr, r5, r3
 8007f22:	bf22      	ittt	cs
 8007f24:	1ab6      	subcs	r6, r6, r2
 8007f26:	4675      	movcs	r5, lr
 8007f28:	ea40 00dc 	orrcs.w	r0, r0, ip, lsr #3
 8007f2c:	ea55 0e06 	orrs.w	lr, r5, r6
 8007f30:	d018      	beq.n	8007f64 <__aeabi_ddiv+0x114>
 8007f32:	ea4f 1505 	mov.w	r5, r5, lsl #4
 8007f36:	ea45 7516 	orr.w	r5, r5, r6, lsr #28
 8007f3a:	ea4f 1606 	mov.w	r6, r6, lsl #4
 8007f3e:	ea4f 03c3 	mov.w	r3, r3, lsl #3
 8007f42:	ea43 7352 	orr.w	r3, r3, r2, lsr #29
 8007f46:	ea4f 02c2 	mov.w	r2, r2, lsl #3
 8007f4a:	ea5f 1c1c 	movs.w	ip, ip, lsr #4
 8007f4e:	d1c0      	bne.n	8007ed2 <__aeabi_ddiv+0x82>
 8007f50:	f411 1f80 	tst.w	r1, #1048576	; 0x100000
 8007f54:	d10b      	bne.n	8007f6e <__aeabi_ddiv+0x11e>
 8007f56:	ea41 0100 	orr.w	r1, r1, r0
 8007f5a:	f04f 0000 	mov.w	r0, #0
 8007f5e:	f04f 4c00 	mov.w	ip, #2147483648	; 0x80000000
 8007f62:	e7b6      	b.n	8007ed2 <__aeabi_ddiv+0x82>
 8007f64:	f411 1f80 	tst.w	r1, #1048576	; 0x100000
 8007f68:	bf04      	itt	eq
 8007f6a:	4301      	orreq	r1, r0
 8007f6c:	2000      	moveq	r0, #0
 8007f6e:	f1b4 0cfd 	subs.w	ip, r4, #253	; 0xfd
 8007f72:	bf88      	it	hi
 8007f74:	f5bc 6fe0 	cmphi.w	ip, #1792	; 0x700
 8007f78:	f63f aeaf 	bhi.w	8007cda <__aeabi_dmul+0xde>
 8007f7c:	ebb5 0c03 	subs.w	ip, r5, r3
 8007f80:	bf04      	itt	eq
 8007f82:	ebb6 0c02 	subseq.w	ip, r6, r2
 8007f86:	ea5f 0c50 	movseq.w	ip, r0, lsr #1
 8007f8a:	f150 0000 	adcs.w	r0, r0, #0
 8007f8e:	eb41 5104 	adc.w	r1, r1, r4, lsl #20
 8007f92:	bd70      	pop	{r4, r5, r6, pc}
 8007f94:	f00e 4e00 	and.w	lr, lr, #2147483648	; 0x80000000
 8007f98:	ea4e 3111 	orr.w	r1, lr, r1, lsr #12
 8007f9c:	eb14 045c 	adds.w	r4, r4, ip, lsr #1
 8007fa0:	bfc2      	ittt	gt
 8007fa2:	ebd4 050c 	rsbsgt	r5, r4, ip
 8007fa6:	ea41 5104 	orrgt.w	r1, r1, r4, lsl #20
 8007faa:	bd70      	popgt	{r4, r5, r6, pc}
 8007fac:	f441 1180 	orr.w	r1, r1, #1048576	; 0x100000
 8007fb0:	f04f 0e00 	mov.w	lr, #0
 8007fb4:	3c01      	subs	r4, #1
 8007fb6:	e690      	b.n	8007cda <__aeabi_dmul+0xde>
 8007fb8:	ea45 0e06 	orr.w	lr, r5, r6
 8007fbc:	e68d      	b.n	8007cda <__aeabi_dmul+0xde>
 8007fbe:	ea0c 5513 	and.w	r5, ip, r3, lsr #20
 8007fc2:	ea94 0f0c 	teq	r4, ip
 8007fc6:	bf08      	it	eq
 8007fc8:	ea95 0f0c 	teqeq	r5, ip
 8007fcc:	f43f af3b 	beq.w	8007e46 <__aeabi_dmul+0x24a>
 8007fd0:	ea94 0f0c 	teq	r4, ip
 8007fd4:	d10a      	bne.n	8007fec <__aeabi_ddiv+0x19c>
 8007fd6:	ea50 3401 	orrs.w	r4, r0, r1, lsl #12
 8007fda:	f47f af34 	bne.w	8007e46 <__aeabi_dmul+0x24a>
 8007fde:	ea95 0f0c 	teq	r5, ip
 8007fe2:	f47f af25 	bne.w	8007e30 <__aeabi_dmul+0x234>
 8007fe6:	4610      	mov	r0, r2
 8007fe8:	4619      	mov	r1, r3
 8007fea:	e72c      	b.n	8007e46 <__aeabi_dmul+0x24a>
 8007fec:	ea95 0f0c 	teq	r5, ip
 8007ff0:	d106      	bne.n	8008000 <__aeabi_ddiv+0x1b0>
 8007ff2:	ea52 3503 	orrs.w	r5, r2, r3, lsl #12
 8007ff6:	f43f aefd 	beq.w	8007df4 <__aeabi_dmul+0x1f8>
 8007ffa:	4610      	mov	r0, r2
 8007ffc:	4619      	mov	r1, r3
 8007ffe:	e722      	b.n	8007e46 <__aeabi_dmul+0x24a>
 8008000:	ea50 0641 	orrs.w	r6, r0, r1, lsl #1
 8008004:	bf18      	it	ne
 8008006:	ea52 0643 	orrsne.w	r6, r2, r3, lsl #1
 800800a:	f47f aec5 	bne.w	8007d98 <__aeabi_dmul+0x19c>
 800800e:	ea50 0441 	orrs.w	r4, r0, r1, lsl #1
 8008012:	f47f af0d 	bne.w	8007e30 <__aeabi_dmul+0x234>
 8008016:	ea52 0543 	orrs.w	r5, r2, r3, lsl #1
 800801a:	f47f aeeb 	bne.w	8007df4 <__aeabi_dmul+0x1f8>
 800801e:	e712      	b.n	8007e46 <__aeabi_dmul+0x24a>

08008020 <__gedf2>:
 8008020:	f04f 3cff 	mov.w	ip, #4294967295	; 0xffffffff
 8008024:	e006      	b.n	8008034 <__cmpdf2+0x4>
 8008026:	bf00      	nop

08008028 <__ledf2>:
 8008028:	f04f 0c01 	mov.w	ip, #1
 800802c:	e002      	b.n	8008034 <__cmpdf2+0x4>
 800802e:	bf00      	nop

08008030 <__cmpdf2>:
 8008030:	f04f 0c01 	mov.w	ip, #1
 8008034:	f84d cd04 	str.w	ip, [sp, #-4]!
 8008038:	ea4f 0c41 	mov.w	ip, r1, lsl #1
 800803c:	ea7f 5c6c 	mvns.w	ip, ip, asr #21
 8008040:	ea4f 0c43 	mov.w	ip, r3, lsl #1
 8008044:	bf18      	it	ne
 8008046:	ea7f 5c6c 	mvnsne.w	ip, ip, asr #21
 800804a:	d01b      	beq.n	8008084 <__cmpdf2+0x54>
 800804c:	b001      	add	sp, #4
 800804e:	ea50 0c41 	orrs.w	ip, r0, r1, lsl #1
 8008052:	bf0c      	ite	eq
 8008054:	ea52 0c43 	orrseq.w	ip, r2, r3, lsl #1
 8008058:	ea91 0f03 	teqne	r1, r3
 800805c:	bf02      	ittt	eq
 800805e:	ea90 0f02 	teqeq	r0, r2
 8008062:	2000      	moveq	r0, #0
 8008064:	4770      	bxeq	lr
 8008066:	f110 0f00 	cmn.w	r0, #0
 800806a:	ea91 0f03 	teq	r1, r3
 800806e:	bf58      	it	pl
 8008070:	4299      	cmppl	r1, r3
 8008072:	bf08      	it	eq
 8008074:	4290      	cmpeq	r0, r2
 8008076:	bf2c      	ite	cs
 8008078:	17d8      	asrcs	r0, r3, #31
 800807a:	ea6f 70e3 	mvncc.w	r0, r3, asr #31
 800807e:	f040 0001 	orr.w	r0, r0, #1
 8008082:	4770      	bx	lr
 8008084:	ea4f 0c41 	mov.w	ip, r1, lsl #1
 8008088:	ea7f 5c6c 	mvns.w	ip, ip, asr #21
 800808c:	d102      	bne.n	8008094 <__cmpdf2+0x64>
 800808e:	ea50 3c01 	orrs.w	ip, r0, r1, lsl #12
 8008092:	d107      	bne.n	80080a4 <__cmpdf2+0x74>
 8008094:	ea4f 0c43 	mov.w	ip, r3, lsl #1
 8008098:	ea7f 5c6c 	mvns.w	ip, ip, asr #21
 800809c:	d1d6      	bne.n	800804c <__cmpdf2+0x1c>
 800809e:	ea52 3c03 	orrs.w	ip, r2, r3, lsl #12
 80080a2:	d0d3      	beq.n	800804c <__cmpdf2+0x1c>
 80080a4:	f85d 0b04 	ldr.w	r0, [sp], #4
 80080a8:	4770      	bx	lr
 80080aa:	bf00      	nop

080080ac <__aeabi_cdrcmple>:
 80080ac:	4684      	mov	ip, r0
 80080ae:	4610      	mov	r0, r2
 80080b0:	4662      	mov	r2, ip
 80080b2:	468c      	mov	ip, r1
 80080b4:	4619      	mov	r1, r3
 80080b6:	4663      	mov	r3, ip
 80080b8:	e000      	b.n	80080bc <__aeabi_cdcmpeq>
 80080ba:	bf00      	nop

080080bc <__aeabi_cdcmpeq>:
 80080bc:	b501      	push	{r0, lr}
 80080be:	f7ff ffb7 	bl	8008030 <__cmpdf2>
 80080c2:	2800      	cmp	r0, #0
 80080c4:	bf48      	it	mi
 80080c6:	f110 0f00 	cmnmi.w	r0, #0
 80080ca:	bd01      	pop	{r0, pc}

080080cc <__aeabi_dcmpeq>:
 80080cc:	f84d ed08 	str.w	lr, [sp, #-8]!
 80080d0:	f7ff fff4 	bl	80080bc <__aeabi_cdcmpeq>
 80080d4:	bf0c      	ite	eq
 80080d6:	2001      	moveq	r0, #1
 80080d8:	2000      	movne	r0, #0
 80080da:	f85d fb08 	ldr.w	pc, [sp], #8
 80080de:	bf00      	nop

080080e0 <__aeabi_dcmplt>:
 80080e0:	f84d ed08 	str.w	lr, [sp, #-8]!
 80080e4:	f7ff ffea 	bl	80080bc <__aeabi_cdcmpeq>
 80080e8:	bf34      	ite	cc
 80080ea:	2001      	movcc	r0, #1
 80080ec:	2000      	movcs	r0, #0
 80080ee:	f85d fb08 	ldr.w	pc, [sp], #8
 80080f2:	bf00      	nop

080080f4 <__aeabi_dcmple>:
 80080f4:	f84d ed08 	str.w	lr, [sp, #-8]!
 80080f8:	f7ff ffe0 	bl	80080bc <__aeabi_cdcmpeq>
 80080fc:	bf94      	ite	ls
 80080fe:	2001      	movls	r0, #1
 8008100:	2000      	movhi	r0, #0
 8008102:	f85d fb08 	ldr.w	pc, [sp], #8
 8008106:	bf00      	nop

08008108 <__aeabi_dcmpge>:
 8008108:	f84d ed08 	str.w	lr, [sp, #-8]!
 800810c:	f7ff ffce 	bl	80080ac <__aeabi_cdrcmple>
 8008110:	bf94      	ite	ls
 8008112:	2001      	movls	r0, #1
 8008114:	2000      	movhi	r0, #0
 8008116:	f85d fb08 	ldr.w	pc, [sp], #8
 800811a:	bf00      	nop

0800811c <__aeabi_dcmpgt>:
 800811c:	f84d ed08 	str.w	lr, [sp, #-8]!
 8008120:	f7ff ffc4 	bl	80080ac <__aeabi_cdrcmple>
 8008124:	bf34      	ite	cc
 8008126:	2001      	movcc	r0, #1
 8008128:	2000      	movcs	r0, #0
 800812a:	f85d fb08 	ldr.w	pc, [sp], #8
 800812e:	bf00      	nop

08008130 <__aeabi_dcmpun>:
 8008130:	ea4f 0c41 	mov.w	ip, r1, lsl #1
 8008134:	ea7f 5c6c 	mvns.w	ip, ip, asr #21
 8008138:	d102      	bne.n	8008140 <__aeabi_dcmpun+0x10>
 800813a:	ea50 3c01 	orrs.w	ip, r0, r1, lsl #12
 800813e:	d10a      	bne.n	8008156 <__aeabi_dcmpun+0x26>
 8008140:	ea4f 0c43 	mov.w	ip, r3, lsl #1
 8008144:	ea7f 5c6c 	mvns.w	ip, ip, asr #21
 8008148:	d102      	bne.n	8008150 <__aeabi_dcmpun+0x20>
 800814a:	ea52 3c03 	orrs.w	ip, r2, r3, lsl #12
 800814e:	d102      	bne.n	8008156 <__aeabi_dcmpun+0x26>
 8008150:	f04f 0000 	mov.w	r0, #0
 8008154:	4770      	bx	lr
 8008156:	f04f 0001 	mov.w	r0, #1
 800815a:	4770      	bx	lr

0800815c <__aeabi_d2iz>:
 800815c:	ea4f 0241 	mov.w	r2, r1, lsl #1
 8008160:	f512 1200 	adds.w	r2, r2, #2097152	; 0x200000
 8008164:	d215      	bcs.n	8008192 <__aeabi_d2iz+0x36>
 8008166:	d511      	bpl.n	800818c <__aeabi_d2iz+0x30>
 8008168:	f46f 7378 	mvn.w	r3, #992	; 0x3e0
 800816c:	ebb3 5262 	subs.w	r2, r3, r2, asr #21
 8008170:	d912      	bls.n	8008198 <__aeabi_d2iz+0x3c>
 8008172:	ea4f 23c1 	mov.w	r3, r1, lsl #11
 8008176:	f043 4300 	orr.w	r3, r3, #2147483648	; 0x80000000
 800817a:	ea43 5350 	orr.w	r3, r3, r0, lsr #21
 800817e:	f011 4f00 	tst.w	r1, #2147483648	; 0x80000000
 8008182:	fa23 f002 	lsr.w	r0, r3, r2
 8008186:	bf18      	it	ne
 8008188:	4240      	negne	r0, r0
 800818a:	4770      	bx	lr
 800818c:	f04f 0000 	mov.w	r0, #0
 8008190:	4770      	bx	lr
 8008192:	ea50 3001 	orrs.w	r0, r0, r1, lsl #12
 8008196:	d105      	bne.n	80081a4 <__aeabi_d2iz+0x48>
 8008198:	f011 4000 	ands.w	r0, r1, #2147483648	; 0x80000000
 800819c:	bf08      	it	eq
 800819e:	f06f 4000 	mvneq.w	r0, #2147483648	; 0x80000000
 80081a2:	4770      	bx	lr
 80081a4:	f04f 0000 	mov.w	r0, #0
 80081a8:	4770      	bx	lr
 80081aa:	bf00      	nop

080081ac <__aeabi_uldivmod>:
 80081ac:	b953      	cbnz	r3, 80081c4 <__aeabi_uldivmod+0x18>
 80081ae:	b94a      	cbnz	r2, 80081c4 <__aeabi_uldivmod+0x18>
 80081b0:	2900      	cmp	r1, #0
 80081b2:	bf08      	it	eq
 80081b4:	2800      	cmpeq	r0, #0
 80081b6:	bf1c      	itt	ne
 80081b8:	f04f 31ff 	movne.w	r1, #4294967295	; 0xffffffff
 80081bc:	f04f 30ff 	movne.w	r0, #4294967295	; 0xffffffff
 80081c0:	f000 b96e 	b.w	80084a0 <__aeabi_idiv0>
 80081c4:	f1ad 0c08 	sub.w	ip, sp, #8
 80081c8:	e96d ce04 	strd	ip, lr, [sp, #-16]!
 80081cc:	f000 f806 	bl	80081dc <__udivmoddi4>
 80081d0:	f8dd e004 	ldr.w	lr, [sp, #4]
 80081d4:	e9dd 2302 	ldrd	r2, r3, [sp, #8]
 80081d8:	b004      	add	sp, #16
 80081da:	4770      	bx	lr

080081dc <__udivmoddi4>:
 80081dc:	e92d 47f0 	stmdb	sp!, {r4, r5, r6, r7, r8, r9, sl, lr}
 80081e0:	9d08      	ldr	r5, [sp, #32]
 80081e2:	4604      	mov	r4, r0
 80081e4:	468c      	mov	ip, r1
 80081e6:	2b00      	cmp	r3, #0
 80081e8:	f040 8083 	bne.w	80082f2 <__udivmoddi4+0x116>
 80081ec:	428a      	cmp	r2, r1
 80081ee:	4617      	mov	r7, r2
 80081f0:	d947      	bls.n	8008282 <__udivmoddi4+0xa6>
 80081f2:	fab2 f282 	clz	r2, r2
 80081f6:	b142      	cbz	r2, 800820a <__udivmoddi4+0x2e>
 80081f8:	f1c2 0020 	rsb	r0, r2, #32
 80081fc:	fa24 f000 	lsr.w	r0, r4, r0
 8008200:	4091      	lsls	r1, r2
 8008202:	4097      	lsls	r7, r2
 8008204:	ea40 0c01 	orr.w	ip, r0, r1
 8008208:	4094      	lsls	r4, r2
 800820a:	ea4f 4817 	mov.w	r8, r7, lsr #16
 800820e:	0c23      	lsrs	r3, r4, #16
 8008210:	fbbc f6f8 	udiv	r6, ip, r8
 8008214:	fa1f fe87 	uxth.w	lr, r7
 8008218:	fb08 c116 	mls	r1, r8, r6, ip
 800821c:	ea43 4301 	orr.w	r3, r3, r1, lsl #16
 8008220:	fb06 f10e 	mul.w	r1, r6, lr
 8008224:	4299      	cmp	r1, r3
 8008226:	d909      	bls.n	800823c <__udivmoddi4+0x60>
 8008228:	18fb      	adds	r3, r7, r3
 800822a:	f106 30ff 	add.w	r0, r6, #4294967295	; 0xffffffff
 800822e:	f080 8119 	bcs.w	8008464 <__udivmoddi4+0x288>
 8008232:	4299      	cmp	r1, r3
 8008234:	f240 8116 	bls.w	8008464 <__udivmoddi4+0x288>
 8008238:	3e02      	subs	r6, #2
 800823a:	443b      	add	r3, r7
 800823c:	1a5b      	subs	r3, r3, r1
 800823e:	b2a4      	uxth	r4, r4
 8008240:	fbb3 f0f8 	udiv	r0, r3, r8
 8008244:	fb08 3310 	mls	r3, r8, r0, r3
 8008248:	ea44 4403 	orr.w	r4, r4, r3, lsl #16
 800824c:	fb00 fe0e 	mul.w	lr, r0, lr
 8008250:	45a6      	cmp	lr, r4
 8008252:	d909      	bls.n	8008268 <__udivmoddi4+0x8c>
 8008254:	193c      	adds	r4, r7, r4
 8008256:	f100 33ff 	add.w	r3, r0, #4294967295	; 0xffffffff
 800825a:	f080 8105 	bcs.w	8008468 <__udivmoddi4+0x28c>
 800825e:	45a6      	cmp	lr, r4
 8008260:	f240 8102 	bls.w	8008468 <__udivmoddi4+0x28c>
 8008264:	3802      	subs	r0, #2
 8008266:	443c      	add	r4, r7
 8008268:	ea40 4006 	orr.w	r0, r0, r6, lsl #16
 800826c:	eba4 040e 	sub.w	r4, r4, lr
 8008270:	2600      	movs	r6, #0
 8008272:	b11d      	cbz	r5, 800827c <__udivmoddi4+0xa0>
 8008274:	40d4      	lsrs	r4, r2
 8008276:	2300      	movs	r3, #0
 8008278:	e9c5 4300 	strd	r4, r3, [r5]
 800827c:	4631      	mov	r1, r6
 800827e:	e8bd 87f0 	ldmia.w	sp!, {r4, r5, r6, r7, r8, r9, sl, pc}
 8008282:	b902      	cbnz	r2, 8008286 <__udivmoddi4+0xaa>
 8008284:	deff      	udf	#255	; 0xff
 8008286:	fab2 f282 	clz	r2, r2
 800828a:	2a00      	cmp	r2, #0
 800828c:	d150      	bne.n	8008330 <__udivmoddi4+0x154>
 800828e:	1bcb      	subs	r3, r1, r7
 8008290:	ea4f 4e17 	mov.w	lr, r7, lsr #16
 8008294:	fa1f f887 	uxth.w	r8, r7
 8008298:	2601      	movs	r6, #1
 800829a:	fbb3 fcfe 	udiv	ip, r3, lr
 800829e:	0c21      	lsrs	r1, r4, #16
 80082a0:	fb0e 331c 	mls	r3, lr, ip, r3
 80082a4:	ea41 4103 	orr.w	r1, r1, r3, lsl #16
 80082a8:	fb08 f30c 	mul.w	r3, r8, ip
 80082ac:	428b      	cmp	r3, r1
 80082ae:	d907      	bls.n	80082c0 <__udivmoddi4+0xe4>
 80082b0:	1879      	adds	r1, r7, r1
 80082b2:	f10c 30ff 	add.w	r0, ip, #4294967295	; 0xffffffff
 80082b6:	d202      	bcs.n	80082be <__udivmoddi4+0xe2>
 80082b8:	428b      	cmp	r3, r1
 80082ba:	f200 80e9 	bhi.w	8008490 <__udivmoddi4+0x2b4>
 80082be:	4684      	mov	ip, r0
 80082c0:	1ac9      	subs	r1, r1, r3
 80082c2:	b2a3      	uxth	r3, r4
 80082c4:	fbb1 f0fe 	udiv	r0, r1, lr
 80082c8:	fb0e 1110 	mls	r1, lr, r0, r1
 80082cc:	ea43 4401 	orr.w	r4, r3, r1, lsl #16
 80082d0:	fb08 f800 	mul.w	r8, r8, r0
 80082d4:	45a0      	cmp	r8, r4
 80082d6:	d907      	bls.n	80082e8 <__udivmoddi4+0x10c>
 80082d8:	193c      	adds	r4, r7, r4
 80082da:	f100 33ff 	add.w	r3, r0, #4294967295	; 0xffffffff
 80082de:	d202      	bcs.n	80082e6 <__udivmoddi4+0x10a>
 80082e0:	45a0      	cmp	r8, r4
 80082e2:	f200 80d9 	bhi.w	8008498 <__udivmoddi4+0x2bc>
 80082e6:	4618      	mov	r0, r3
 80082e8:	eba4 0408 	sub.w	r4, r4, r8
 80082ec:	ea40 400c 	orr.w	r0, r0, ip, lsl #16
 80082f0:	e7bf      	b.n	8008272 <__udivmoddi4+0x96>
 80082f2:	428b      	cmp	r3, r1
 80082f4:	d909      	bls.n	800830a <__udivmoddi4+0x12e>
 80082f6:	2d00      	cmp	r5, #0
 80082f8:	f000 80b1 	beq.w	800845e <__udivmoddi4+0x282>
 80082fc:	2600      	movs	r6, #0
 80082fe:	e9c5 0100 	strd	r0, r1, [r5]
 8008302:	4630      	mov	r0, r6
 8008304:	4631      	mov	r1, r6
 8008306:	e8bd 87f0 	ldmia.w	sp!, {r4, r5, r6, r7, r8, r9, sl, pc}
 800830a:	fab3 f683 	clz	r6, r3
 800830e:	2e00      	cmp	r6, #0
 8008310:	d14a      	bne.n	80083a8 <__udivmoddi4+0x1cc>
 8008312:	428b      	cmp	r3, r1
 8008314:	d302      	bcc.n	800831c <__udivmoddi4+0x140>
 8008316:	4282      	cmp	r2, r0
 8008318:	f200 80b8 	bhi.w	800848c <__udivmoddi4+0x2b0>
 800831c:	1a84      	subs	r4, r0, r2
 800831e:	eb61 0103 	sbc.w	r1, r1, r3
 8008322:	2001      	movs	r0, #1
 8008324:	468c      	mov	ip, r1
 8008326:	2d00      	cmp	r5, #0
 8008328:	d0a8      	beq.n	800827c <__udivmoddi4+0xa0>
 800832a:	e9c5 4c00 	strd	r4, ip, [r5]
 800832e:	e7a5      	b.n	800827c <__udivmoddi4+0xa0>
 8008330:	f1c2 0320 	rsb	r3, r2, #32
 8008334:	fa20 f603 	lsr.w	r6, r0, r3
 8008338:	4097      	lsls	r7, r2
 800833a:	fa01 f002 	lsl.w	r0, r1, r2
 800833e:	ea4f 4e17 	mov.w	lr, r7, lsr #16
 8008342:	40d9      	lsrs	r1, r3
 8008344:	4330      	orrs	r0, r6
 8008346:	0c03      	lsrs	r3, r0, #16
 8008348:	fbb1 f6fe 	udiv	r6, r1, lr
 800834c:	fa1f f887 	uxth.w	r8, r7
 8008350:	fb0e 1116 	mls	r1, lr, r6, r1
 8008354:	ea43 4301 	orr.w	r3, r3, r1, lsl #16
 8008358:	fb06 f108 	mul.w	r1, r6, r8
 800835c:	4299      	cmp	r1, r3
 800835e:	fa04 f402 	lsl.w	r4, r4, r2
 8008362:	d909      	bls.n	8008378 <__udivmoddi4+0x19c>
 8008364:	18fb      	adds	r3, r7, r3
 8008366:	f106 3cff 	add.w	ip, r6, #4294967295	; 0xffffffff
 800836a:	f080 808d 	bcs.w	8008488 <__udivmoddi4+0x2ac>
 800836e:	4299      	cmp	r1, r3
 8008370:	f240 808a 	bls.w	8008488 <__udivmoddi4+0x2ac>
 8008374:	3e02      	subs	r6, #2
 8008376:	443b      	add	r3, r7
 8008378:	1a5b      	subs	r3, r3, r1
 800837a:	b281      	uxth	r1, r0
 800837c:	fbb3 f0fe 	udiv	r0, r3, lr
 8008380:	fb0e 3310 	mls	r3, lr, r0, r3
 8008384:	ea41 4103 	orr.w	r1, r1, r3, lsl #16
 8008388:	fb00 f308 	mul.w	r3, r0, r8
 800838c:	428b      	cmp	r3, r1
 800838e:	d907      	bls.n	80083a0 <__udivmoddi4+0x1c4>
 8008390:	1879      	adds	r1, r7, r1
 8008392:	f100 3cff 	add.w	ip, r0, #4294967295	; 0xffffffff
 8008396:	d273      	bcs.n	8008480 <__udivmoddi4+0x2a4>
 8008398:	428b      	cmp	r3, r1
 800839a:	d971      	bls.n	8008480 <__udivmoddi4+0x2a4>
 800839c:	3802      	subs	r0, #2
 800839e:	4439      	add	r1, r7
 80083a0:	1acb      	subs	r3, r1, r3
 80083a2:	ea40 4606 	orr.w	r6, r0, r6, lsl #16
 80083a6:	e778      	b.n	800829a <__udivmoddi4+0xbe>
 80083a8:	f1c6 0c20 	rsb	ip, r6, #32
 80083ac:	fa03 f406 	lsl.w	r4, r3, r6
 80083b0:	fa22 f30c 	lsr.w	r3, r2, ip
 80083b4:	431c      	orrs	r4, r3
 80083b6:	fa20 f70c 	lsr.w	r7, r0, ip
 80083ba:	fa01 f306 	lsl.w	r3, r1, r6
 80083be:	ea4f 4e14 	mov.w	lr, r4, lsr #16
 80083c2:	fa21 f10c 	lsr.w	r1, r1, ip
 80083c6:	431f      	orrs	r7, r3
 80083c8:	0c3b      	lsrs	r3, r7, #16
 80083ca:	fbb1 f9fe 	udiv	r9, r1, lr
 80083ce:	fa1f f884 	uxth.w	r8, r4
 80083d2:	fb0e 1119 	mls	r1, lr, r9, r1
 80083d6:	ea43 4101 	orr.w	r1, r3, r1, lsl #16
 80083da:	fb09 fa08 	mul.w	sl, r9, r8
 80083de:	458a      	cmp	sl, r1
 80083e0:	fa02 f206 	lsl.w	r2, r2, r6
 80083e4:	fa00 f306 	lsl.w	r3, r0, r6
 80083e8:	d908      	bls.n	80083fc <__udivmoddi4+0x220>
 80083ea:	1861      	adds	r1, r4, r1
 80083ec:	f109 30ff 	add.w	r0, r9, #4294967295	; 0xffffffff
 80083f0:	d248      	bcs.n	8008484 <__udivmoddi4+0x2a8>
 80083f2:	458a      	cmp	sl, r1
 80083f4:	d946      	bls.n	8008484 <__udivmoddi4+0x2a8>
 80083f6:	f1a9 0902 	sub.w	r9, r9, #2
 80083fa:	4421      	add	r1, r4
 80083fc:	eba1 010a 	sub.w	r1, r1, sl
 8008400:	b2bf      	uxth	r7, r7
 8008402:	fbb1 f0fe 	udiv	r0, r1, lr
 8008406:	fb0e 1110 	mls	r1, lr, r0, r1
 800840a:	ea47 4701 	orr.w	r7, r7, r1, lsl #16
 800840e:	fb00 f808 	mul.w	r8, r0, r8
 8008412:	45b8      	cmp	r8, r7
 8008414:	d907      	bls.n	8008426 <__udivmoddi4+0x24a>
 8008416:	19e7      	adds	r7, r4, r7
 8008418:	f100 31ff 	add.w	r1, r0, #4294967295	; 0xffffffff
 800841c:	d22e      	bcs.n	800847c <__udivmoddi4+0x2a0>
 800841e:	45b8      	cmp	r8, r7
 8008420:	d92c      	bls.n	800847c <__udivmoddi4+0x2a0>
 8008422:	3802      	subs	r0, #2
 8008424:	4427      	add	r7, r4
 8008426:	ea40 4009 	orr.w	r0, r0, r9, lsl #16
 800842a:	eba7 0708 	sub.w	r7, r7, r8
 800842e:	fba0 8902 	umull	r8, r9, r0, r2
 8008432:	454f      	cmp	r7, r9
 8008434:	46c6      	mov	lr, r8
 8008436:	4649      	mov	r1, r9
 8008438:	d31a      	bcc.n	8008470 <__udivmoddi4+0x294>
 800843a:	d017      	beq.n	800846c <__udivmoddi4+0x290>
 800843c:	b15d      	cbz	r5, 8008456 <__udivmoddi4+0x27a>
 800843e:	ebb3 020e 	subs.w	r2, r3, lr
 8008442:	eb67 0701 	sbc.w	r7, r7, r1
 8008446:	fa07 fc0c 	lsl.w	ip, r7, ip
 800844a:	40f2      	lsrs	r2, r6
 800844c:	ea4c 0202 	orr.w	r2, ip, r2
 8008450:	40f7      	lsrs	r7, r6
 8008452:	e9c5 2700 	strd	r2, r7, [r5]
 8008456:	2600      	movs	r6, #0
 8008458:	4631      	mov	r1, r6
 800845a:	e8bd 87f0 	ldmia.w	sp!, {r4, r5, r6, r7, r8, r9, sl, pc}
 800845e:	462e      	mov	r6, r5
 8008460:	4628      	mov	r0, r5
 8008462:	e70b      	b.n	800827c <__udivmoddi4+0xa0>
 8008464:	4606      	mov	r6, r0
 8008466:	e6e9      	b.n	800823c <__udivmoddi4+0x60>
 8008468:	4618      	mov	r0, r3
 800846a:	e6fd      	b.n	8008268 <__udivmoddi4+0x8c>
 800846c:	4543      	cmp	r3, r8
 800846e:	d2e5      	bcs.n	800843c <__udivmoddi4+0x260>
 8008470:	ebb8 0e02 	subs.w	lr, r8, r2
 8008474:	eb69 0104 	sbc.w	r1, r9, r4
 8008478:	3801      	subs	r0, #1
 800847a:	e7df      	b.n	800843c <__udivmoddi4+0x260>
 800847c:	4608      	mov	r0, r1
 800847e:	e7d2      	b.n	8008426 <__udivmoddi4+0x24a>
 8008480:	4660      	mov	r0, ip
 8008482:	e78d      	b.n	80083a0 <__udivmoddi4+0x1c4>
 8008484:	4681      	mov	r9, r0
 8008486:	e7b9      	b.n	80083fc <__udivmoddi4+0x220>
 8008488:	4666      	mov	r6, ip
 800848a:	e775      	b.n	8008378 <__udivmoddi4+0x19c>
 800848c:	4630      	mov	r0, r6
 800848e:	e74a      	b.n	8008326 <__udivmoddi4+0x14a>
 8008490:	f1ac 0c02 	sub.w	ip, ip, #2
 8008494:	4439      	add	r1, r7
 8008496:	e713      	b.n	80082c0 <__udivmoddi4+0xe4>
 8008498:	3802      	subs	r0, #2
 800849a:	443c      	add	r4, r7
 800849c:	e724      	b.n	80082e8 <__udivmoddi4+0x10c>
 800849e:	bf00      	nop

080084a0 <__aeabi_idiv0>:
 80084a0:	4770      	bx	lr
 80084a2:	bf00      	nop

080084a4 <_sbrk>:
 80084a4:	4a04      	ldr	r2, [pc, #16]	; (80084b8 <_sbrk+0x14>)
 80084a6:	4905      	ldr	r1, [pc, #20]	; (80084bc <_sbrk+0x18>)
 80084a8:	6813      	ldr	r3, [r2, #0]
 80084aa:	2b00      	cmp	r3, #0
 80084ac:	bf08      	it	eq
 80084ae:	460b      	moveq	r3, r1
 80084b0:	4418      	add	r0, r3
 80084b2:	6010      	str	r0, [r2, #0]
 80084b4:	4618      	mov	r0, r3
 80084b6:	4770      	bx	lr
 80084b8:	200009ec 	.word	0x200009ec
 80084bc:	20000a18 	.word	0x20000a18

080084c0 <dma_stream_reset>:
 80084c0:	2318      	movs	r3, #24
 80084c2:	fb13 0301 	smlabb	r3, r3, r1, r0
 80084c6:	b510      	push	{r4, lr}
 80084c8:	691a      	ldr	r2, [r3, #16]
 80084ca:	f022 0201 	bic.w	r2, r2, #1
 80084ce:	611a      	str	r2, [r3, #16]
 80084d0:	2200      	movs	r2, #0
 80084d2:	611a      	str	r2, [r3, #16]
 80084d4:	e9c3 2206 	strd	r2, r2, [r3, #24]
 80084d8:	615a      	str	r2, [r3, #20]
 80084da:	621a      	str	r2, [r3, #32]
 80084dc:	2221      	movs	r2, #33	; 0x21
 80084de:	625a      	str	r2, [r3, #36]	; 0x24
 80084e0:	f3c1 0240 	ubfx	r2, r1, #1, #1
 80084e4:	2306      	movs	r3, #6
 80084e6:	f001 0401 	and.w	r4, r1, #1
 80084ea:	0112      	lsls	r2, r2, #4
 80084ec:	fb13 2204 	smlabb	r2, r3, r4, r2
 80084f0:	2903      	cmp	r1, #3
 80084f2:	f04f 033d 	mov.w	r3, #61	; 0x3d
 80084f6:	fa03 f302 	lsl.w	r3, r3, r2
 80084fa:	bf95      	itete	ls
 80084fc:	6882      	ldrls	r2, [r0, #8]
 80084fe:	68c2      	ldrhi	r2, [r0, #12]
 8008500:	4313      	orrls	r3, r2
 8008502:	4313      	orrhi	r3, r2
 8008504:	bf94      	ite	ls
 8008506:	6083      	strls	r3, [r0, #8]
 8008508:	60c3      	strhi	r3, [r0, #12]
 800850a:	bd10      	pop	{r4, pc}

0800850c <dma_clear_interrupt_flags>:
 800850c:	b530      	push	{r4, r5, lr}
 800850e:	f3c1 0340 	ubfx	r3, r1, #1, #1
 8008512:	011c      	lsls	r4, r3, #4
 8008514:	f001 0501 	and.w	r5, r1, #1
 8008518:	2306      	movs	r3, #6
 800851a:	fb13 4305 	smlabb	r3, r3, r5, r4
 800851e:	409a      	lsls	r2, r3
 8008520:	2903      	cmp	r1, #3
 8008522:	bf94      	ite	ls
 8008524:	6082      	strls	r2, [r0, #8]
 8008526:	60c2      	strhi	r2, [r0, #12]
 8008528:	bd30      	pop	{r4, r5, pc}

0800852a <dma_set_transfer_mode>:
 800852a:	2318      	movs	r3, #24
 800852c:	3010      	adds	r0, #16
 800852e:	fb03 0101 	mla	r1, r3, r1, r0
 8008532:	2a80      	cmp	r2, #128	; 0x80
 8008534:	680b      	ldr	r3, [r1, #0]
 8008536:	bf0a      	itet	eq
 8008538:	f423 2380 	biceq.w	r3, r3, #262144	; 0x40000
 800853c:	f023 03c0 	bicne.w	r3, r3, #192	; 0xc0
 8008540:	f423 73e0 	biceq.w	r3, r3, #448	; 0x1c0
 8008544:	431a      	orrs	r2, r3
 8008546:	600a      	str	r2, [r1, #0]
 8008548:	4770      	bx	lr

0800854a <dma_set_priority>:
 800854a:	3010      	adds	r0, #16
 800854c:	2318      	movs	r3, #24
 800854e:	fb03 0101 	mla	r1, r3, r1, r0
 8008552:	6808      	ldr	r0, [r1, #0]
 8008554:	f420 3040 	bic.w	r0, r0, #196608	; 0x30000
 8008558:	6008      	str	r0, [r1, #0]
 800855a:	680b      	ldr	r3, [r1, #0]
 800855c:	431a      	orrs	r2, r3
 800855e:	600a      	str	r2, [r1, #0]
 8008560:	4770      	bx	lr

08008562 <dma_set_memory_size>:
 8008562:	3010      	adds	r0, #16
 8008564:	2318      	movs	r3, #24
 8008566:	fb03 0101 	mla	r1, r3, r1, r0
 800856a:	6808      	ldr	r0, [r1, #0]
 800856c:	f420 40c0 	bic.w	r0, r0, #24576	; 0x6000
 8008570:	6008      	str	r0, [r1, #0]
 8008572:	680b      	ldr	r3, [r1, #0]
 8008574:	431a      	orrs	r2, r3
 8008576:	600a      	str	r2, [r1, #0]
 8008578:	4770      	bx	lr

0800857a <dma_set_peripheral_size>:
 800857a:	3010      	adds	r0, #16
 800857c:	2318      	movs	r3, #24
 800857e:	fb03 0101 	mla	r1, r3, r1, r0
 8008582:	6808      	ldr	r0, [r1, #0]
 8008584:	f420 50c0 	bic.w	r0, r0, #6144	; 0x1800
 8008588:	6008      	str	r0, [r1, #0]
 800858a:	680b      	ldr	r3, [r1, #0]
 800858c:	431a      	orrs	r2, r3
 800858e:	600a      	str	r2, [r1, #0]
 8008590:	4770      	bx	lr

08008592 <dma_enable_memory_increment_mode>:
 8008592:	2318      	movs	r3, #24
 8008594:	3010      	adds	r0, #16
 8008596:	fb03 0101 	mla	r1, r3, r1, r0
 800859a:	680b      	ldr	r3, [r1, #0]
 800859c:	f443 6380 	orr.w	r3, r3, #1024	; 0x400
 80085a0:	600b      	str	r3, [r1, #0]
 80085a2:	4770      	bx	lr

080085a4 <dma_disable_peripheral_increment_mode>:
 80085a4:	2318      	movs	r3, #24
 80085a6:	3010      	adds	r0, #16
 80085a8:	fb03 0101 	mla	r1, r3, r1, r0
 80085ac:	680b      	ldr	r3, [r1, #0]
 80085ae:	f423 7300 	bic.w	r3, r3, #512	; 0x200
 80085b2:	600b      	str	r3, [r1, #0]
 80085b4:	4770      	bx	lr

080085b6 <dma_channel_select>:
 80085b6:	2318      	movs	r3, #24
 80085b8:	3010      	adds	r0, #16
 80085ba:	fb03 0101 	mla	r1, r3, r1, r0
 80085be:	680b      	ldr	r3, [r1, #0]
 80085c0:	431a      	orrs	r2, r3
 80085c2:	600a      	str	r2, [r1, #0]
 80085c4:	4770      	bx	lr

080085c6 <dma_disable_transfer_error_interrupt>:
 80085c6:	2318      	movs	r3, #24
 80085c8:	3010      	adds	r0, #16
 80085ca:	fb03 0101 	mla	r1, r3, r1, r0
 80085ce:	680b      	ldr	r3, [r1, #0]
 80085d0:	f023 0304 	bic.w	r3, r3, #4
 80085d4:	600b      	str	r3, [r1, #0]
 80085d6:	4770      	bx	lr

080085d8 <dma_disable_half_transfer_interrupt>:
 80085d8:	2318      	movs	r3, #24
 80085da:	3010      	adds	r0, #16
 80085dc:	fb03 0101 	mla	r1, r3, r1, r0
 80085e0:	680b      	ldr	r3, [r1, #0]
 80085e2:	f023 0308 	bic.w	r3, r3, #8
 80085e6:	600b      	str	r3, [r1, #0]
 80085e8:	4770      	bx	lr

080085ea <dma_enable_transfer_complete_interrupt>:
 80085ea:	b538      	push	{r3, r4, r5, lr}
 80085ec:	2220      	movs	r2, #32
 80085ee:	4604      	mov	r4, r0
 80085f0:	f7ff ff8c 	bl	800850c <dma_clear_interrupt_flags>
 80085f4:	3410      	adds	r4, #16
 80085f6:	2318      	movs	r3, #24
 80085f8:	fb13 4401 	smlabb	r4, r3, r1, r4
 80085fc:	6823      	ldr	r3, [r4, #0]
 80085fe:	f043 0310 	orr.w	r3, r3, #16
 8008602:	6023      	str	r3, [r4, #0]
 8008604:	bd38      	pop	{r3, r4, r5, pc}

08008606 <dma_disable_direct_mode_error_interrupt>:
 8008606:	2318      	movs	r3, #24
 8008608:	3010      	adds	r0, #16
 800860a:	fb03 0101 	mla	r1, r3, r1, r0
 800860e:	680b      	ldr	r3, [r1, #0]
 8008610:	f023 0302 	bic.w	r3, r3, #2
 8008614:	600b      	str	r3, [r1, #0]
 8008616:	4770      	bx	lr

08008618 <dma_disable_fifo_error_interrupt>:
 8008618:	2318      	movs	r3, #24
 800861a:	3024      	adds	r0, #36	; 0x24
 800861c:	fb03 0101 	mla	r1, r3, r1, r0
 8008620:	680b      	ldr	r3, [r1, #0]
 8008622:	f023 0380 	bic.w	r3, r3, #128	; 0x80
 8008626:	600b      	str	r3, [r1, #0]
 8008628:	4770      	bx	lr

0800862a <dma_enable_stream>:
 800862a:	2318      	movs	r3, #24
 800862c:	3010      	adds	r0, #16
 800862e:	fb03 0101 	mla	r1, r3, r1, r0
 8008632:	680b      	ldr	r3, [r1, #0]
 8008634:	f043 0301 	orr.w	r3, r3, #1
 8008638:	600b      	str	r3, [r1, #0]
 800863a:	4770      	bx	lr

0800863c <dma_disable_stream>:
 800863c:	2318      	movs	r3, #24
 800863e:	3010      	adds	r0, #16
 8008640:	fb03 0101 	mla	r1, r3, r1, r0
 8008644:	680b      	ldr	r3, [r1, #0]
 8008646:	f023 0301 	bic.w	r3, r3, #1
 800864a:	600b      	str	r3, [r1, #0]
 800864c:	4770      	bx	lr

0800864e <dma_set_peripheral_address>:
 800864e:	2318      	movs	r3, #24
 8008650:	fb03 0101 	mla	r1, r3, r1, r0
 8008654:	690b      	ldr	r3, [r1, #16]
 8008656:	07db      	lsls	r3, r3, #31
 8008658:	bf58      	it	pl
 800865a:	618a      	strpl	r2, [r1, #24]
 800865c:	4770      	bx	lr

0800865e <dma_set_memory_address>:
 800865e:	2318      	movs	r3, #24
 8008660:	fb03 0101 	mla	r1, r3, r1, r0
 8008664:	690b      	ldr	r3, [r1, #16]
 8008666:	07d8      	lsls	r0, r3, #31
 8008668:	d504      	bpl.n	8008674 <dma_set_memory_address+0x16>
 800866a:	f403 2340 	and.w	r3, r3, #786432	; 0xc0000
 800866e:	f5b3 2f40 	cmp.w	r3, #786432	; 0xc0000
 8008672:	d100      	bne.n	8008676 <dma_set_memory_address+0x18>
 8008674:	61ca      	str	r2, [r1, #28]
 8008676:	4770      	bx	lr

08008678 <dma_set_number_of_data>:
 8008678:	3014      	adds	r0, #20
 800867a:	2318      	movs	r3, #24
 800867c:	fb03 0101 	mla	r1, r3, r1, r0
 8008680:	600a      	str	r2, [r1, #0]
 8008682:	4770      	bx	lr

08008684 <flash_prefetch_enable>:
 8008684:	4a02      	ldr	r2, [pc, #8]	; (8008690 <flash_prefetch_enable+0xc>)
 8008686:	6813      	ldr	r3, [r2, #0]
 8008688:	f443 7380 	orr.w	r3, r3, #256	; 0x100
 800868c:	6013      	str	r3, [r2, #0]
 800868e:	4770      	bx	lr
 8008690:	40023c00 	.word	0x40023c00

08008694 <flash_set_ws>:
 8008694:	4a03      	ldr	r2, [pc, #12]	; (80086a4 <flash_set_ws+0x10>)
 8008696:	6813      	ldr	r3, [r2, #0]
 8008698:	f023 030f 	bic.w	r3, r3, #15
 800869c:	4318      	orrs	r0, r3
 800869e:	6010      	str	r0, [r2, #0]
 80086a0:	4770      	bx	lr
 80086a2:	bf00      	nop
 80086a4:	40023c00 	.word	0x40023c00

080086a8 <gpio_mode_setup>:
 80086a8:	e92d 41f0 	stmdb	sp!, {r4, r5, r6, r7, r8, lr}
 80086ac:	6805      	ldr	r5, [r0, #0]
 80086ae:	68c4      	ldr	r4, [r0, #12]
 80086b0:	2600      	movs	r6, #0
 80086b2:	f04f 0e03 	mov.w	lr, #3
 80086b6:	fa43 f706 	asr.w	r7, r3, r6
 80086ba:	07ff      	lsls	r7, r7, #31
 80086bc:	d50d      	bpl.n	80086da <gpio_mode_setup+0x32>
 80086be:	0077      	lsls	r7, r6, #1
 80086c0:	fa0e fc07 	lsl.w	ip, lr, r7
 80086c4:	fa01 f807 	lsl.w	r8, r1, r7
 80086c8:	ea25 050c 	bic.w	r5, r5, ip
 80086cc:	ea24 040c 	bic.w	r4, r4, ip
 80086d0:	fa02 f707 	lsl.w	r7, r2, r7
 80086d4:	ea48 0505 	orr.w	r5, r8, r5
 80086d8:	433c      	orrs	r4, r7
 80086da:	3601      	adds	r6, #1
 80086dc:	2e10      	cmp	r6, #16
 80086de:	d1ea      	bne.n	80086b6 <gpio_mode_setup+0xe>
 80086e0:	6005      	str	r5, [r0, #0]
 80086e2:	60c4      	str	r4, [r0, #12]
 80086e4:	e8bd 81f0 	ldmia.w	sp!, {r4, r5, r6, r7, r8, pc}

080086e8 <gpio_set_af>:
 80086e8:	b5f0      	push	{r4, r5, r6, r7, lr}
 80086ea:	6a07      	ldr	r7, [r0, #32]
 80086ec:	6a46      	ldr	r6, [r0, #36]	; 0x24
 80086ee:	2300      	movs	r3, #0
 80086f0:	f04f 0c0f 	mov.w	ip, #15
 80086f4:	fa42 f403 	asr.w	r4, r2, r3
 80086f8:	07e5      	lsls	r5, r4, #31
 80086fa:	d507      	bpl.n	800870c <gpio_set_af+0x24>
 80086fc:	009d      	lsls	r5, r3, #2
 80086fe:	fa0c f405 	lsl.w	r4, ip, r5
 8008702:	ea27 0704 	bic.w	r7, r7, r4
 8008706:	fa01 f505 	lsl.w	r5, r1, r5
 800870a:	432f      	orrs	r7, r5
 800870c:	3301      	adds	r3, #1
 800870e:	2b08      	cmp	r3, #8
 8008710:	d1f0      	bne.n	80086f4 <gpio_set_af+0xc>
 8008712:	f04f 0c0f 	mov.w	ip, #15
 8008716:	fa42 f403 	asr.w	r4, r2, r3
 800871a:	07e4      	lsls	r4, r4, #31
 800871c:	d508      	bpl.n	8008730 <gpio_set_af+0x48>
 800871e:	009c      	lsls	r4, r3, #2
 8008720:	3c20      	subs	r4, #32
 8008722:	fa0c f504 	lsl.w	r5, ip, r4
 8008726:	ea26 0605 	bic.w	r6, r6, r5
 800872a:	fa01 f404 	lsl.w	r4, r1, r4
 800872e:	4326      	orrs	r6, r4
 8008730:	3301      	adds	r3, #1
 8008732:	2b10      	cmp	r3, #16
 8008734:	d1ef      	bne.n	8008716 <gpio_set_af+0x2e>
 8008736:	6207      	str	r7, [r0, #32]
 8008738:	6246      	str	r6, [r0, #36]	; 0x24
 800873a:	bdf0      	pop	{r4, r5, r6, r7, pc}

0800873c <rcc_periph_clock_enable>:
 800873c:	0943      	lsrs	r3, r0, #5
 800873e:	f103 4380 	add.w	r3, r3, #1073741824	; 0x40000000
 8008742:	f503 330e 	add.w	r3, r3, #145408	; 0x23800
 8008746:	f000 001f 	and.w	r0, r0, #31
 800874a:	6819      	ldr	r1, [r3, #0]
 800874c:	2201      	movs	r2, #1
 800874e:	fa02 f000 	lsl.w	r0, r2, r0
 8008752:	4308      	orrs	r0, r1
 8008754:	6018      	str	r0, [r3, #0]
 8008756:	4770      	bx	lr

08008758 <rcc_is_osc_ready>:
 8008758:	2806      	cmp	r0, #6
 800875a:	d822      	bhi.n	80087a2 <rcc_is_osc_ready+0x4a>
 800875c:	e8df f000 	tbb	[pc, r0]
 8008760:	091c1704 	.word	0x091c1704
 8008764:	130e      	.short	0x130e
 8008766:	15          	.byte	0x15
 8008767:	00          	.byte	0x00
 8008768:	4b0f      	ldr	r3, [pc, #60]	; (80087a8 <rcc_is_osc_ready+0x50>)
 800876a:	6818      	ldr	r0, [r3, #0]
 800876c:	f3c0 6040 	ubfx	r0, r0, #25, #1
 8008770:	4770      	bx	lr
 8008772:	4b0d      	ldr	r3, [pc, #52]	; (80087a8 <rcc_is_osc_ready+0x50>)
 8008774:	6818      	ldr	r0, [r3, #0]
 8008776:	f3c0 4040 	ubfx	r0, r0, #17, #1
 800877a:	4770      	bx	lr
 800877c:	4b0a      	ldr	r3, [pc, #40]	; (80087a8 <rcc_is_osc_ready+0x50>)
 800877e:	6818      	ldr	r0, [r3, #0]
 8008780:	f3c0 0040 	ubfx	r0, r0, #1, #1
 8008784:	4770      	bx	lr
 8008786:	4b09      	ldr	r3, [pc, #36]	; (80087ac <rcc_is_osc_ready+0x54>)
 8008788:	e7f9      	b.n	800877e <rcc_is_osc_ready+0x26>
 800878a:	4b09      	ldr	r3, [pc, #36]	; (80087b0 <rcc_is_osc_ready+0x58>)
 800878c:	e7f7      	b.n	800877e <rcc_is_osc_ready+0x26>
 800878e:	4b06      	ldr	r3, [pc, #24]	; (80087a8 <rcc_is_osc_ready+0x50>)
 8008790:	6818      	ldr	r0, [r3, #0]
 8008792:	f3c0 7040 	ubfx	r0, r0, #29, #1
 8008796:	4770      	bx	lr
 8008798:	4b03      	ldr	r3, [pc, #12]	; (80087a8 <rcc_is_osc_ready+0x50>)
 800879a:	6818      	ldr	r0, [r3, #0]
 800879c:	f3c0 60c0 	ubfx	r0, r0, #27, #1
 80087a0:	4770      	bx	lr
 80087a2:	2000      	movs	r0, #0
 80087a4:	4770      	bx	lr
 80087a6:	bf00      	nop
 80087a8:	40023800 	.word	0x40023800
 80087ac:	40023870 	.word	0x40023870
 80087b0:	40023874 	.word	0x40023874

080087b4 <rcc_wait_for_osc_ready>:
 80087b4:	b508      	push	{r3, lr}
 80087b6:	4602      	mov	r2, r0
 80087b8:	4610      	mov	r0, r2
 80087ba:	f7ff ffcd 	bl	8008758 <rcc_is_osc_ready>
 80087be:	2800      	cmp	r0, #0
 80087c0:	d0fa      	beq.n	80087b8 <rcc_wait_for_osc_ready+0x4>
 80087c2:	bd08      	pop	{r3, pc}

080087c4 <rcc_osc_on>:
 80087c4:	2806      	cmp	r0, #6
 80087c6:	d80a      	bhi.n	80087de <rcc_osc_on+0x1a>
 80087c8:	e8df f000 	tbb	[pc, r0]
 80087cc:	0a1d1804 	.word	0x0a1d1804
 80087d0:	140f      	.short	0x140f
 80087d2:	16          	.byte	0x16
 80087d3:	00          	.byte	0x00
 80087d4:	4a0e      	ldr	r2, [pc, #56]	; (8008810 <rcc_osc_on+0x4c>)
 80087d6:	6813      	ldr	r3, [r2, #0]
 80087d8:	f043 7380 	orr.w	r3, r3, #16777216	; 0x1000000
 80087dc:	6013      	str	r3, [r2, #0]
 80087de:	4770      	bx	lr
 80087e0:	4a0b      	ldr	r2, [pc, #44]	; (8008810 <rcc_osc_on+0x4c>)
 80087e2:	6813      	ldr	r3, [r2, #0]
 80087e4:	f443 3380 	orr.w	r3, r3, #65536	; 0x10000
 80087e8:	e7f8      	b.n	80087dc <rcc_osc_on+0x18>
 80087ea:	4a09      	ldr	r2, [pc, #36]	; (8008810 <rcc_osc_on+0x4c>)
 80087ec:	6813      	ldr	r3, [r2, #0]
 80087ee:	f043 0301 	orr.w	r3, r3, #1
 80087f2:	e7f3      	b.n	80087dc <rcc_osc_on+0x18>
 80087f4:	4a07      	ldr	r2, [pc, #28]	; (8008814 <rcc_osc_on+0x50>)
 80087f6:	e7f9      	b.n	80087ec <rcc_osc_on+0x28>
 80087f8:	4a07      	ldr	r2, [pc, #28]	; (8008818 <rcc_osc_on+0x54>)
 80087fa:	e7f7      	b.n	80087ec <rcc_osc_on+0x28>
 80087fc:	4a04      	ldr	r2, [pc, #16]	; (8008810 <rcc_osc_on+0x4c>)
 80087fe:	6813      	ldr	r3, [r2, #0]
 8008800:	f043 5380 	orr.w	r3, r3, #268435456	; 0x10000000
 8008804:	e7ea      	b.n	80087dc <rcc_osc_on+0x18>
 8008806:	4a02      	ldr	r2, [pc, #8]	; (8008810 <rcc_osc_on+0x4c>)
 8008808:	6813      	ldr	r3, [r2, #0]
 800880a:	f043 6380 	orr.w	r3, r3, #67108864	; 0x4000000
 800880e:	e7e5      	b.n	80087dc <rcc_osc_on+0x18>
 8008810:	40023800 	.word	0x40023800
 8008814:	40023870 	.word	0x40023870
 8008818:	40023874 	.word	0x40023874

0800881c <rcc_osc_off>:
 800881c:	2806      	cmp	r0, #6
 800881e:	d80a      	bhi.n	8008836 <rcc_osc_off+0x1a>
 8008820:	e8df f000 	tbb	[pc, r0]
 8008824:	0a1d1804 	.word	0x0a1d1804
 8008828:	140f      	.short	0x140f
 800882a:	16          	.byte	0x16
 800882b:	00          	.byte	0x00
 800882c:	4a0e      	ldr	r2, [pc, #56]	; (8008868 <rcc_osc_off+0x4c>)
 800882e:	6813      	ldr	r3, [r2, #0]
 8008830:	f023 7380 	bic.w	r3, r3, #16777216	; 0x1000000
 8008834:	6013      	str	r3, [r2, #0]
 8008836:	4770      	bx	lr
 8008838:	4a0b      	ldr	r2, [pc, #44]	; (8008868 <rcc_osc_off+0x4c>)
 800883a:	6813      	ldr	r3, [r2, #0]
 800883c:	f423 3380 	bic.w	r3, r3, #65536	; 0x10000
 8008840:	e7f8      	b.n	8008834 <rcc_osc_off+0x18>
 8008842:	4a09      	ldr	r2, [pc, #36]	; (8008868 <rcc_osc_off+0x4c>)
 8008844:	6813      	ldr	r3, [r2, #0]
 8008846:	f023 0301 	bic.w	r3, r3, #1
 800884a:	e7f3      	b.n	8008834 <rcc_osc_off+0x18>
 800884c:	4a07      	ldr	r2, [pc, #28]	; (800886c <rcc_osc_off+0x50>)
 800884e:	e7f9      	b.n	8008844 <rcc_osc_off+0x28>
 8008850:	4a07      	ldr	r2, [pc, #28]	; (8008870 <rcc_osc_off+0x54>)
 8008852:	e7f7      	b.n	8008844 <rcc_osc_off+0x28>
 8008854:	4a04      	ldr	r2, [pc, #16]	; (8008868 <rcc_osc_off+0x4c>)
 8008856:	6813      	ldr	r3, [r2, #0]
 8008858:	f023 5380 	bic.w	r3, r3, #268435456	; 0x10000000
 800885c:	e7ea      	b.n	8008834 <rcc_osc_off+0x18>
 800885e:	4a02      	ldr	r2, [pc, #8]	; (8008868 <rcc_osc_off+0x4c>)
 8008860:	6813      	ldr	r3, [r2, #0]
 8008862:	f023 6380 	bic.w	r3, r3, #67108864	; 0x4000000
 8008866:	e7e5      	b.n	8008834 <rcc_osc_off+0x18>
 8008868:	40023800 	.word	0x40023800
 800886c:	40023870 	.word	0x40023870
 8008870:	40023874 	.word	0x40023874

08008874 <rcc_set_sysclk_source>:
 8008874:	4a03      	ldr	r2, [pc, #12]	; (8008884 <rcc_set_sysclk_source+0x10>)
 8008876:	6813      	ldr	r3, [r2, #0]
 8008878:	f023 0303 	bic.w	r3, r3, #3
 800887c:	4318      	orrs	r0, r3
 800887e:	6010      	str	r0, [r2, #0]
 8008880:	4770      	bx	lr
 8008882:	bf00      	nop
 8008884:	40023808 	.word	0x40023808

08008888 <rcc_set_ppre2>:
 8008888:	4a03      	ldr	r2, [pc, #12]	; (8008898 <rcc_set_ppre2+0x10>)
 800888a:	6813      	ldr	r3, [r2, #0]
 800888c:	f423 4360 	bic.w	r3, r3, #57344	; 0xe000
 8008890:	ea43 3040 	orr.w	r0, r3, r0, lsl #13
 8008894:	6010      	str	r0, [r2, #0]
 8008896:	4770      	bx	lr
 8008898:	40023808 	.word	0x40023808

0800889c <rcc_set_ppre1>:
 800889c:	4a03      	ldr	r2, [pc, #12]	; (80088ac <rcc_set_ppre1+0x10>)
 800889e:	6813      	ldr	r3, [r2, #0]
 80088a0:	f423 53e0 	bic.w	r3, r3, #7168	; 0x1c00
 80088a4:	ea43 2080 	orr.w	r0, r3, r0, lsl #10
 80088a8:	6010      	str	r0, [r2, #0]
 80088aa:	4770      	bx	lr
 80088ac:	40023808 	.word	0x40023808

080088b0 <rcc_set_hpre>:
 80088b0:	4a03      	ldr	r2, [pc, #12]	; (80088c0 <rcc_set_hpre+0x10>)
 80088b2:	6813      	ldr	r3, [r2, #0]
 80088b4:	f023 03f0 	bic.w	r3, r3, #240	; 0xf0
 80088b8:	ea43 1000 	orr.w	r0, r3, r0, lsl #4
 80088bc:	6010      	str	r0, [r2, #0]
 80088be:	4770      	bx	lr
 80088c0:	40023808 	.word	0x40023808

080088c4 <rcc_set_main_pll_hsi>:
 80088c4:	b510      	push	{r4, lr}
 80088c6:	f647 74c0 	movw	r4, #32704	; 0x7fc0
 80088ca:	ea04 1181 	and.w	r1, r4, r1, lsl #6
 80088ce:	f000 003f 	and.w	r0, r0, #63	; 0x3f
 80088d2:	061b      	lsls	r3, r3, #24
 80088d4:	f003 6370 	and.w	r3, r3, #251658240	; 0xf000000
 80088d8:	4301      	orrs	r1, r0
 80088da:	4319      	orrs	r1, r3
 80088dc:	9b02      	ldr	r3, [sp, #8]
 80088de:	0854      	lsrs	r4, r2, #1
 80088e0:	2b02      	cmp	r3, #2
 80088e2:	f104 34ff 	add.w	r4, r4, #4294967295	; 0xffffffff
 80088e6:	ea4f 4404 	mov.w	r4, r4, lsl #16
 80088ea:	bf38      	it	cc
 80088ec:	2302      	movcc	r3, #2
 80088ee:	f404 3440 	and.w	r4, r4, #196608	; 0x30000
 80088f2:	071b      	lsls	r3, r3, #28
 80088f4:	f003 43e0 	and.w	r3, r3, #1879048192	; 0x70000000
 80088f8:	4321      	orrs	r1, r4
 80088fa:	4319      	orrs	r1, r3
 80088fc:	4b01      	ldr	r3, [pc, #4]	; (8008904 <rcc_set_main_pll_hsi+0x40>)
 80088fe:	6019      	str	r1, [r3, #0]
 8008900:	bd10      	pop	{r4, pc}
 8008902:	bf00      	nop
 8008904:	40023804 	.word	0x40023804

08008908 <rcc_set_main_pll_hse>:
 8008908:	b510      	push	{r4, lr}
 800890a:	9c02      	ldr	r4, [sp, #8]
 800890c:	2c02      	cmp	r4, #2
 800890e:	bf38      	it	cc
 8008910:	2402      	movcc	r4, #2
 8008912:	0724      	lsls	r4, r4, #28
 8008914:	061b      	lsls	r3, r3, #24
 8008916:	f003 6370 	and.w	r3, r3, #251658240	; 0xf000000
 800891a:	f004 44e0 	and.w	r4, r4, #1879048192	; 0x70000000
 800891e:	0852      	lsrs	r2, r2, #1
 8008920:	431c      	orrs	r4, r3
 8008922:	f000 003f 	and.w	r0, r0, #63	; 0x3f
 8008926:	f647 73c0 	movw	r3, #32704	; 0x7fc0
 800892a:	3a01      	subs	r2, #1
 800892c:	ea03 1181 	and.w	r1, r3, r1, lsl #6
 8008930:	4304      	orrs	r4, r0
 8008932:	0412      	lsls	r2, r2, #16
 8008934:	430c      	orrs	r4, r1
 8008936:	f402 3240 	and.w	r2, r2, #196608	; 0x30000
 800893a:	4b03      	ldr	r3, [pc, #12]	; (8008948 <rcc_set_main_pll_hse+0x40>)
 800893c:	4314      	orrs	r4, r2
 800893e:	f444 0480 	orr.w	r4, r4, #4194304	; 0x400000
 8008942:	601c      	str	r4, [r3, #0]
 8008944:	bd10      	pop	{r4, pc}
 8008946:	bf00      	nop
 8008948:	40023804 	.word	0x40023804

0800894c <rcc_clock_setup_pll>:
 800894c:	b537      	push	{r0, r1, r2, r4, r5, lr}
 800894e:	4604      	mov	r4, r0
 8008950:	2004      	movs	r0, #4
 8008952:	f7ff ff37 	bl	80087c4 <rcc_osc_on>
 8008956:	2004      	movs	r0, #4
 8008958:	f7ff ff2c 	bl	80087b4 <rcc_wait_for_osc_ready>
 800895c:	2000      	movs	r0, #0
 800895e:	f7ff ff89 	bl	8008874 <rcc_set_sysclk_source>
 8008962:	79e3      	ldrb	r3, [r4, #7]
 8008964:	2b01      	cmp	r3, #1
 8008966:	d105      	bne.n	8008974 <rcc_clock_setup_pll+0x28>
 8008968:	2003      	movs	r0, #3
 800896a:	f7ff ff2b 	bl	80087c4 <rcc_osc_on>
 800896e:	2003      	movs	r0, #3
 8008970:	f7ff ff20 	bl	80087b4 <rcc_wait_for_osc_ready>
 8008974:	f640 001c 	movw	r0, #2076	; 0x81c
 8008978:	f7ff fee0 	bl	800873c <rcc_periph_clock_enable>
 800897c:	7be0      	ldrb	r0, [r4, #15]
 800897e:	f000 f99b 	bl	8008cb8 <pwr_set_vos_scale>
 8008982:	7b20      	ldrb	r0, [r4, #12]
 8008984:	f7ff ff94 	bl	80088b0 <rcc_set_hpre>
 8008988:	7b60      	ldrb	r0, [r4, #13]
 800898a:	f7ff ff87 	bl	800889c <rcc_set_ppre1>
 800898e:	7ba0      	ldrb	r0, [r4, #14]
 8008990:	f7ff ff7a 	bl	8008888 <rcc_set_ppre2>
 8008994:	4a25      	ldr	r2, [pc, #148]	; (8008a2c <rcc_clock_setup_pll+0xe0>)
 8008996:	8861      	ldrh	r1, [r4, #2]
 8008998:	6813      	ldr	r3, [r2, #0]
 800899a:	f023 7380 	bic.w	r3, r3, #16777216	; 0x1000000
 800899e:	6013      	str	r3, [r2, #0]
 80089a0:	79e3      	ldrb	r3, [r4, #7]
 80089a2:	79a5      	ldrb	r5, [r4, #6]
 80089a4:	7922      	ldrb	r2, [r4, #4]
 80089a6:	7820      	ldrb	r0, [r4, #0]
 80089a8:	9500      	str	r5, [sp, #0]
 80089aa:	2b01      	cmp	r3, #1
 80089ac:	7963      	ldrb	r3, [r4, #5]
 80089ae:	d131      	bne.n	8008a14 <rcc_clock_setup_pll+0xc8>
 80089b0:	f7ff ffaa 	bl	8008908 <rcc_set_main_pll_hse>
 80089b4:	4a1d      	ldr	r2, [pc, #116]	; (8008a2c <rcc_clock_setup_pll+0xe0>)
 80089b6:	6813      	ldr	r3, [r2, #0]
 80089b8:	f043 7380 	orr.w	r3, r3, #16777216	; 0x1000000
 80089bc:	6013      	str	r3, [r2, #0]
 80089be:	2000      	movs	r0, #0
 80089c0:	f7ff fef8 	bl	80087b4 <rcc_wait_for_osc_ready>
 80089c4:	68a3      	ldr	r3, [r4, #8]
 80089c6:	055a      	lsls	r2, r3, #21
 80089c8:	d527      	bpl.n	8008a1a <rcc_clock_setup_pll+0xce>
 80089ca:	f000 f955 	bl	8008c78 <flash_dcache_enable>
 80089ce:	68a3      	ldr	r3, [r4, #8]
 80089d0:	059b      	lsls	r3, r3, #22
 80089d2:	d525      	bpl.n	8008a20 <rcc_clock_setup_pll+0xd4>
 80089d4:	f000 f960 	bl	8008c98 <flash_icache_enable>
 80089d8:	68a0      	ldr	r0, [r4, #8]
 80089da:	f7ff fe5b 	bl	8008694 <flash_set_ws>
 80089de:	2002      	movs	r0, #2
 80089e0:	f7ff ff48 	bl	8008874 <rcc_set_sysclk_source>
 80089e4:	4a12      	ldr	r2, [pc, #72]	; (8008a30 <rcc_clock_setup_pll+0xe4>)
 80089e6:	6813      	ldr	r3, [r2, #0]
 80089e8:	f3c3 0381 	ubfx	r3, r3, #2, #2
 80089ec:	2b02      	cmp	r3, #2
 80089ee:	d1fa      	bne.n	80089e6 <rcc_clock_setup_pll+0x9a>
 80089f0:	4b10      	ldr	r3, [pc, #64]	; (8008a34 <rcc_clock_setup_pll+0xe8>)
 80089f2:	6922      	ldr	r2, [r4, #16]
 80089f4:	601a      	str	r2, [r3, #0]
 80089f6:	4b10      	ldr	r3, [pc, #64]	; (8008a38 <rcc_clock_setup_pll+0xec>)
 80089f8:	6962      	ldr	r2, [r4, #20]
 80089fa:	601a      	str	r2, [r3, #0]
 80089fc:	4b0f      	ldr	r3, [pc, #60]	; (8008a3c <rcc_clock_setup_pll+0xf0>)
 80089fe:	69a2      	ldr	r2, [r4, #24]
 8008a00:	601a      	str	r2, [r3, #0]
 8008a02:	79e3      	ldrb	r3, [r4, #7]
 8008a04:	2b01      	cmp	r3, #1
 8008a06:	d10e      	bne.n	8008a26 <rcc_clock_setup_pll+0xda>
 8008a08:	2004      	movs	r0, #4
 8008a0a:	b003      	add	sp, #12
 8008a0c:	e8bd 4030 	ldmia.w	sp!, {r4, r5, lr}
 8008a10:	f7ff bf04 	b.w	800881c <rcc_osc_off>
 8008a14:	f7ff ff56 	bl	80088c4 <rcc_set_main_pll_hsi>
 8008a18:	e7cc      	b.n	80089b4 <rcc_clock_setup_pll+0x68>
 8008a1a:	f000 f935 	bl	8008c88 <flash_dcache_disable>
 8008a1e:	e7d6      	b.n	80089ce <rcc_clock_setup_pll+0x82>
 8008a20:	f000 f942 	bl	8008ca8 <flash_icache_disable>
 8008a24:	e7d8      	b.n	80089d8 <rcc_clock_setup_pll+0x8c>
 8008a26:	b003      	add	sp, #12
 8008a28:	bd30      	pop	{r4, r5, pc}
 8008a2a:	bf00      	nop
 8008a2c:	40023800 	.word	0x40023800
 8008a30:	40023808 	.word	0x40023808
 8008a34:	200009ac 	.word	0x200009ac
 8008a38:	200009b0 	.word	0x200009b0
 8008a3c:	200009b4 	.word	0x200009b4

08008a40 <rng_enable>:
 8008a40:	4a02      	ldr	r2, [pc, #8]	; (8008a4c <rng_enable+0xc>)
 8008a42:	6813      	ldr	r3, [r2, #0]
 8008a44:	f043 0304 	orr.w	r3, r3, #4
 8008a48:	6013      	str	r3, [r2, #0]
 8008a4a:	4770      	bx	lr
 8008a4c:	50060800 	.word	0x50060800

08008a50 <rng_get_random>:
 8008a50:	4b07      	ldr	r3, [pc, #28]	; (8008a70 <rng_get_random+0x20>)
 8008a52:	681a      	ldr	r2, [r3, #0]
 8008a54:	f012 0f06 	tst.w	r2, #6
 8008a58:	d108      	bne.n	8008a6c <rng_get_random+0x1c>
 8008a5a:	681b      	ldr	r3, [r3, #0]
 8008a5c:	f013 0301 	ands.w	r3, r3, #1
 8008a60:	d004      	beq.n	8008a6c <rng_get_random+0x1c>
 8008a62:	4b04      	ldr	r3, [pc, #16]	; (8008a74 <rng_get_random+0x24>)
 8008a64:	681b      	ldr	r3, [r3, #0]
 8008a66:	6003      	str	r3, [r0, #0]
 8008a68:	2001      	movs	r0, #1
 8008a6a:	4770      	bx	lr
 8008a6c:	2000      	movs	r0, #0
 8008a6e:	4770      	bx	lr
 8008a70:	50060804 	.word	0x50060804
 8008a74:	50060808 	.word	0x50060808

08008a78 <rng_get_random_blocking>:
 8008a78:	b537      	push	{r0, r1, r2, r4, r5, lr}
 8008a7a:	4913      	ldr	r1, [pc, #76]	; (8008ac8 <rng_get_random_blocking+0x50>)
 8008a7c:	4d13      	ldr	r5, [pc, #76]	; (8008acc <rng_get_random_blocking+0x54>)
 8008a7e:	460c      	mov	r4, r1
 8008a80:	680b      	ldr	r3, [r1, #0]
 8008a82:	065a      	lsls	r2, r3, #25
 8008a84:	d511      	bpl.n	8008aaa <rng_get_random_blocking+0x32>
 8008a86:	680b      	ldr	r3, [r1, #0]
 8008a88:	f023 0340 	bic.w	r3, r3, #64	; 0x40
 8008a8c:	600b      	str	r3, [r1, #0]
 8008a8e:	230c      	movs	r3, #12
 8008a90:	682a      	ldr	r2, [r5, #0]
 8008a92:	9201      	str	r2, [sp, #4]
 8008a94:	3b01      	subs	r3, #1
 8008a96:	d1fb      	bne.n	8008a90 <rng_get_random_blocking+0x18>
 8008a98:	4b0d      	ldr	r3, [pc, #52]	; (8008ad0 <rng_get_random_blocking+0x58>)
 8008a9a:	681a      	ldr	r2, [r3, #0]
 8008a9c:	f022 0204 	bic.w	r2, r2, #4
 8008aa0:	601a      	str	r2, [r3, #0]
 8008aa2:	681a      	ldr	r2, [r3, #0]
 8008aa4:	f042 0204 	orr.w	r2, r2, #4
 8008aa8:	601a      	str	r2, [r3, #0]
 8008aaa:	6823      	ldr	r3, [r4, #0]
 8008aac:	069b      	lsls	r3, r3, #26
 8008aae:	bf42      	ittt	mi
 8008ab0:	6823      	ldrmi	r3, [r4, #0]
 8008ab2:	f023 0320 	bicmi.w	r3, r3, #32
 8008ab6:	6023      	strmi	r3, [r4, #0]
 8008ab8:	a801      	add	r0, sp, #4
 8008aba:	f7ff ffc9 	bl	8008a50 <rng_get_random>
 8008abe:	2800      	cmp	r0, #0
 8008ac0:	d0de      	beq.n	8008a80 <rng_get_random_blocking+0x8>
 8008ac2:	9801      	ldr	r0, [sp, #4]
 8008ac4:	b003      	add	sp, #12
 8008ac6:	bd30      	pop	{r4, r5, pc}
 8008ac8:	50060804 	.word	0x50060804
 8008acc:	50060808 	.word	0x50060808
 8008ad0:	50060800 	.word	0x50060800

08008ad4 <usart_set_baudrate>:
 8008ad4:	4a07      	ldr	r2, [pc, #28]	; (8008af4 <usart_set_baudrate+0x20>)
 8008ad6:	4b08      	ldr	r3, [pc, #32]	; (8008af8 <usart_set_baudrate+0x24>)
 8008ad8:	b510      	push	{r4, lr}
 8008ada:	f420 6480 	bic.w	r4, r0, #1024	; 0x400
 8008ade:	4294      	cmp	r4, r2
 8008ae0:	681b      	ldr	r3, [r3, #0]
 8008ae2:	bf04      	itt	eq
 8008ae4:	4b05      	ldreq	r3, [pc, #20]	; (8008afc <usart_set_baudrate+0x28>)
 8008ae6:	681b      	ldreq	r3, [r3, #0]
 8008ae8:	eb03 0351 	add.w	r3, r3, r1, lsr #1
 8008aec:	fbb3 f1f1 	udiv	r1, r3, r1
 8008af0:	6081      	str	r1, [r0, #8]
 8008af2:	bd10      	pop	{r4, pc}
 8008af4:	40011000 	.word	0x40011000
 8008af8:	200009b0 	.word	0x200009b0
 8008afc:	200009b4 	.word	0x200009b4

08008b00 <usart_set_databits>:
 8008b00:	68c3      	ldr	r3, [r0, #12]
 8008b02:	2908      	cmp	r1, #8
 8008b04:	bf0c      	ite	eq
 8008b06:	f423 5380 	biceq.w	r3, r3, #4096	; 0x1000
 8008b0a:	f443 5380 	orrne.w	r3, r3, #4096	; 0x1000
 8008b0e:	60c3      	str	r3, [r0, #12]
 8008b10:	4770      	bx	lr

08008b12 <usart_set_stopbits>:
 8008b12:	6903      	ldr	r3, [r0, #16]
 8008b14:	f423 5340 	bic.w	r3, r3, #12288	; 0x3000
 8008b18:	4319      	orrs	r1, r3
 8008b1a:	6101      	str	r1, [r0, #16]
 8008b1c:	4770      	bx	lr

08008b1e <usart_set_parity>:
 8008b1e:	68c3      	ldr	r3, [r0, #12]
 8008b20:	f423 63c0 	bic.w	r3, r3, #1536	; 0x600
 8008b24:	4319      	orrs	r1, r3
 8008b26:	60c1      	str	r1, [r0, #12]
 8008b28:	4770      	bx	lr

08008b2a <usart_set_mode>:
 8008b2a:	68c3      	ldr	r3, [r0, #12]
 8008b2c:	f023 030c 	bic.w	r3, r3, #12
 8008b30:	4319      	orrs	r1, r3
 8008b32:	60c1      	str	r1, [r0, #12]
 8008b34:	4770      	bx	lr

08008b36 <usart_set_flow_control>:
 8008b36:	6943      	ldr	r3, [r0, #20]
 8008b38:	f423 7340 	bic.w	r3, r3, #768	; 0x300
 8008b3c:	4319      	orrs	r1, r3
 8008b3e:	6141      	str	r1, [r0, #20]
 8008b40:	4770      	bx	lr

08008b42 <usart_enable>:
 8008b42:	68c3      	ldr	r3, [r0, #12]
 8008b44:	f443 5300 	orr.w	r3, r3, #8192	; 0x2000
 8008b48:	60c3      	str	r3, [r0, #12]
 8008b4a:	4770      	bx	lr

08008b4c <usart_send_blocking>:
 8008b4c:	b513      	push	{r0, r1, r4, lr}
 8008b4e:	4604      	mov	r4, r0
 8008b50:	9101      	str	r1, [sp, #4]
 8008b52:	f000 f82c 	bl	8008bae <usart_wait_send_ready>
 8008b56:	9901      	ldr	r1, [sp, #4]
 8008b58:	4620      	mov	r0, r4
 8008b5a:	b002      	add	sp, #8
 8008b5c:	e8bd 4010 	ldmia.w	sp!, {r4, lr}
 8008b60:	f000 b81d 	b.w	8008b9e <usart_send>

08008b64 <usart_recv_blocking>:
 8008b64:	b510      	push	{r4, lr}
 8008b66:	4604      	mov	r4, r0
 8008b68:	f000 f825 	bl	8008bb6 <usart_wait_recv_ready>
 8008b6c:	4620      	mov	r0, r4
 8008b6e:	e8bd 4010 	ldmia.w	sp!, {r4, lr}
 8008b72:	f000 b818 	b.w	8008ba6 <usart_recv>

08008b76 <usart_enable_rx_dma>:
 8008b76:	6943      	ldr	r3, [r0, #20]
 8008b78:	f043 0340 	orr.w	r3, r3, #64	; 0x40
 8008b7c:	6143      	str	r3, [r0, #20]
 8008b7e:	4770      	bx	lr

08008b80 <usart_disable_rx_dma>:
 8008b80:	6943      	ldr	r3, [r0, #20]
 8008b82:	f023 0340 	bic.w	r3, r3, #64	; 0x40
 8008b86:	6143      	str	r3, [r0, #20]
 8008b88:	4770      	bx	lr

08008b8a <usart_enable_tx_dma>:
 8008b8a:	6943      	ldr	r3, [r0, #20]
 8008b8c:	f043 0380 	orr.w	r3, r3, #128	; 0x80
 8008b90:	6143      	str	r3, [r0, #20]
 8008b92:	4770      	bx	lr

08008b94 <usart_disable_tx_dma>:
 8008b94:	6943      	ldr	r3, [r0, #20]
 8008b96:	f023 0380 	bic.w	r3, r3, #128	; 0x80
 8008b9a:	6143      	str	r3, [r0, #20]
 8008b9c:	4770      	bx	lr

08008b9e <usart_send>:
 8008b9e:	f3c1 0108 	ubfx	r1, r1, #0, #9
 8008ba2:	6041      	str	r1, [r0, #4]
 8008ba4:	4770      	bx	lr

08008ba6 <usart_recv>:
 8008ba6:	6840      	ldr	r0, [r0, #4]
 8008ba8:	f3c0 0008 	ubfx	r0, r0, #0, #9
 8008bac:	4770      	bx	lr

08008bae <usart_wait_send_ready>:
 8008bae:	6803      	ldr	r3, [r0, #0]
 8008bb0:	061b      	lsls	r3, r3, #24
 8008bb2:	d5fc      	bpl.n	8008bae <usart_wait_send_ready>
 8008bb4:	4770      	bx	lr

08008bb6 <usart_wait_recv_ready>:
 8008bb6:	6803      	ldr	r3, [r0, #0]
 8008bb8:	069b      	lsls	r3, r3, #26
 8008bba:	d5fc      	bpl.n	8008bb6 <usart_wait_recv_ready>
 8008bbc:	4770      	bx	lr

08008bbe <blocking_handler>:
 8008bbe:	e7fe      	b.n	8008bbe <blocking_handler>

08008bc0 <null_handler>:
 8008bc0:	4770      	bx	lr
	...

08008bc4 <reset_handler>:
 8008bc4:	b538      	push	{r3, r4, r5, lr}
 8008bc6:	4a1a      	ldr	r2, [pc, #104]	; (8008c30 <reset_handler+0x6c>)
 8008bc8:	4b1a      	ldr	r3, [pc, #104]	; (8008c34 <reset_handler+0x70>)
 8008bca:	491b      	ldr	r1, [pc, #108]	; (8008c38 <reset_handler+0x74>)
 8008bcc:	428b      	cmp	r3, r1
 8008bce:	d31b      	bcc.n	8008c08 <reset_handler+0x44>
 8008bd0:	4a1a      	ldr	r2, [pc, #104]	; (8008c3c <reset_handler+0x78>)
 8008bd2:	2100      	movs	r1, #0
 8008bd4:	4293      	cmp	r3, r2
 8008bd6:	d31c      	bcc.n	8008c12 <reset_handler+0x4e>
 8008bd8:	4a19      	ldr	r2, [pc, #100]	; (8008c40 <reset_handler+0x7c>)
 8008bda:	4c1a      	ldr	r4, [pc, #104]	; (8008c44 <reset_handler+0x80>)
 8008bdc:	6813      	ldr	r3, [r2, #0]
 8008bde:	4d1a      	ldr	r5, [pc, #104]	; (8008c48 <reset_handler+0x84>)
 8008be0:	f443 7300 	orr.w	r3, r3, #512	; 0x200
 8008be4:	6013      	str	r3, [r2, #0]
 8008be6:	6f53      	ldr	r3, [r2, #116]	; 0x74
 8008be8:	f443 0370 	orr.w	r3, r3, #15728640	; 0xf00000
 8008bec:	6753      	str	r3, [r2, #116]	; 0x74
 8008bee:	42ac      	cmp	r4, r5
 8008bf0:	d312      	bcc.n	8008c18 <reset_handler+0x54>
 8008bf2:	4c16      	ldr	r4, [pc, #88]	; (8008c4c <reset_handler+0x88>)
 8008bf4:	4d16      	ldr	r5, [pc, #88]	; (8008c50 <reset_handler+0x8c>)
 8008bf6:	42ac      	cmp	r4, r5
 8008bf8:	d312      	bcc.n	8008c20 <reset_handler+0x5c>
 8008bfa:	f7f7 fad7 	bl	80001ac <main>
 8008bfe:	4c15      	ldr	r4, [pc, #84]	; (8008c54 <reset_handler+0x90>)
 8008c00:	4d15      	ldr	r5, [pc, #84]	; (8008c58 <reset_handler+0x94>)
 8008c02:	42ac      	cmp	r4, r5
 8008c04:	d310      	bcc.n	8008c28 <reset_handler+0x64>
 8008c06:	bd38      	pop	{r3, r4, r5, pc}
 8008c08:	f852 0b04 	ldr.w	r0, [r2], #4
 8008c0c:	f843 0b04 	str.w	r0, [r3], #4
 8008c10:	e7dc      	b.n	8008bcc <reset_handler+0x8>
 8008c12:	f843 1b04 	str.w	r1, [r3], #4
 8008c16:	e7dd      	b.n	8008bd4 <reset_handler+0x10>
 8008c18:	f854 3b04 	ldr.w	r3, [r4], #4
 8008c1c:	4798      	blx	r3
 8008c1e:	e7e6      	b.n	8008bee <reset_handler+0x2a>
 8008c20:	f854 3b04 	ldr.w	r3, [r4], #4
 8008c24:	4798      	blx	r3
 8008c26:	e7e6      	b.n	8008bf6 <reset_handler+0x32>
 8008c28:	f854 3b04 	ldr.w	r3, [r4], #4
 8008c2c:	4798      	blx	r3
 8008c2e:	e7e8      	b.n	8008c02 <reset_handler+0x3e>
 8008c30:	08008ff0 	.word	0x08008ff0
 8008c34:	20000000 	.word	0x20000000
 8008c38:	200009b8 	.word	0x200009b8
 8008c3c:	20000a18 	.word	0x20000a18
 8008c40:	e000ed14 	.word	0xe000ed14
 8008c44:	08008fe8 	.word	0x08008fe8
 8008c48:	08008fe8 	.word	0x08008fe8
 8008c4c:	08008fe8 	.word	0x08008fe8
 8008c50:	08008fe8 	.word	0x08008fe8
 8008c54:	08008fe8 	.word	0x08008fe8
 8008c58:	08008fe8 	.word	0x08008fe8

08008c5c <nvic_enable_irq>:
 8008c5c:	4b05      	ldr	r3, [pc, #20]	; (8008c74 <nvic_enable_irq+0x18>)
 8008c5e:	0942      	lsrs	r2, r0, #5
 8008c60:	eb03 0382 	add.w	r3, r3, r2, lsl #2
 8008c64:	f000 001f 	and.w	r0, r0, #31
 8008c68:	2201      	movs	r2, #1
 8008c6a:	fa02 f000 	lsl.w	r0, r2, r0
 8008c6e:	6018      	str	r0, [r3, #0]
 8008c70:	4770      	bx	lr
 8008c72:	bf00      	nop
 8008c74:	e000e100 	.word	0xe000e100

08008c78 <flash_dcache_enable>:
 8008c78:	4a02      	ldr	r2, [pc, #8]	; (8008c84 <flash_dcache_enable+0xc>)
 8008c7a:	6813      	ldr	r3, [r2, #0]
 8008c7c:	f443 6380 	orr.w	r3, r3, #1024	; 0x400
 8008c80:	6013      	str	r3, [r2, #0]
 8008c82:	4770      	bx	lr
 8008c84:	40023c00 	.word	0x40023c00

08008c88 <flash_dcache_disable>:
 8008c88:	4a02      	ldr	r2, [pc, #8]	; (8008c94 <flash_dcache_disable+0xc>)
 8008c8a:	6813      	ldr	r3, [r2, #0]
 8008c8c:	f423 6380 	bic.w	r3, r3, #1024	; 0x400
 8008c90:	6013      	str	r3, [r2, #0]
 8008c92:	4770      	bx	lr
 8008c94:	40023c00 	.word	0x40023c00

08008c98 <flash_icache_enable>:
 8008c98:	4a02      	ldr	r2, [pc, #8]	; (8008ca4 <flash_icache_enable+0xc>)
 8008c9a:	6813      	ldr	r3, [r2, #0]
 8008c9c:	f443 7300 	orr.w	r3, r3, #512	; 0x200
 8008ca0:	6013      	str	r3, [r2, #0]
 8008ca2:	4770      	bx	lr
 8008ca4:	40023c00 	.word	0x40023c00

08008ca8 <flash_icache_disable>:
 8008ca8:	4a02      	ldr	r2, [pc, #8]	; (8008cb4 <flash_icache_disable+0xc>)
 8008caa:	6813      	ldr	r3, [r2, #0]
 8008cac:	f423 7300 	bic.w	r3, r3, #512	; 0x200
 8008cb0:	6013      	str	r3, [r2, #0]
 8008cb2:	4770      	bx	lr
 8008cb4:	40023c00 	.word	0x40023c00

08008cb8 <pwr_set_vos_scale>:
 8008cb8:	4a04      	ldr	r2, [pc, #16]	; (8008ccc <pwr_set_vos_scale+0x14>)
 8008cba:	6813      	ldr	r3, [r2, #0]
 8008cbc:	0380      	lsls	r0, r0, #14
 8008cbe:	f423 4340 	bic.w	r3, r3, #49152	; 0xc000
 8008cc2:	b280      	uxth	r0, r0
 8008cc4:	4318      	orrs	r0, r3
 8008cc6:	6010      	str	r0, [r2, #0]
 8008cc8:	4770      	bx	lr
 8008cca:	bf00      	nop
 8008ccc:	40007000 	.word	0x40007000

08008cd0 <ephermeral_key>:
 8008cd0:	ba746580 58cd6261 47593049 b6351636     .et.ab.XI0YG6.5.
 8008ce0:	7a7c7de7 c038de83 c9b87480 430ad48f     .}|z..8..t.....C

08008cf0 <benchmarkclock>:
 8008cf0:	00c00008 01000408 00000600 00000400     ................
 8008d00:	0a037a00 00b71b00 016e3600 74736f43     .z.......6n.Cost
 8008d10:	77736320 203a7061 00006425               cswap: %d..

08008d1c <g_basePointCurve25519>:
 8008d1c:	00000009 00000000 00000000 00000000     ................
	...
 8008d40:	ffffffec ffffffff ffffffff ffffffff     ................
 8008d50:	ffffffff ffffffff ffffffff 7fffffff     ................
 8008d60:	00464e49 00666e69 004e414e 006e616e     INF.inf.NAN.nan.
 8008d70:	33323130 37363534 62613938 66656463     0123456789abcdef
 8008d80:	00000000 33323130 37363534 42413938     ....0123456789AB
 8008d90:	46454443 00000000 6c756e28 0000296c     CDEF....(null)..
 8008da0:	00000030                                0...

08008da4 <blanks.8714>:
 8008da4:	20202020 20202020 20202020 20202020                     

08008db4 <zeroes.8715>:
 8008db4:	30303030 30303030 30303030 30303030     0000000000000000
 8008dc4:	004e614e 69666e49 7974696e 00000000     NaN.Infinity....
 8008dd4:	00000000                                ....

08008dd8 <__mprec_bigtens>:
 8008dd8:	37e08000 4341c379 b5056e17 4693b8b5     ...7y.AC.n.....F
 8008de8:	e93ff9f5 4d384f03 f9301d32 5a827748     ..?..O8M2.0.Hw.Z
 8008df8:	7f73bf3c 75154fdd                       <.s..O.u

08008e00 <__mprec_tens>:
 8008e00:	00000000 3ff00000 00000000 40240000     .......?......$@
 8008e10:	00000000 40590000 00000000 408f4000     ......Y@.....@.@
 8008e20:	00000000 40c38800 00000000 40f86a00     .......@.....j.@
 8008e30:	00000000 412e8480 00000000 416312d0     .......A......cA
 8008e40:	00000000 4197d784 00000000 41cdcd65     .......A....e..A
 8008e50:	20000000 4202a05f e8000000 42374876     ... _..B....vH7B
 8008e60:	a2000000 426d1a94 e5400000 42a2309c     ......mB..@..0.B
 8008e70:	1e900000 42d6bcc4 26340000 430c6bf5     .......B..4&.k.C
 8008e80:	37e08000 4341c379 85d8a000 43763457     ...7y.AC....W4vC
 8008e90:	674ec800 43abc16d 60913d00 43e158e4     ..Ngm..C.=.`.X.C
 8008ea0:	78b58c40 4415af1d d6e2ef50 444b1ae4     @..x...DP.....KD
 8008eb0:	064dd592 4480f0cf c7e14af6 44b52d02     ..M....D.J...-.D
 8008ec0:	79d99db4 44ea7843                       ...yCx.D

08008ec8 <p05.7478>:
 8008ec8:	00000005 00000019 0000007d 00000043     ........}...C...
 8008ed8:	49534f50 00000058 0000002e              POSIX.......

08008ee4 <_ctype_>:
 8008ee4:	20202000 20202020 28282020 20282828     .         ((((( 
 8008ef4:	20202020 20202020 20202020 20202020                     
 8008f04:	10108820 10101010 10101010 10101010      ...............
 8008f14:	04040410 04040404 10040404 10101010     ................
 8008f24:	41411010 41414141 01010101 01010101     ..AAAAAA........
 8008f34:	01010101 01010101 01010101 10101010     ................
 8008f44:	42421010 42424242 02020202 02020202     ..BBBBBB........
 8008f54:	02020202 02020202 02020202 10101010     ................
 8008f64:	00000020 00000000 00000000 00000000      ...............
	...
